xc:_glClearStencil
ceg:_UInt16_System_IConvertible_ToChar_m2096055221_AdjustorThunk
hJf:_Array_TrueForAll_TisRuntimeObject_m1084992726_gshared
iij:__ZN6il2cpp2vm5Array13GetByteLengthEP11Il2CppArray
Fxi:_KeyBuilder_get_Rng_m3373220441
rSa:__Z30GetIntermediateRendererManagerv
Vxa:__Z21SourceMipLevelForBlitiiii
TWa:__ZN31CanvasBatchIntermediateRenderer15AddAsRenderNodeER15RenderNodeQueueRK20DeprecatedSourceData
tbg:_TimeSpan_get_Hours_m550761902
kOd:_UnmanagedMemoryStream_Write_m930787521
yr:__ZN11UnityEngine9Animation28GenericAnimationBindingCacheD2Ev
moi:_X509Store_LoadCrl_m1881903843
h0h:_Array_Sort_TisUICharInfo_t75501106_TisUICharInfo_t75501106_m722747892_gshared
R6a:__ZNSt3__26vectorI13dynamic_arrayI8Vector2fLj4EENS_9allocatorIS3_EEEC2INS_11__wrap_iterIPS3_EEEET_SB_RKS5_PNS_9enable_ifIXaasr21__is_forward_iteratorISB_EE5valuesr16is_constructibleIS3_NS_15iterator_traitsISB_E9referenceEEE5valueEvE4typeE
ZXb:__Z18RestoreRenderStateR20CameraRenderOldStateR17ShaderPassContext
tyb:__Z18Transfer_BlittableI18StreamedBinaryReadILb1EELb1E5RectTIfEEvRK29SerializationCommandArgumentsR31RuntimeSerializationCommandInfo
lub:__Z18Transfer_BlittableI24GenerateTypeTreeTransferLb0E11ColorRGBA32EvRK29SerializationCommandArgumentsR31RuntimeSerializationCommandInfo
eDb:__Z25scripting_class_from_name17ScriptingImagePtrPKcS1_
cMf:_Array_InternalArray__IndexOf_TisKeyValuePair_2_t3699644050_m1021241249_gshared
O2i:__ZN14dense_hash_mapI10KeyWrapperINSt3__24pairIPK12PropertyInfoP11Il2CppClassEEEj17ReflectionMapHashIS8_ENS9_14EqualsComparerINS1_8equal_toIS8_EEEENS1_9allocatorINS2_IKS9_jEEEEE15set_deleted_keyERSH_
FEb:__Z29scripting_class_enum_basetype17ScriptingClassPtr
fte:_InternalEnumerator_1_get_Current_m1477715453_gshared
Ilb:__ZNK20LocalFileSystemPosix6ParentERK13FileEntryDataRN4core12basic_stringIcNS3_20StringStorageDefaultIcEEEE
nvg:_RectTransform_GetWorldCorners_m3553547973
Keh:_Collection_1_System_Collections_IList_Remove_m1476284619_gshared
kQd:_MonoType_IsPrimitiveImpl_m2401722705
vjf:_SHA1CryptoServiceProvider__ctor_m4195188793
Xkg:_CSSMeasureFunc_BeginInvoke_m3802154595
u8c:_Dropdown_Hide_m504034854
GLa:__ZN17PersistentManager22CheckInstanceIDsLoadedEPii
O3a:__ZN9Texture2D25CreateScaledAndPaddedDataEPP17SharedTextureDataS2_
hzg:_Vector2_get_up_m2647420593
zva:__ZN7ApiGLES17CopyBufferSubDataEjjlll
dPf:_Array_InternalArray__ICollection_CopyTo_TisUInt64_t4134040092_m691431926_gshared
iaf:_IPAddress_ToString_m1181734207
$6f:_StringBuilder_Append_m1965104174
Woc:__ZN5Unity9rapidjson15GenericDocumentINS0_4UTF8IcEE13JSONAllocatorS4_E11ParseStreamILj1ES3_NS0_25GenericInsituStringStreamIS3_EEEERS5_RT1_
GVf:_EqualityComparer_1__cctor_m3766928733_gshared
eQb:__ZN25CameraStackRenderingState20GetOrCreateBuiltinRTE24BuiltinRenderTextureTypeii17DepthBufferFormat19RenderTextureFormatj22RenderTextureReadWrite14VRTextureUsagei
Bgi:_UnityAction_1_Invoke_m610765085_gshared
vO:__ZN11AudioModule26SetDefaultMicrophoneDriverEPv
U5d:_Kernel_modInverse_m652700340
j8a:__ZNK14Texture2DArray26CanReuploadDataToGfxDeviceEv
tUb:__ZN17PrePassRenderLoop14RenderBasePassEP13RenderTextureRK14LightingLayersR13dynamic_arrayI16RenderObjectDataLj4EERbR10MinMaxAABB
Lmc:__ZN5IMGUI18RepaintModalWindowER8GUIState
i4:__ZNK15dense_hashtableINSt3__24pairIKN9ShaderLab7Program23ShaderKeywordSetAndHashEPKNS2_10SubProgramEEES4_NS3_24ShaderKeywordHashFunctorEN14dense_hash_mapIS4_S8_SA_NS0_8equal_toIS4_EE13stl_allocatorIS9_L18MemLabelIdentifier67ELi16EEE9SelectKeyESD_SG_E23find_position_with_hashERS5_j
KDf:_CompareInfo_Finalize_m404687489
U6a:__Z23SetSpriteMeshIndexCountP14SharedMeshDataj
X8f:_UTF8Decoder_GetChars_m1236346907
zxg:_TouchScreenKeyboard_Open_m231964201
W_a:__ZN7Texture13SetFilterModeEi
Kjj:__ZN6il2cpp8metadata13GenericMethod9GetMethodEPK19Il2CppGenericMethod
mq:__ZNSt3__26vectorIN4core12basic_stringIcNS1_20StringStorageDefaultIcEEEENS_9allocatorIS5_EEE7reserveEj
RTd:_Default_SelectProperty_m1220817815
WDe:_RemotingConfiguration_IsRemotelyActivatedClientType_m4117048589
pvg:_Transform_TransformPoint_m226827784
spa:__ZN13GfxDeviceGLES11SetViewportERK5RectTIiE
Bjc:__Z24Time_Get_Custom_PropTimev
Od:_emscripten_glDepthRange
Dge:_SslStreamBase_BeginNegotiateHandshake_m4180435790
m_b:__ZNSt3__26vectorINS_4pairIN4core12basic_stringIcNS2_20StringStorageDefaultIcEEEES6_EE13stl_allocatorIS7_L18MemLabelIdentifier38ELi16EEE12__move_rangeEPS7_SC_SC_
Cia:__Z14resize_trimmedINSt3__26vectorIN9ShaderLab20SerializedSubProgram12UAVParameterENS0_9allocatorIS4_EEEEEvRT_j
opc:__ZN5Unity9rapidjson13GenericReaderINS0_4UTF8IcEES3_13JSONAllocatorE11ParseObjectILj1ENS0_25GenericInsituStringStreamIS3_EENS0_15GenericDocumentIS3_S4_S4_EEEEvRT0_RT1_
O2c:_StandaloneInputModule_GetRawMoveVector_m2737091079
jXh:__ZL62Selectable_t3250028441_CustomAttributesCacheGenerator_m_ColorsP21CustomAttributesCache
Wge:_SslStreamBase_EndWrite_m4073224031
H1:__ZNSt3__218__insertion_sort_3IRNS_6__lessI14ObjectLoadDataS2_EEPS2_EEvT0_S6_T_
pxa:__ZN4crndL20crnd_default_reallocEPvjPjbS0_
Cxj:__ZNSt3__212basic_stringIcNS_11char_traitsIcEENS_9allocatorIcEEEC2ERKS5_
K7a:__ZN18SpriteAtlasManager19AddRequestingSpriteE4PPtrI6SpriteE
mjc:__Z33Texture_CUSTOM_Internal_GetHeightP12Il2CppObject
mBe:_ValueCollection_System_Collections_ICollection_get_SyncRoot_m3381653267_gshared
cXb:__ZN23ScriptableRenderContextC2Ev
ibd:_GridLayoutGroup_get_spacing_m2409263614
fAe:_Enumerator_MoveNext_m3051926902_gshared
M2f:_List_1_CheckIndex_m581273900_gshared
FGc:_UNITY_FT_Stream_GetChar
Uyb:__Z18Transfer_BlittableI18StreamedBinaryReadILb1EELb1EdEvRK29SerializationCommandArgumentsR31RuntimeSerializationCommandInfo
NEb:__Z26BuildSerializationCacheFor17ScriptingClassPtrRb
zDa:__ZN7ApiGLES15BlitFramebufferEN2gl6HandleILNS0_10ObjectTypeE9EEENS0_15FramebufferReadES3_S3_iiiiiiiiNS0_15FramebufferTypeE
WMg:__Z112RuntimeInvoker_RuntimeObject_RuntimeObject_RuntimeObject_RuntimeObject_RuntimeObject_RuntimeObject_RuntimeObjectPFvvEPK10MethodInfoPvPS4_
use:_InternalEnumerator_1_System_Collections_IEnumerator_get_Current_m3553395619_AdjustorThunk
nnd:_Array_SetValue_m3998268557
Gvc:__ZN8JSONRead8TransferI8Vector4fEEvRT_PKc17TransferMetaFlagsb
E5c:_ColorBlock_set_highlightedColor_m2089444414_AdjustorThunk
_ug:_RectTransform_INTERNAL_set_anchoredPosition_m939517950
ode:_Context_EndSwitchingSecurityParameters_m4148956166
JBc:_otv_PairPos_validate
aw:__ZN7mecanim9animation14CopyHumanPosesEPKNS0_18AnimationNodeStateEPS1_RKNS_6bitsetILj83EEE
IUi:__ZN6il2cpp6icalls8mscorlib6SystemL8IsStaticEPK12PropertyInfo
cGb:__Z9InitInputv
EDc:_UNITY_tt_face_build_cmaps
j_i:__ZN6il2cpp2gc19AppendOnlyGCHashMapINSt3__24pairIPK10MethodInfoP11Il2CppClassEEP22Il2CppReflectionMethod17ReflectionMapHashIS9_ENS2_8equal_toIS9_EEE3AddERKS9_SB_
Nmb:__ZN16MemoryFileSystem6DeleteER13FileEntryDatab
GHg:__Z81RuntimeInvoker_Void_t1185182177_RuntimeObject_Int64_t3736567304_Int32_t2950945753PFvvEPK10MethodInfoPvPS4_
X3f:_List_1_set_Item_m1979164443_gshared
lya:__ZL21BlitScaleStbImageImplRK14ImageReferenceRS_NS_10ColorSpaceE
Spd:_Boolean_System_IConvertible_ToUInt16_m3465173538_AdjustorThunk
FPe:_InputField_get_keyboardType_m1248105267
cqb:__Z29Transfer_Blittable_ArrayFieldI14SafeBinaryReadyEvRT_R9ArrayInfoRK23StaticTransferFieldInfo
kM:__ZN20SoundChannelInstance15setChannelGroupEPN4FMOD12ChannelGroupE
Koi:_Match__ctor_m2425511580
lc:invoke_vifffii
B9i:__ZN6il2cpp2vm9Exception27RaiseNullReferenceExceptionEv
vOa:__ZNK25MultiBlocksMemoryFileData5CloneEv
qpj:_GC_add_ext_descriptor
AYi:__ZNK15dense_hashtableINSt3__24pairIK10KeyWrapperINS1_IPK14Il2CppAssemblyP11Il2CppClassEEEjEES9_17ReflectionMapHashIS8_EN14dense_hash_mapIS9_jSD_NS9_14EqualsComparerINS0_8equal_toIS8_EEEENS0_9allocatorISB_EEE9SelectKeyESI_SK_E23find_position_with_hashERSA_j
b2h:_LayoutGroup_SetProperty_TisSingle_t1397266774_m793506911_gshared
ufd:_CryptoConfig_CreateFromName_m1538277313
Dzj:dynCall_iiiiiiiiiiii
QPe:_InputField_set_caretPositionInternal_m3823580651
rZe:_Selectable_set_interactable_m3105888815
dXa:__ZL26KeywordSetToStringDontSortRKNSt3__26vectorIN4core12basic_stringIcNS1_20StringStorageDefaultIcEEEENS_9allocatorIS5_EEEERS5_
dAa:__ZN6prcoreL17RemapGenericFloatI16TexFormatRGFloat17TexFormatRGBAHalfEEvPKNS_9InnerInfoE
tG:__ZN12AudioManager22CreateFMODSoundFromWWWEP10IWWWStream15FMOD_SOUND_TYPE17FMOD_SOUND_FORMATjjbbP10SampleClip
S5b:__ZNK32RendererMaterialAnimationBinding15GenerateBindingERKN4core12basic_stringIcNS0_20StringStorageDefaultIcEEEEbRN11UnityEngine9Animation14GenericBindingE
S2d:_TargetException__ctor_m4172127019
Z2g:_List_1_CheckCollection_m274117203_gshared
MRh:__ZL70EventSystem_t1003666588_CustomAttributesCacheGenerator_m_FirstSelectedP21CustomAttributesCache
b_:__ZN8Remapper23GetOrGenerateInstanceIDERK26SerializedObjectIdentifier
q6c:_ColorTween_get_startColor_m3792586410_AdjustorThunk
Ya:invoke_iiiiiifffiiifii
DEg:__Z85RuntimeInvoker_Void_t1185182177_Int32_t2950945753_Int32_t2950945753_Int32_t2950945753PFvvEPK10MethodInfoPvPS4_
GRd:_CustomInfo__ctor_m426096741
h$c:_EventSystem_ToString_m3779610692
d7a:__ZN6Sprite8TransferI24GenerateTypeTreeTransferEEvRT_
qkc:__Z48Register_UnityEngine_Transform_SetAsFirstSiblingv
p1a:__ZNK18DelayedCallManager22GetTypeVirtualInternalEv
g7a:__ZN7SubMesh8TransferI24GenerateTypeTreeTransferEEvRT_
JVi:_NativeTypeAttribute__ctor_m133676646
yhh:_Collection_1_System_Collections_IList_Contains_m296643274_gshared
mId:_DirectoryInfo__ctor_m126519516
r$d:_MethodBase_GetMethodFromIntPtr_m3014201362
scc:__ZN9Transform23SetSiblingIndexInternalEib
Fyd:_Enumerator_MoveNext_m635366482
dkd:_X509Extension_Equals_m1222951829
uu:__ZN7mecanim5human12HumanPoseSubERNS0_9HumanPoseERKS1_S4_
Hdj:__ZN6il2cpp8metadata15GenericMetadata15GetGenericClassEiPK17Il2CppGenericInst
Dob:__Z18Transfer_BlittableI14SafeBinaryReadLb0E10Matrix4x4fEvRK29SerializationCommandArgumentsR31RuntimeSerializationCommandInfo
cEb:__Z24GetFixedBehaviourManagerv
ETi:__ZN6il2cpp2vm10ThreadPool4WaitEP17Il2CppAsyncResultPPv
y$e:_Text_UpdateGeometry_m3634850647
Yni:_X509Crl_VerifySignature_m1377612461
Ruj:_vfprintf
inc:__ZN10GUIManager12AddGUIScriptER8ListNodeI13MonoBehaviourE
Uyd:_Stack_Clear_m2010200235
nyc:_cf2_getVStore
Z0c:_PointerEventData_set_pointerPressRaycast_m1363193059
aOb:__ZN20DynamicPropertySheetD0Ev
g5d:_SafeHandle_Dispose_m4229010569
q_b:__ZN14SafeBinaryRead17RegisterConverterEPKcS1_PFbPvRS_E
rKh:__ZL77RuntimePlatform_t4159857903_CustomAttributesCacheGenerator_OSXDashboardPlayerP21CustomAttributesCache
m8:__ZN35RegisterRuntimeInitializeAndCleanup8RegisterEPFvPvES2_iS0_
Cli:_SubjectAltNameExtension_get_IPAddresses_m1641002124
xXd:_FieldBuilder_SetValue_m828035213
dQf:_Array_InternalArray__Insert_TisSingle_t1397266774_m3161726127_gshared
ukc:__Z21Object_CUSTOM_DestroyP12Il2CppObjectf
foa:__ZN8Material26ResetAllCachedMaterialDataEP6Shader
yLg:__Z63RuntimeInvoker_Void_t1185182177_RuntimeObject_Int16_t2552820387PFvvEPK10MethodInfoPvPS4_
RGc:_UNITY_TT_Get_MM_Var
dOe:_ObjectManager_AddFixup_m2154325362
wue:_Comparer_1__cctor_m3761458313_gshared
hwf:_DateTimeOffset_CompareTo_m1350732322_AdjustorThunk
aa:invoke_diddi
QOc:__ZNK2UI6Canvas13GetRenderModeEv
Lmg:_PersistentCall__ctor_m1217622171
hLf:_Array_compare_TisCustomAttributeTypedArgument_t2723150157_m1384644047_gshared
W6e:_StrongName_get_TokenAlgorithm_m1794722022
Onb:__Z18Transfer_BlittableI14SafeBinaryReadLb0EiEvRK29SerializationCommandArgumentsR31RuntimeSerializationCommandInfo
qSi:__ZN6il2cpp2vm13MetadataCache30GetPropertyDefinitionFromIndexEi
Nxi:_SymmetricTransform_Transform_m1683494363
AVc:__ZN22BaseUnityConnectClient17InitializeSessionERKN4core12basic_stringIcNS0_20StringStorageDefaultIcEEEES6_N19CloudServiceHandler13InitModeFlagsE
qRg:__Z74RuntimeInvoker_RuntimeObject_Int32_t2950945753_RuntimeObject_RuntimeObjectPFvvEPK10MethodInfoPvPS4_
T8g:_List_1_get_Item_m200663048_gshared
zFj:_emscripten_glDeleteBuffers__wrapper
Vdc:__ZN13MonoBehaviour34StopCoroutineFromEnumeratorManagedE18ScriptingObjectPtr
$hg:_Application_set_targetFrameRate_m3682352535
mzg:_Vector3__ctor_m1719387948_AdjustorThunk
dgb:__ZN30RuntimeInitializeOnLoadManager8TransferI18StreamedBinaryReadILb0EEEEvRT_
tvf:_DateTimeOffset__ctor_m2084804982
eDc:_UNITY_tt_face_load_pclt
pdc:__ZL34GetComponentsImplementationRecurseILb1ELi0ELi2EEbR10GameObjectbRK17CompareParametersRK39GetComponentsImplementation_ReturnValue
QFa:__ZN20ComputeShaderVariantD2Ev
bpg:_Material_GetTexture_m3545614349
pCg:__Z64RuntimeInvoker_RuntimeObject_Int32_t2950945753_Int16_t2552820387PFvvEPK10MethodInfoPvPS4_
CWf:_EqualityComparer_1__cctor_m4244842342_gshared
xNb:__ZNK6Camera18WorldToScreenPointERK8Vector3fPb
kwg:_SendMouseEvents_DoSendMouseEvents_m2140870850
Kpi:_PatternCompiler_EmitJump_m3915926156
ICa:__Z18IsCompressedFormat14GraphicsFormat
Pu:__ZN7mecanim9animation19AdjustPoseForMotionERKNS0_14AvatarConstantERKNS0_14SkeletonTQSMapERKN4math4trsXERNS_10ValueArrayERNS_8skeleton13SkeletonPoseTIS8_EESG_
Ibg:__Z33il2cpp_codegen_check_add_overflowxx
dZ:__ZNSt3__227__insertion_sort_incompleteIRPFbRKN18AwakeFromLoadQueue4ItemES4_EPS2_EEbT0_S9_T_
zKh:__ZL73RuntimePlatform_t4159857903_CustomAttributesCacheGenerator_MetroPlayerARMP21CustomAttributesCache
FHd:_InvalidOperationException__ctor_m1685032583
qQi:__ZN14dense_hash_mapI10KeyWrapperIN6il2cpp5utils13dynamic_arrayIPK10Il2CppTypeLj4EEEEPFvvENS1_8metadata19Il2CppSignatureHashENS8_14EqualsComparerINSB_22Il2CppSignatureCompareEEENSt3__29allocatorINSG_4pairIKS8_SA_EEEEE15set_deleted_keyERSJ_
ocg:_TimeSpan_op_Subtraction_m3592306516
AYf:_EqualityComparer_1_System_Collections_IEqualityComparer_GetHashCode_m1517903420_gshared
F4a:__ZN26EnlightenSystemInformation8TransferI14SafeBinaryReadEEvRT_
ifb:__ZN24GenerateTypeTreeTransfer8TransferINSt3__26vectorIN15ResourceManager10DependencyE13stl_allocatorIS4_L18MemLabelIdentifier52ELi16EEEEEEvRT_PKc17TransferMetaFlags
HIi:_CanvasRenderer_SplitUIVertexStreams_m2753637362
OSg:__Z119RuntimeInvoker_Void_t1185182177_RuntimeObject_Single_t1397266774_Single_t1397266774_SByte_t1669577662_Int32_t2950945753PFvvEPK10MethodInfoPvPS4_
PWc:__ZN11UnityEngine15PlatformWrapper20SetPlayerPrefsUInt64ERKN4core12basic_stringIcNS1_20StringStorageDefaultIcEEEEy
ubb:__ZN12MeshRendererD0Ev
IP:__ZN12AudioManager35GetCurrentSpatializerDefinitionNameEv
zh:_utime
csi:_BalancingGroup_Compile_m2575117193
HB:__Z28SetExposedSkeletonTransformsRKN7mecanim9animation14AvatarConstantERKN11UnityEngine9Animation30AnimatorGenericBindingConstantERKNS_8skeleton13SkeletonPoseTIN4math4trsXEEERKNSA_INSB_7affineXEEERNS5_21AvatarBindingConstantEy
HXi:__ZNSt3__26vectorIN6il2cpp2vm17TypeNameParseInfoENS_9allocatorIS3_EEE8allocateEj
Foi:_Mark_get_Index_m3048692661_AdjustorThunk
qn:FUNCTION_TABLE_viiiiif
aue:_DefaultComparer_Compare_m3931992727_gshared
vn:FUNCTION_TABLE_viiiiii
Yse:_InternalEnumerator_1_System_Collections_IEnumerator_get_Current_m1847780851_AdjustorThunk
Dwi:_GUILayoutUtility_get_spaceStyle_m3392862907
tFd:_Int32_System_IConvertible_ToType_m3009233912_AdjustorThunk
uvf:_DateTimeOffset__ctor_m74032857
hD:__ZN7mecanim9animation22DestroyAvatarWorkspaceEPNS0_15AvatarWorkspaceERNS_6memory9AllocatorE
hdg:_Type_type_is_assignable_from_m76737532
xUb:__ZN15LightmapSTCacheC2ER13BatchRendererR15RenderLoopStats
i1a:__ZN14PlayableOutput17SetSourcePlayableEP8Playable
xC:__ZN7mecanim9animation29MotionOutputGetDeltaTransformEPKNS0_12MotionOutputE
rbi:_ReadOnlyCollection_1_System_Collections_Generic_ICollectionU3CTU3E_Add_m2369252587_gshared
Pjc:__Z43Transform_CUSTOM_INTERNAL_get_localRotationP12Il2CppObjectP11Quaternionf
pEf:_CultureInfo_get_Parent_m672689885
Kpj:__ZN6il2cpp6icalls8mscorlib6System10Reflection4Emit13ModuleBuilder13RegisterTokenEP29Il2CppReflectionModuleBuilderP12Il2CppObjecti
FDj:_glGetShaderInfoLog__wrapper
ONe:_ObjectReader_ReadObjectGraph_m340866276
ci:_emscripten_glGetTexParameteriv
aTc:__ZN11UnityEngine7Connect15DeviceInfoEvent7GFXInfoD2Ev
aFj:_glGenTextures__wrapper
Zia:__ZN9ShaderLab20SerializedSubProgram14ConstantBufferaSERKS1_
A2b:__Z13RegisterClassI4MeshEvv
GNh:__ZL74SharedBetweenAnimatorsAttribute_t2857104338_CustomAttributesCacheGeneratorP21CustomAttributesCache
H_a:__ZN8PlayableD0Ev
wg:emscriptenWebGLGetBufferBinding
YH:__ZN12AudioManager8TransferI19StreamedBinaryWriteILb0EEEEvRT_
UZe:_Slider_UpdateCachedReferences_m3259451627
Kge:_SslStreamBase_get_KeyExchangeStrength_m217695965
UJg:__Z50RuntimeInvoker_Double_t594665363_Double_t594665363PFvvEPK10MethodInfoPvPS4_
Kzb:__ZN18StreamedBinaryReadILb1EE21TransferSTLStyleArrayI13dynamic_arrayI11ColorRGBA32Lj4EEEEvRT_17TransferMetaFlags
t6i:__ZN15dense_hashtableINSt3__24pairIK10KeyWrapperINS1_IP11Il2CppClassjEEES4_EES6_N6il2cpp8metadata14ArrayClassHashEN14dense_hash_mapIS6_S4_SB_NS6_14EqualsComparerINSA_17ArrayClassCompareEEENS0_9allocatorIS8_EEE9SelectKeyESF_SH_E6insertERKS8_
R8c:_U3CShowU3Ec__AnonStorey1_U3CU3Em__0_m2340880019
Rki:_TlsStream_Flush_m3793197834
qlb:__ZN22LocalFileSystemHandler9MakeLocalER13FileEntryDatab
glj:__ZN6il2cpp2vm8Profiler10AllocationEP12Il2CppObjectP11Il2CppClass
cVh:__ZL61Graphic_t1660335611_CustomAttributesCacheGenerator_m_MaterialP21CustomAttributesCache
mLc:__ZNSt3__23mapIN20TextRenderingPrivate7FontRefENS1_6OSFontENS_4lessIS2_EENS_9allocatorINS_4pairIKS2_S3_EEEEEixERS8_
mga:__Z13FormatOrderedPKcz
dVi:__ZN6il2cpp2vm8basepathEPKc
Hdf:_X509Chain_GetAuthorityKeyIdentifier_m614536199
MIc:__ZN14SafeBinaryRead21TransferSTLStyleArrayI10vector_mapINSt3__24pairIttEEfN20TextRenderingPrivate8FontImpl14KerningCompareENS2_9allocatorINS3_IS4_fEEEEEEEvRT_17TransferMetaFlags
bce:_TlsServerFinished__ctor_m1445633918
QDd:_NumberFormatter_FastIntegerToString_m390846811
AKh:__ZL68RuntimePlatform_t4159857903_CustomAttributesCacheGenerator_WP8PlayerP21CustomAttributesCache
iUb:__ZN25DeferredRenderLoopScratchD0Ev
Sw:__ZN27AnimationLayerMixerPlayable14SetInputWeightEif
C0c:_PhysicsRaycaster_Raycast_m776323695
Hyg:_UnityException__ctor_m1456865679
qu:__ZN7mecanim9animation17EvaluateHumanPoseERKNS0_18ClipMuscleConstantERKNS0_15ClipMuscleInputEPKfRKNS0_12MotionOutputERNS_5human9HumanPoseE
hia:__ZN15dense_hashtableINSt3__24pairIKiN4core17string_with_labelILi1EEEEEi18SInt32HashFunctionN14dense_hash_mapIiS5_S7_NS0_8equal_toIiEE13stl_allocatorIS6_L18MemLabelIdentifier1ELi16EEE9SelectKeyESA_SD_E9copy_fromERKSG_j
pUd:_CustomAttributeNamedArgument_GetHashCode_m2317130892
Feb:__ZN15ResourceManagerD0Ev
qMe:_WellKnownClientTypeEntry_ToString_m1119458503
v4:__ZN22CreateGpuProgramOutputD2Ev
W7g:_List_1_get_Item_m1378751541_gshared
xjf:_SHA1CryptoServiceProvider_Finalize_m1793183797
f_f:_HashSet_1_System_Collections_Generic_ICollectionU3CTU3E_CopyTo_m408073502_gshared
K8d:_EncryptedPrivateKeyInfo_get_EncryptedData_m491452551
Bkb:__ZN12HandlerChain4OpenER13FileEntryData14FilePermission16FileAutoBehavior
HYg:__Z72RuntimeInvoker_Void_t1185182177_Int32_t2950945753_RaycastHit_t1056001966PFvvEPK10MethodInfoPvPS4_
n_i:__ZN15dense_hashtableINSt3__24pairIK10KeyWrapperINS1_IPK10MethodInfoP11Il2CppClassEEEjEES9_17ReflectionMapHashIS8_EN14dense_hash_mapIS9_jSD_NS9_14EqualsComparerINS0_8equal_toIS8_EEEENS0_9allocatorISB_EEE9SelectKeyESI_SK_E6insertERKSB_
K8f:_UTF8Encoding_GetCharCount_m2272165989
lnd:_Array_SetValue_m394135409
$0:__ZN14FileCacherReadD2Ev
Dhb:__ZN13RendererScene23UpdatePreviousFrameDataEii
Mqf:_String_Remove_m562998446
Nfc:__Z50Register_UnityEngine_CullingGroup_FinalizerFailurev
kmf:_SecurityPermission_IsSubsetOf_m545000671
lib:__ZN27UnloadUnusedAssetsOperationD0Ev
EPb:__ZN28LightProbeProxyVolumeContextC2E10MemLabelId
Bxj:__ZNKSt3__221__basic_string_commonILb1EE20__throw_out_of_rangeEv
mlg:_Cursor_get_lockState_m2828192107
qWi:_UpdatedEventHandler_Invoke_m1320302085
LF:__ZN9AudioClip23VirtualRedirectTransferER18StreamedBinaryReadILb0EE
s8g:_List_1_AddEnumerable_m2724989594_gshared
QRg:__Z82RuntimeInvoker_Vector2_t2156229523_Vector2_t2156229523_RuntimeObject_RuntimeObjectPFvvEPK10MethodInfoPvPS4_
qHa:__ZN18GlslGpuProgramGLESC2ERK13dynamic_arrayIhLj1EER22CreateGpuProgramOutput
vlc:__Z70Register_UnityEngine_Playables_PlayableHandle_GetPlayableType_Injectedv
D7d:_ARC4Managed_TransformBlock_m1687647868
Ej:_glCopyTexSubImage2D
Myg:_UnitySynchronizationContext_ExecuteTasks_m1310741010
dif:_RIPEMD160Managed_CompressFinal_m497690796
GZb:__ZN18ScreenManagerWebGL13SetShowCursorEb
DJb:__ZN13DrawImmediateC2ER9GfxDevice
avj:_frexp
zob:__Z18Transfer_BlittableI14SafeBinaryReadLb0E5RectTIfEEvRK29SerializationCommandArgumentsR31RuntimeSerializationCommandInfo
QGd:_NumberFormatter_NumberToString_m2562899600
RBc:_otv_u_C_x_Ox
Vwa:__ZN18AsyncUploadManager19AsyncResourceUploadER9GfxDeviceii9TextureID
fua:__ZN14GfxContextGLES14GetFramebufferEv
QFj:_emscripten_glGenVertexArrays__wrapper
shg:_Version_Clone_m1749041863
Qya:__ZN6prcoreL21CreateRemapAnyBlitterE13TextureFormatS0_
g9d:_RSAManaged_ExportParameters_m1754454264
xbc:__ZN17AnimationCurveTplIfE16StripInvalidKeysEv
dqd:_Boolean_Equals_m535526264_AdjustorThunk
XOc:__ZNK2UI6Canvas17GetSortingLayerIDEv
E4i:_il2cpp_method_has_attribute
s2b:__Z13RegisterClassI17GlobalGameManagerEvv
n6:__ZN8Renderer24SetupNewRendererForSceneEv
cdg:_Type_internal_from_name_m1721940673
pCf:_Environment_get_TickCount_m2088073110
lJe:_RemotingServices_GetMethodBaseFromName_m3194612939
Qtc:__Z35Transfer_Blittable_FixedBufferFieldI8JSONReadtEvRK29SerializationCommandArgumentsR31RuntimeSerializationCommandInfo
H8b:__ZN14PlayableOutput6HandleEv
C6a:__ZNK6Sprite22GetTypeVirtualInternalEv
hZc:__ZN13RuntimeStaticINSt3__26vectorI23UnityVRDeviceDefinition13stl_allocatorIS2_L18MemLabelIdentifier90ELi16EEEELb0EE13StaticDestroyEPv
pn:FUNCTION_TABLE_iiiiiiiiiiiiii
ICc:_UNITY_tt_get_cmap_info
lvb:__Z29Transfer_Blittable_ArrayFieldI24GenerateTypeTreeTransfer5RectTIiEEvRT_R9ArrayInfoRK23StaticTransferFieldInfo
KXa:__ZN16ReflectionProbes8ScheduleEN18ReflectionProbeJob7JobTypeEP15ReflectionProbei
fce:_ClientSessionInfo_KeepAlive_m1020179566
fPc:__ZN13dynamic_arrayIN2UI13UIInstructionELj4EE12emplace_backEv
kMa:__Z18IsDirectoryCreatedRKN4core12basic_stringIcNS_20StringStorageDefaultIcEEEE
Zlf:_String_FormatHelper_m3913915042
WNc:__ZN2UI13CanvasManagerD2Ev
WTd:_ConstructorInfo__cctor_m1016079270
BNi:__ZN15dense_hashtableINSt3__24pairIK10KeyWrapperIPKcEP11Il2CppClassEES5_N6il2cpp5utils11StringUtils12StringHasherIS4_EEN14dense_hash_mapIS5_S8_SE_NS5_14EqualsComparerINSB_13VmStringUtils21CaseSensitiveComparerEEENS0_9allocatorIS9_EEE9SelectKeyESJ_SL_E15set_deleted_keyERKS9_
jld:_AttrListImpl_get_Names_m977594476
PKc:_UNITY_FT_GlyphLoader_Done
K2d:_Pointer_Box_m389276611
dAf:_StackTrace_get_FrameCount_m344690939
ZNd:_UnexceptionalStreamWriter_Write_m363195622
kLc:__ZN20TextRenderingPrivate25ReadFontFileAndAddToCacheERKN4core12basic_stringIcNS0_20StringStorageDefaultIcEEEE
JDc:_tt_cmap14_char_var_index
DQe:_Selectable_OnPointerDown_m1086067264
UHc:_psh_globals_new
j8c:_Dropdown_SetupTemplate_m628218778
b9f:_Thread_GetCompressedStack_m2923422412
Vud:_SynchronizedArrayListWrapper_CopyTo_m4207791406
Wbf:_X509BasicConstraintsExtension_ToString_m1809935297
Eoa:__ZN9GfxDevice20SetMaxBufferedFramesEi
Jii:_TweenRunner_1_StartTween_m1055628540_gshared
G6h:_ReadOnlyCollection_1_System_Collections_IList_Remove_m4129318771_gshared
P1h:_GameObject_GetComponents_TisRuntimeObject_m1246177135_gshared
Tzj:dynCall_vdd
IOd:_MethodAccessException__ctor_m3542088436
L$b:__Z23ConvertIntegerToTypePtrIsEbPvR14SafeBinaryRead
RVf:_EqualityComparer_1_System_Collections_IEqualityComparer_GetHashCode_m2230215241_gshared
qYh:__ZL60ContentSizeFitter_t3850442145_CustomAttributesCacheGeneratorP21CustomAttributesCache
bxd:_Hashtable_Contains_m2145146412
eFh:__ZL64UnmarshalledAttribute_t1517743549_CustomAttributesCacheGeneratorP21CustomAttributesCache
Dac:__ZN4Mesh24UpdateSubMeshVertexRangeEi
FDd:_Int32_FindCurrency_m3541026887
Lhf:_Interval_CompareTo_m3282557545
OGj:_pthread_cond_wait__wrapper
vTb:__ZNK14RenderSettings19GetFlatAmbientColorEv
qya:__ZN6prcoreL10inner_flipILj4EEEvPhS1_j
ndb:__ZN18StreamedBinaryReadILb0EE21TransferSTLStyleArrayI10vector_mapIPKN5Unity4TypeE7Hash128NSt3__24lessIS6_EENS8_9allocatorINS8_4pairIS6_S7_EEEEEEEvRT_17TransferMetaFlags
Py:__ZNK27StateMachineBehaviourPlayer15IsSenderEnabledEv
Jid:_RijndaelManagedTransform_TransformBlock_m1610137419
lkc:__Z40Register_UnityEngine_Transform_SetParentv
r8a:__ZN14Texture2DArray17UploadToGfxDeviceEv
FJ:__Z14FMODMemoryFreePvjPKc
Emg:_NetFxCoreExtensions_GetMethodInfo_m444570327
ARb:__Z14SetSHConstantsR13BatchRendererR17ShaderPassContextRK20SphericalHarmonicsL2b
Erd:_Char_System_IConvertible_ToDecimal_m3534906463
Uyc:_cf2_glyphpath_moveTo
Twg:_StackTraceUtility_SetProjectFolder_m830524047
qv:__ZN7mecanim23TransformValueArrayLoopEiiiRKN4math4trsXES3_RNS_10ValueArrayEf
uce:_ClientSessionInfo_Finalize_m2165787049
dnc:__ZN5IMGUI14GUIWindowStateD2Ev
rbe:_ClientContext_Clear_m1774063253
Pac:__ZN4Mesh17SetIndicesComplexEPKvjj16GfxPrimitiveTypeij
Luf:_DateTime_AddSeconds_m332574389_AdjustorThunk
Ayg:_RequestAtlasCallback_Invoke_m378128467
Mqd:_Byte_System_IConvertible_ToSByte_m1869482168
VHg:__Z99RuntimeInvoker_RuntimeObject_RuntimeObject_RuntimeObject_StreamingContext_t3711869237_RuntimeObjectPFvvEPK10MethodInfoPvPS4_
JB:__ZN7mecanim5human10RetargetToEPKNS0_5HumanEPKNS0_9HumanPoseES6_RKN4math4trsXEPS4_PNS_8skeleton13SkeletonPoseTIS8_EESF_
iv:__ZN7mecanim9animation8SeekClipERKNS0_12StreamedClipERNS0_18StreamedClipMemoryEf
Ong:_GameObject_Internal_AddComponentWithType_m3797731663
km:_emscripten_glIsTexture
Rk:_emscripten_glHint
fyi:_Check_SourceAndPredicate_m2332465641
iRg:__Z67RuntimeInvoker_Boolean_t97287965_TextGenerationSettings_t1351628751PFvvEPK10MethodInfoPvPS4_
DGc:_ft_var_readpackeddeltas
onf:_String_op_Inequality_m215368492
pyb:__Z35Transfer_Blittable_FixedBufferFieldI18StreamedBinaryReadILb1EEtEvRK29SerializationCommandArgumentsR31RuntimeSerializationCommandInfo
kfg:_UInt32_System_IConvertible_ToInt64_m2261037378
nm:_SDL_UpperBlit
GXa:__Z35GetTextureDecodeValuesWithIntensity16TextureUsageMode17TextureColorSpace10ColorSpacef
gIf:_Array_InternalArray__ICollection_Remove_TisChar_t3634460470_m4143749387_gshared
RJb:__ZN15dense_hashtableINSt3__24pairIK9TextureIDiEES2_14GfxGenericHashIS2_EN14GfxDoubleCacheIS2_iS6_NS0_8equal_toIS2_EEN31GfxDoubleCacheConcurrencyPolicy11LocklessGetE42GfxDoubleCacheDefaultEmptyDeletedGeneratorIS2_EE9SelectKeyES9_13stl_allocatorIS4_L18MemLabelIdentifier24ELi16EEE14squash_deletedEv
H2i:__ZN15dense_hashtableINSt3__24pairIK10KeyWrapperINS1_IPK9EventInfoP11Il2CppClassEEEjEES9_17ReflectionMapHashIS8_EN14dense_hash_mapIS9_jSD_NS9_14EqualsComparerINS0_8equal_toIS8_EEEENS0_9allocatorISB_EEE9SelectKeyESI_SK_E15set_deleted_keyERKSB_
G5f:_Encoding_GetBytes_m3823106599
duf:_GregorianCalendar__ctor_m979779718
Jfe:_SslClientStream__ctor_m2402546929
kEb:__ZN14SafeBinaryRead20OverrideRootTypeNameEPKc
i8e:_DictionaryNodeEnumerator_get_Entry_m2309234501
d1:__ZN14FileCacherRead16UnlockCacheBlockEj
r9:__ZN10InstancingL21OnGraphicsCapsChangedEv
bbg:_WaitHandle_get_Handle_m3260446580
s1f:_Enumerator_VerifyState_m1745883925_AdjustorThunk
Jc:_emscripten_glUniform1f
_xd:_SortedList__ctor_m1261191695
sLc:__Z20ParseImageParametersR11UTF16StringRiRN20TextRenderingPrivate16TextFormatChangeE
fYh:__ZL55CanvasScaler_t2767979955_CustomAttributesCacheGeneratorP21CustomAttributesCache
Oc:_emscripten_glUniform1i
Jtb:__Z18Transfer_BlittableI24GenerateTypeTreeTransferLb1EN4math12int3_storageEEvRK29SerializationCommandArgumentsR31RuntimeSerializationCommandInfo
vWe:__Z14bankers_roundff
bka:__ZN9ShaderLab16SerializedTagMapaSERKS0_
hS:__ZN11UnityEngine15CloudWebService16SessionContainer20RestoreSessionHeaderERKN4core12basic_stringIcNS2_20StringStorageDefaultIcEEEES8_RNS0_13SessionHeaderE
Arj:__ZN6il2cpp2os12Cryptography23GetCryptographyProviderEv
XC:__ZN11UnityEngine9Animation27CreateAvatarBindingConstantER9TransformPKN7mecanim9animation14AvatarConstantERNS3_6memory9AllocatorE
wPc:__ZN2UI14CanvasRenderer13SyncTransformENS0_8SyncFlagEb
jHg:__Z151RuntimeInvoker_RuntimeObject_Int32_t2950945753_RuntimeObject_ObjectU5BU5DU26_t712384779_RuntimeObject_RuntimeObject_RuntimeObject_ObjectU26_t2146539884PFvvEPK10MethodInfoPvPS4_
hec:__ZN9BlobWriteC2ER13dynamic_arrayIhLj16EE24TransferInstructionFlags19BuildTargetPlatform
V4c:_CanvasUpdateRegistry__ctor_m2005397069
r$:__ZN14MessageHandler3GetEv
g0d:_MonoMethodInfo_GetCallingConvention_m3156036493
YSe:_LayoutGroup_SetLayoutInputForAxis_m2458344630
ad:_emscripten_glAttachShader
Doa:__ZN9GfxDevice13SetActiveTierE12GraphicsTier
Lcd:_Image__cctor_m1927508576
tka:__ZNSt3__26vectorIN4core12basic_stringIcNS1_20StringStorageDefaultIcEEEENS_9allocatorIS5_EEE6assignIPS5_EENS_9enable_ifIXaasr21__is_forward_iteratorIT_EE5valuesr16is_constructibleIS5_NS_15iterator_traitsISC_E9referenceEEE5valueEvE4typeESC_SC_
xrj:__ZN6il2cpp6icalls8mscorlib6System21CurrentSystemTimeZone15GetTimeZoneDataEiPP11Il2CppArrayS6_
gob:__Z18Transfer_BlittableI14SafeBinaryReadLb0E11QuaternionfEvRK29SerializationCommandArgumentsR31RuntimeSerializationCommandInfo
vBb:__Z18Transfer_BlittableI18StreamedBinaryReadILb0EELb1E12PropertyNameEvRK29SerializationCommandArgumentsR31RuntimeSerializationCommandInfo
IW:_tlsf_walk_heap
_Gg:__Z49RuntimeInvoker_Void_t1185182177_OpCode_t123070264PFvvEPK10MethodInfoPvPS4_
eCd:_Convert_ToUInt32_m3592050311
jb:invoke_vif
E1h:_Component_GetComponents_TisRuntimeObject_m2416546752_gshared
kb:invoke_vid
Txj:__ZNSt3__212basic_stringIcNS_11char_traitsIcEENS_9allocatorIcEEE6insertEjPKc
lb:invoke_vii
YMb:__ZNK12ImageFilters8DoRenderER17ShaderPassContextP13RenderTextureS3_RKNSt3__26vectorI11ImageFilterNS4_9allocatorIS6_EEEE
ZKa:__ZN12TLSAllocatorI14StackAllocatorE16ThreadInitializeEP13BaseAllocator
yIg:__Z82RuntimeInvoker_Boolean_t97287965_SByte_t1669577662_RuntimeObject_SByte_t1669577662PFvvEPK10MethodInfoPvPS4_
cpa:__ZN9GfxDevice32UpdateStereoViewProjectionMatrixE21MonoOrStereoscopicEye
XQc:__Z41CanvasRenderer_CUSTOM_DisableRectClippingP12Il2CppObject
TPd:_MonoType_GetConstructorImpl_m441167626
r7c:_DefaultControls_CreateRawImage_m4219873755
ddh:_Collection_1_IsFixedSize_m3709118201_gshared
gPa:__ZN25SingleBlockMemoryFileDataD0Ev
eLa:__ZNSt3__26vectorI14ConstantStringNS_9allocatorIS1_EEE6assignINS_11__wrap_iterIPS1_EEEENS_9enable_ifIXaasr21__is_forward_iteratorIT_EE5valuesr16is_constructibleIS1_NS_15iterator_traitsISA_E9referenceEEE5valueEvE4typeESA_SA_
cS:__ZN11UnityEngine15CloudWebService16SessionContainer21ConvertFromFolderTimeERKN4core12basic_stringIcNS2_20StringStorageDefaultIcEEEEPjPt
afd:_CodeAccessPermission_Equals_m1555575992
Tpb:__ZNSt3__26vectorI8GUIStyle13stl_allocatorIS1_L18MemLabelIdentifier1ELi16EEE7reserveEj
y8i:__ZN6il2cpp6icalls8mscorlib6System9Threading6Thread27GetSerializedCurrentCultureEP12Il2CppThread
Rce:_Context_set_ReadSequenceNumber_m2154909392
Eid:_RijndaelTransform_SubByte_m3037693507
c1b:__Z31CalculateHierarchyTransformType23TransformAccessReadOnly
O2b:__Z13RegisterClassI11TimeManagerEvv
wJ:__ZN4FMOD8ChannelI11setPositionEjj
sog:_Input_INTERNAL_CALL_GetTouch_m3481893561
tnj:_GC_set_fl_marks
Kfb:__ZNSt3__26vectorIN30RuntimeInitializeOnLoadManager15ClassMethodInfoE13stl_allocatorIS2_L18MemLabelIdentifier13ELi16EEE7reserveEj
fpa:__ZN9GfxDevice17SetStereoViewportE15StereoscopicEyeRK5RectTIiE
Jfa:__ZN17BaseObjectManager13StaticDestroyEPv
YKa:__ZNK12TLSAllocatorI14StackAllocatorE24GetBookKeepingMemorySizeEv
sIi:_CanvasRenderer_INTERNAL_CALL_GetColor_m597074473
Iue:_Comparer_1__cctor_m3891417387_gshared
v8f:_UTF7Decoder_GetChars_m3413809261
OWd:_EnumBuilder_GetEvent_m4074915332
yh:_sysconf
_xg:_Vector3_get_forward_m3100859705
VAf:_Double_Equals_m2309369974_AdjustorThunk
oI:__ZN4FMOD6Reverb13setPropertiesEPK22FMOD_REVERB_PROPERTIES
JOb:__ZN9DepthPass13PrepareSubsetEjRK10RenderNodeifRK17ShaderReplaceData
Ypf:_String_IndexOf_m3406607758
gja:__ZN9ShaderLab20SerializedSubProgram16TextureParameter8TransferI14SafeBinaryReadEEvRT_
Wac:__Z35SetMeshComponentFromArrayFromScriptR4Mesh30InternalScriptingShaderChannel34InternalScriptingVertexChannelTypei17ScriptingArrayPtri
INf:_Array_InternalArray__ICollection_Add_TisCustomAttributeNamedArgument_t287865710_m4157175270_gshared
fq:__ZN4core20StringStorageDefaultIcE6assignEPKcj
pgg:_UInt64_System_IConvertible_ToUInt64_m2135047981_AdjustorThunk
l6d:_BigInteger_ModPow_m3776562770
Tej:__ZN15dense_hashtableINSt3__24pairIK10KeyWrapperIP12Il2CppObjectEN6il2cpp2gc9CachedCCWEEES5_NS7_5utils11PointerHashIS3_EEN14dense_hash_mapIS5_S9_SD_NS5_14EqualsComparerINS0_8equal_toIS4_EEEENS0_9allocatorISA_EEE9SelectKeyESI_SK_E3endEv
Qee:_RecordProtocol_ProcessChangeCipherSpec_m15839975
gtd:_ArrayList_IndexOf_m305368842
KXb:__ZN6Camera6SetFarEf
IMe:_FormatterConverter_ToBoolean_m1680758923
Gza:__ZN6prcoreL12RemapGenericI17TexFormatABGR888817TexFormatARGB8888EEvPKNS_9InnerInfoE
aQa:__ZN11GameManager17MainThreadCleanupEv
I4h:_ReadOnlyCollection_1__ctor_m1345363288_gshared
DSc:__Z50Register_UnityEngine_UISystemProfilerApi_EndSamplev
Hb:invoke_vffff
HNe:_SerializationCallbacks_GetSerializationCallbacks_m2939476649
Jwd:_Hashtable__cctor_m4112166779
mFc:_UNITY_tt_slot_init
SKb:__ZZ23InitPlayerLoopCallbacksvEN41PostLateUpdateUpdateResolutionRegistrator7ForwardEv
gDb:__Z25scripting_array_class_get17ScriptingClassPtrj
Src:__ZL22Transfer_ManagedObjectI9JSONWriteLb1EEvRK29SerializationCommandArgumentsR31RuntimeSerializationCommandInfo
tF:__ZNK10SampleClip22GetTypeVirtualInternalEv
oqa:__ZN9GfxDevice20DestroyRenderSurfaceER12ObjectHandleI17RenderSurface_TagP17RenderSurfaceBaseE
Oyd:_Stack__ctor_m2602729586
vJa:__ZN9GfxDevice22UpdateComputeResourcesEjPK9TextureIDPK16TextureDimensionPKijPKjjPK15ComputeBufferIDS7_PK20ComputeBufferCounterjSC_S2_S5_S9_SF_
U1:__ZN12_GLOBAL__N_15qAsinEff
ile:_InternalEnumerator_1_System_Collections_IEnumerator_get_Current_m2629988057_AdjustorThunk
_Ka:__ZN12TLSAllocatorI14StackAllocatorE13ThreadCleanupEv
alj:__ZThn4_N6il2cpp2vm13ComObjectBase16MarshalInterfaceEP13Il2CppIStreamRK10Il2CppGuidPvjS7_j
AAd:_Convert_ToDouble_m996590115
UFb:__Z27FindActiveTransformWithPathPKc
S8h:_ReadOnlyCollection_1_System_Collections_IList_Remove_m4169110229_gshared
Qeg:_UInt16_ToString_m3020002356
uTe:_LayoutRebuilder_LayoutComplete_m68578143
pwi:_GUIStyle_get_fixedWidth_m2576616348
oyd:_SortedList_Find_m3363512987
nY:__ZNK6Camera7GetNearEv
EXd:_GenericTypeParameterBuilder_GetConstructorImpl_m863833310
BCa:__ZN7ApiGLES11UnmapBufferEjN2gl12BufferTargetE
olj:__ZN6il2cpp5utilsL24Utf32CharToSurrogatePairEjRA2_Ds
k3a:__Z25GetNextAllowedTextureSizeib13TextureFormat
MFb:__ZN20LocalFileSystemWebGL4CopyER13FileEntryDataS1_
HU:__ZN19CloudServiceHandler6RetainEv
y5h:_ReadOnlyCollection_1_System_Collections_IList_IndexOf_m198887188_gshared
Onc:__Z36Event_CUSTOM_Internal_SetNativeEventPv
N7f:_UTF32Encoding_GetBytes_m3180303867
C3:__ZN12BaseRenderer20FlattenToRenderQueueER15RenderNodeQueueRK20DeprecatedSourceData
e7h:_ReadOnlyCollection_1_System_Collections_IList_Clear_m2007013334_gshared
Aib:__Z34scripting_liveness_calculation_endPv
Ngj:__ZN6il2cpp2os6ThreadC2Ev
wwf:_DateTimeOffset_get_UtcDateTime_m1021718282_AdjustorThunk
Fu:__ZN21AnimationClipPlayable22ProcessAnimationNoClipEPK35AnimationPlayableEvaluationConstantPK32AnimationPlayableEvaluationInputP33AnimationPlayableEvaluationOutput
G7e:_HybridDictionary_get_Count_m1166314536
Mki:_TlsStream_Write_m1412844442
stc:__Z18Transfer_BlittableI8JSONReadLb0E8Vector3fEvRK29SerializationCommandArgumentsR31RuntimeSerializationCommandInfo
Q6i:__ZN6il2cpp2vm6Thread6DetachEP12Il2CppThread
nli:_GeneralNames_get_DNSNames_m3788548987
wwc:__GLOBAL__sub_I_runtime_dynamics_2_cpp
bGi:_Hacker_OnUserInput_m1095014035
bD:__ZN7mecanim8skeleton30SkeletonBuildReverseIndexArrayEPiPKiPKNS0_8SkeletonES6_
Tlc:__Z19GetGUIBlendMaterialv
yOd:_Math_Round_m3018379666
Chj:__ZN6il2cpp2os10ThreadImpl5SleepEjb
A5h:_ReadOnlyCollection_1_System_Collections_IList_Remove_m1965826685_gshared
yzf:_Delegate_CreateDelegate_m1051651521
nJf:_PlayableHandle_IsPlayableOfType_TisRuntimeObject_m503495943_AdjustorThunk
qFj:_glBindSampler__wrapper
UPa:__ZNSt3__26vectorIN20ArchiveStorageHeader12StorageBlockE13stl_allocatorIS2_L18MemLabelIdentifier55ELi16EEE8__appendEj
Hf:_emscripten_set_mouseup_callback
Cpg:_Mathf_Clamp_m3350697880
LIg:__Z165RuntimeInvoker_Void_t1185182177_UInt32U26_t3735378166_Int32_t2950945753_UInt32U26_t3735378166_Int32_t2950945753_Int32_t2950945753_Int32_t2950945753_Int32_t2950945753PFvvEPK10MethodInfoPvPS4_
k3f:_List_1_System_Collections_IList_Remove_m3140917266_gshared
uqi:_CompositeExpression__ctor_m2434860303
Yef:_X509ChainElementCollection_System_Collections_IEnumerable_GetEnumerator_m3829089536
KZb:__ZNK18ScreenManagerWebGL8GetWidthEv
qF:__ZN10SampleClipD2Ev
yei:_Predicate_1_Invoke_m2389850270_gshared
Vhb:__Z13GetGISettingsv
rU:__ZN11UnityEngine15CloudWebService20WebRequestRestClientC2Ev
FAc:_cff_cmap_unicode_init
tHf:_Array_InternalArray__ICollection_Contains_TisRuntimeObject_m4067783231_gshared
Gbh:_Collection_1_IsValidItem_m3080586124_gshared
v5c:_ClipperRegistry_Register_m2407166513
twj:_readlink
i0i:__ZN15dense_hashtableINSt3__24pairIK10KeyWrapperINS1_IPK9EventInfoP11Il2CppClassEEEjEES9_17ReflectionMapHashIS8_EN14dense_hash_mapIS9_jSD_NS9_14EqualsComparerINS0_8equal_toIS8_EEEENS0_9allocatorISB_EEE9SelectKeyESI_SK_E12resize_deltaEjj
b0d:_MonoCMethod_Invoke_m2700167622
Fxd:_KeyMarker__cctor_m2590194914
zwe:_Enumerator_Reset_m627751027_AdjustorThunk
Vbb:__ZNK6Sprite9GetBoundsE8Vector2fbb
qTa:__ZNK19RenderEventsContext21CleanupCommandBuffersEv
DHi:_TextGenerator_PopulateWithErrors_m1222498386
iua:__ZN11ContextGLES6CreateEi
k2g:_List_1_set_Capacity_m3382070520_gshared
URe:_U3CMouseDragOutsideRectU3Ec__Iterator1_Dispose_m267465418
wyf:_Decimal_CompareTo_m3502307243_AdjustorThunk
jCb:__Z19TransferField_ArrayI18StreamedBinaryReadILb0EE27Converter_SimpleNativeClassI17AnimationCurveTplIfEEEvRK23StaticTransferFieldInfoR31RuntimeSerializationCommandInfoRT0_
BKa:__ZN14StackAllocator16FrameMaintenanceEb
MMa:__Z18ReadStringFromFilePN4core17string_with_labelILi1EEERKNS_12basic_stringIcNS_20StringStorageDefaultIcEEEE
uWe:_Scrollbar_get_value_m760470106
sY:__ZNK10GameObject20QueryComponentByTypeEPKN5Unity4TypeE
Lxf:_Decimal_System_IConvertible_ToInt32_m1488426794_AdjustorThunk
_Od:_MonoCustomAttrs_IsUserCattrProvider_m2878058089
KVh:__ZL71InputField_t3762917431_CustomAttributesCacheGenerator_m_HideMobileInputP21CustomAttributesCache
w2a:__ZN11TextureData5ResetEv
ugc:__Z53Register_UnityEngine_GameObject_get_activeInHierarchyv
jlf:_ToBase64Transform_InternalTransformFinalBlock_m360524956
qld:_ActivationContext_Dispose_m2038725770
J_:__ZL30InitializeCoreScriptingClassesv
Eg:_glBlitFramebuffer
p1f:_Enumerator_System_Collections_IEnumerator_get_Current_m3594024719_gshared
Grb:__Z35Transfer_Blittable_SingleValueFieldI14SafeBinaryReadhEvRT_R17GeneralMonoObjectRK23StaticTransferFieldInfo
H9b:__ZN12CachedWriter15CompleteWritingEv
B1a:__ZNK12CubemapArray22GetTypeVirtualInternalEv
Mn:FUNCTION_TABLE_vif
Nn:FUNCTION_TABLE_vid
On:FUNCTION_TABLE_vii
Lib:__Z40scripting_liveness_calculation_from_root18ScriptingObjectPtrPv
y_a:__ZN7Texture23VirtualRedirectTransferER24GenerateTypeTreeTransfer
iKc:_UNITY_FT_Set_Transform
Wdj:__ZN6il2cpp8metadata15GenericMetadata20RegisterGenericClassEP18Il2CppGenericClass
VEj:_glDeleteFramebuffers__wrapper
gFg:__Z220RuntimeInvoker_Boolean_t97287965_RuntimeObject_Int32U26_t1369213839_Int32_t2950945753_Int32_t2950945753_Int32_t2950945753_RuntimeObject_SByte_t1669577662_Int32_t2950945753_ContractionU26_t961830454_ContextU26_t3937453398PFvvEPK10MethodInfoPvPS4_
Nyc:_cff_blend_build_vector
_af:_WebHeaderCollection_ToString_m1263025316
o6b:__ZZN12MeshRenderer15InitializeClassEvEN29FunctorImpl_134kDidDeleteMesh4CallEPviR11MessageData
j2d:_GetterAdapter_Invoke_m3767885970
m3g:_List_1__ctor_m747758800_gshared
vrf:_String_CreateString_m2818852475
H4a:__ZN28EnlightenRendererInformation8TransferI14SafeBinaryReadEEvRT_
QIi:_CanvasRenderer_get_hasMoved_m2236392341
jrg:_MessageEvent__ctor_m1231650089
vha:__ZNK15Lz4Decompressor16DecompressMemoryEPKvPjPvS2_
USa:__Z11IsCoroutine18ScriptingMethodPtrRK22CommonScriptingClasses
Q1b:__ZN4core8hash_mapINS_12basic_stringIcNS_20StringStorageDefaultIcEEEE10vector_setI4PPtrI11SpriteAtlasENSt3__24lessIS8_EE13stl_allocatorIS8_L18MemLabelIdentifier81ELi16EEENS_4hashIS4_EENS9_8equal_toIS4_EEEixERKS4_
uh:_glGetAttribLocation
y0a:__Z35UnityPropertySheet_MakeSortedColorsRKNSt3__23mapIN9ShaderLab16FastPropertyNameE10ColorRGBAfNS_4lessIS2_EENS_9allocatorINS_4pairIKS2_S3_EEEEEER10vector_mapIS2_S3_S5_NS6_INS7_IS2_S3_EEEEE
_Cc:_UNITY_tt_face_load_os2
_qb:__Z29Transfer_Blittable_ArrayFieldI14SafeBinaryRead8Vector4fEvRT_R9ArrayInfoRK23StaticTransferFieldInfo
JTd:_Default_check_arguments_m3882727959
P8f:_UTF8Encoding_GetMaxCharCount_m3762459613
UUd:_ModuleBuilder_RegisterToken_m4166846047
JKb:__ZZ23InitPlayerLoopCallbacksvEN51PostLateUpdateUpdateCustomRenderTexturesRegistrator7ForwardEv
DVe:_RawImage_OnPopulateMesh_m1115858855
zSi:__ZN6il2cpp2vm13MetadataCache25GetStringLiteralFromIndexEi
Sld:_Hashtable_ToPrime_m33531354
bv:__ZN7mecanim9animation12EvaluateClipEPKNS0_4ClipEPKNS0_9ClipInputEPNS0_10ClipMemoryEPNS0_10ClipOutputE
bih:_Collection_1_IsSynchronized_m1117613618_gshared
Vdg:_TypeInitializationException__ctor_m3546444694
ycc:__ZNK9Transform16GetLocalRotationEv
VT:__ZN11UnityEngine15CloudWebService23WebRequestUploadHandler17ConsumeUploadDataEj
hTg:__Z68RuntimeInvoker_Void_t1185182177_Single_t1397266774_SByte_t1669577662PFvvEPK10MethodInfoPvPS4_
YKd:_MemoryStream_set_Position_m3169779190
CWb:__ZN13RenderManager29SetCurrentCameraAndStackStateEP6CameraP25CameraStackRenderingState
g0c:_ExecuteEvents_get_scrollHandler_m2659345019
PRa:__ZNSt3__26__treeINS_12__value_typeIjN4core12basic_stringIcNS2_20StringStorageDefaultIcEEEEEENS_19__map_value_compareIjS7_NS_4lessIjEELb1EEE13stl_allocatorIS7_L18MemLabelIdentifier7ELi16EEE7destroyEPNS_11__tree_nodeIS7_PvEE
B6i:__ZN15dense_hashtableINSt3__24pairIK10KeyWrapperINS1_IP11Il2CppClassjEEES4_EES6_N6il2cpp8metadata14ArrayClassHashEN14dense_hash_mapIS6_S4_SB_NS6_14EqualsComparerINSA_17ArrayClassCompareEEENS0_9allocatorIS8_EEE9SelectKeyESF_SH_E12resize_deltaEjj
Th:_JS_WebRequest_Release
DS:__ZN11UnityEngine15CloudWebService14DataErrorEventD0Ev
qaj:__ZN6il2cpp6icalls8mscorlib6System4Type20internal_from_handleEi
oGe:_Context__ctor_m254302079
Sdj:__ZN6il2cpp8metadata15GenericMetadata7InflateEPK19Il2CppGenericMethodPK20Il2CppGenericContext
Y3a:__ZN19ShaderPropertySheet16SetArrayPropertyEN9ShaderLab16FastPropertyNameENS_12PropertyTypeEPKvj
cXe:_Selectable_FindSelectable_m2348614027
T8c:_DropdownItem_OnPointerEnter_m1492957598
KNc:__ZN2UI11CanvasGroup23VirtualRedirectTransferER19StreamedBinaryWriteILb0EE
lnc:__ZN8GUIState8EndOnGUIEv
tFc:_UNITY_TT_Get_VMetrics
wud:_SimpleEnumerator__cctor_m2844299657
mOd:_LocalDataStoreSlot__ctor_m4104083971
j9h:_ReadOnlyCollection_1_System_Collections_Generic_IListU3CTU3E_RemoveAt_m3849058645_gshared
fAi:_AudioSource_ReadExtensionName_m725112169
nni:_X509CertificateEnumerator_System_Collections_IEnumerator_Reset_m2039524926
ULg:__Z128RuntimeInvoker_Void_t1185182177_RuntimeObject_BooleanU26_t4125257963_SByte_t1669577662_Int32U26_t1369213839_Int32U26_t1369213839PFvvEPK10MethodInfoPvPS4_
$wa:__ZN7Texture21GetMasterTextureLimitEv
rYb:__Z12CanAddScriptR10GameObject17ScriptingClassPtrPS1_S2_
i3i:__ZN6il2cpp2vm10Reflection12HasAttributeEP12Il2CppObjectP11Il2CppClass
cci:_Comparison_1_BeginInvoke_m3263247262_gshared
N9:__ZN9ShaderLabL25StaticInitializeShaderLabEPv
U:Math_max
AYh:__ZL64HorizontalLayoutGroup_t2586782146_CustomAttributesCacheGeneratorP21CustomAttributesCache
K3i:_il2cpp_class_get_methods
twg:_HitInfo_SendMessage_m1343099429_AdjustorThunk
Mtb:__Z18Transfer_BlittableI24GenerateTypeTreeTransferLb0EN4math12int2_storageEEvRK29SerializationCommandArgumentsR31RuntimeSerializationCommandInfo
cAf:_StackTrace_get_trace_m1194606084
Xof:_Single_CompareTo_m2785801815_AdjustorThunk
Vgj:__ZN6il2cpp2os6Thread16GetCurrentThreadEv
uQf:_Array_InternalArray__Insert_TisUILineInfo_t4195266810_m3191124053_gshared
N7b:__ZN10GameObject13ComponentPair15SetComponentPtrEPN5Unity9ComponentE
oDj:_glBlitFramebuffer__wrapper
B2b:__Z13RegisterClassI10MeshFilterEvv
VRa:__ZN10TagManager8TransferI19StreamedBinaryWriteILb0EEEEvRT_
eib:__ZN11PreloadData23VirtualRedirectTransferER18StreamedBinaryReadILb0EE
Bsg:_PropertyNameUtils_PropertyNameFromString_Injected_m1259736140
Crd:_Char_System_IConvertible_ToDateTime_m3564102661
A6a:__ZN6Sprite17MainThreadCleanupEv
wDj:_glBlendFuncSeparate__wrapper
bL:__ZN10AudioMixer14UpdateMuteSoloEv
gRa:__ZN9Transform35SetLocalPositionWithoutNotificationERKN4math7_float3Ey
BLg:__Z69RuntimeInvoker_UInt64_t4134040092_Int32_t2950945753_SByte_t1669577662PFvvEPK10MethodInfoPvPS4_
Ui:_JS_Eval_ClearTimeout
dWe:_Raycast2DCallback_Invoke_m1500574149
LBa:__ZN7ApiGLES16SetPatchVerticesEi
ysi:_CharacterClass_Compile_m3296067317
Mij:__ZN6il2cpp2gc16GarbageCollector16InvokeFinalizersEv
Lqd:_Byte_System_IConvertible_ToInt64_m285584218_AdjustorThunk
Wtg:_Rect_get_size_m477575021_AdjustorThunk
aLi:__ZN6il2cpp2vm5Class20FromGenericParameterEPK22Il2CppGenericParameter
eV:__ZN19CloudServiceHandler11FlushEventsEv
$ea:__ZN15GlobalCallbacksC2Ev
KNf:_Array_InternalArray__ICollection_Add_TisLabelData_t360167391_m1648183135_gshared
Dve:_Comparer_1_System_Collections_IComparer_Compare_m2016223770_gshared
SKg:__Z74RuntimeInvoker_DateTime_t3738529785_DateTime_t3738529785_Int32_t2950945753PFvvEPK10MethodInfoPvPS4_
xLc:_UNITY_FT_New_Memory_Face
Ieh:_Collection_1_System_Collections_IList_IndexOf_m3271188411_gshared
BJc:__ZN20TextRenderingPrivate21TextMeshGeneratorImpl5FlushEv
KKd:_MonoIO_GetFileStat_m678141354
pBc:_UNITY_FT_Load_Sfnt_Table
x7c:__Z15CastclassSealedP12Il2CppObjectP11Il2CppClass
lyf:_Decimal_IsZero_m4250358244_AdjustorThunk
_Nd:_UnmanagedMemoryStream_get_CanRead_m3770815400
jXb:__ZN16ReflectionProbes40UpdateRealtimeReflectionProbesTimeslicedEv
byf:_Decimal_u64_m3374804932
meg:_UInt16_System_IConvertible_ToInt32_m1950778303_AdjustorThunk
tfb:__ZNK30RuntimeInitializeOnLoadManager22GetTypeVirtualInternalEv
KPi:__ZN15dense_hashtableINSt3__24pairIK10KeyWrapperIN6il2cpp5utils13dynamic_arrayIPK10Il2CppTypeLj4EEEEPFvvEEESA_NS3_8metadata19Il2CppSignatureHashEN14dense_hash_mapISA_SD_SG_NSA_14EqualsComparerINSF_22Il2CppSignatureCompareEEENS0_9allocatorISE_EEE9SelectKeyESK_SM_E12resize_deltaEjj
w5b:__ZN16ReflectionProbes15InitializeClassEv
i1h:_Dictionary_2_Do_ICollectionCopyTo_TisKeyValuePair_2_t3699644050_m4159638770_gshared
Rbj:__ZN6il2cpp2vm5Image9GetCorlibEv
Ezg:_Vector3_get_left_m2428419009
eA:__ZN8Animator13BatchedFKPassERK13dynamic_arrayIP14PlayableOutputLj4EE
ioj:_GC_reclaim_uninit
V$c:_ExecuteEvents_Execute_m113814934
wba:__ZN13RuntimeStaticINSt3__23mapIN4core12basic_stringIcNS2_20StringStorageDefaultIcEEEES6_NS0_4lessIS6_EE13stl_allocatorINS0_4pairIKS6_S6_EEL18MemLabelIdentifier13ELi16EEEELb0EE13StaticDestroyEPv
R_h:_Array_qsort_TisColor32_t2600501292_m1362211604_gshared
Jve:_Enumerator_System_Collections_IEnumerator_get_Current_m2979767597_AdjustorThunk
$hd:_MD5CryptoServiceProvider_ProcessFinalBlock_m2241588515
mYe:_ScrollRect_GetBounds_m449872505
Tj:_glIsVertexArray
Bkd:_SmallXmlParser_Read_m3485223434
uDd:_Int16_Parse_m2276856944
ea:invoke_fff
iwj:_mbsinit
cCj:b14
VMc:__ZN2UI6Canvas17MainThreadCleanupEv
oza:__ZN6prcoreL12RemapGenericI17TexFormatARGB155517TexFormatRGBA8888EEvPKNS_9InnerInfoE
WMi:__ZN13Il2CppHashMapIPK19Il2CppGenericMethodPK26Il2CppGenericMethodIndicesN6il2cpp8metadata23Il2CppGenericMethodHashENS7_26Il2CppGenericMethodCompareENSt3__29allocatorINSA_4pairIK10KeyWrapperIS2_ES5_EEEEEC2EjRKS8_RKS9_
y_d:_TypeBuilder_HasElementTypeImpl_m1871001960
aof:_SecurityFrame__ctor_m2140076703_AdjustorThunk
nVf:_DefaultComparer_Equals_m2458578172_gshared
nDa:__ZN7ApiGLES13CreateProgramEv
Hwe:_Enumerator_VerifyState_m4003066746_gshared
oxa:__ZN4crnd12crn_unpackerD2Ev
ek:_emscripten_glTexImage2D
xue:_Comparer_1_System_Collections_IComparer_Compare_m2537217645_gshared
x_:__ZN18ScriptingArguments9AddStringEPKc
Coj:_setup_header
Bsd:_Char_ToString_m3588025615
r4e:_CryptoConvert_ToCapiKeyBlob_m3371450375
wya:__ZL23stbir__resize_arbitraryPvPKviiiS_iiiffffPfiij14stbir_datatype12stbir_filterS4_10stbir_edgeS5_16stbir_colorspace
eub:__Z18Transfer_BlittableI24GenerateTypeTreeTransferLb1E8Vector4fEvRK29SerializationCommandArgumentsR31RuntimeSerializationCommandInfo
gCj:b18
pk:_pthread_detach
QSi:__ZN6il2cpp2vm19SocketPollingThread7RunLoopEv
z9c:_FontUpdateTracker_UntrackText_m1981515690
p8b:__ZN15DirectorManager20ScheduleGraphDestroyERK14HPlayableGraph
YCb:__ZNSt3__213__stable_sortIRN10vector_mapI17ScriptingClassPtrPKN5Unity4TypeENS_4lessIS2_EENS_9allocatorINS_4pairIS2_S6_EEEEE13value_compareENS_11__wrap_iterIPSB_EEEEvT0_SJ_T_NS_15iterator_traitsISJ_E15difference_typeEPNSM_10value_typeEi
a1e:_SimpleCollator_FillSurrogateSortKeyRaw_m725998232
B5g:_List_1_AddEnumerable_m1284696147_gshared
laf:_IPAddress_Equals_m1823478787
fHe:_Context_CreateNewContext_m3053563976
Wka:__ZN9ShaderLab25SerializedTextureProperty8TransferI24GenerateTypeTreeTransferEEvRT_
a1i:__ZN6il2cpp2gc19AppendOnlyGCHashMapINSt3__24pairIPK14Il2CppAssemblyP11Il2CppClassEEP24Il2CppReflectionAssembly17ReflectionMapHashIS9_ENS2_8equal_toIS9_EEEC2Ev
Rwb:__Z18Transfer_BlittableI19StreamedBinaryWriteILb0EELb0EdEvRK29SerializationCommandArgumentsR31RuntimeSerializationCommandInfo
Zka:__ZN11NamedObject8TransferI18StreamedBinaryReadILb0EEEEvRT_
Amg:_InvokableCall_remove_Delegate_m1376110510
axd:_Hashtable_Clear_m3112193608
x8f:_UTF8Encoding_InternalGetByteCount_m771565606
y4e:_DSAManaged_GenerateKeyPair_m2236915969
E0g:_List_1_System_Collections_IList_Remove_m3654336679_gshared
tHh:__ZL51GUILayer_t2783472903_CustomAttributesCacheGeneratorP21CustomAttributesCache
Mk:_emscripten_glMatrixMode
QUe:_MaskableGraphic_UnityEngine_UI_IClippable_get_gameObject_m1739855597
Ps:__ZN8Animator23VirtualRedirectTransferER18StreamedBinaryReadILb0EE
lGf:_Guid__ctor_m3562600567_AdjustorThunk
YR:__ZN11UnityEngine15CloudWebService14DataDispatcher16PrepareDataBlockERNS0_16SessionContainerE
XHa:__ZN18GfxFramebufferGLES5ClearE13GfxClearFlagsRK10ColorRGBAffib
jNf:_MonoProperty_StaticGetterAdapterFrame_TisRuntimeObject_m4131530968_gshared
ABb:__ZL26Transfer_SimpleNativeClassI18StreamedBinaryReadILb0EE10RectOffsetLb0EEvRK29SerializationCommandArgumentsR31RuntimeSerializationCommandInfo
Xne:_InternalEnumerator_1_get_Current_m2316281569_gshared
sOb:__ZL12DepthPassJobPN21GfxDeviceAsyncCommand10ArgScratchEPKNS_3ArgE
ija:__ZNSt3__26vectorIN9ShaderLab20SerializedSubProgram16TextureParameterENS_9allocatorIS3_EEE6assignINS_11__wrap_iterIPS3_EEEENS_9enable_ifIXaasr21__is_forward_iteratorIT_EE5valuesr16is_constructibleIS3_NS_15iterator_traitsISC_E9referenceEEE5valueEvE4typeESC_SC_
Lpc:__ZN5Unity9rapidjson6WriterI16TempBufferWriterNS0_4UTF8IcEES4_13JSONAllocatorE11WriteDoubleEd
dag:_Thread_SetCachedCurrentUICulture_m1729523031
TQc:__Z55Register_UnityEngine_CanvasGroup_get_ignoreParentGroupsv
$2b:__Z13RegisterClassI19LowerResBlitTextureEvv
qbe:_ClientContext_set_ClientHelloProtocol_m4189379912
Nm:FUNCTION_TABLE_iiiiiiiiiiii
d5g:_List_1_get_Item_m1686506901_gshared
fUa:__ZN16GraphicsSettingsD0Ev
n:cttz_i8
Byc:_UNITY_FT_GlyphLoader_Add
BAi:_AudioListener_INTERNAL_CALL_ReadExtensionPropertyName_m330480156
QBd:_Convert_ToUInt16_m867476252
Jl:_emscripten_glViewport
Pkj:__ZN6il2cpp6icalls8mscorlib6System15MonoCustomAttrs17IsDefinedInternalEP12Il2CppObjectP20Il2CppReflectionType
YJi:_SkeletonBone_t4134054672_marshal_pinvoke_back
Zzc:_cff_parse_font_bbox
j0e:_MSCompatUnicodeTable_Category_m1834196420
Kdb:__ZN14PlayerSettings23VirtualRedirectTransferER18StreamedBinaryReadILb0EE
TAf:_Double_CompareTo_m3151899116
Jtj:__ZN6il2cpp2os5Event5ResetEv
FTb:__Z26CombineDepthNormalsTextureRK17RenderLoopContextR13dynamic_arrayI16RenderObjectDataLj4EE
rDc:_tt_name_ascii_from_other
czi:_ToggleGroup__ctor_m3308114662
Ddj:__ZN6il2cpp8metadata15GenericMetadata17InflateParametersEPK13ParameterInfohPK20Il2CppGenericContextb
gSa:__ZN6Camera13AwakeFromLoadE17AwakeFromLoadMode
l0h:_Array_Sort_TisUILineInfo_t4195266810_m3737783007_gshared
Wrg:_PlayableAsset_Internal_CreatePlayable_m2550417712
Xv:__ZNK17AnimationPlayable27GetNextCompatibleDescendantEi
Vki:_TlsStream_Write_m188217214
zGb:__Z25SetNeedToPerformRenderingb
cgg:_UInt64_System_IConvertible_ToInt32_m949522652_AdjustorThunk
tQa:__ZN10GameObjectD2Ev
HOb:__ZN14qsort_internal30FindAndMovePivotToLastPositionIP15RODataDepthPassi17ROSorterDepthPassEEvT_S4_T0_T1_
sWb:__ZN12CullingGroup10SendEventsEPK17CullingGroupEventj
v1c:_PointerInputModule__ctor_m3728889932
EX:__ZThn32_NK8Renderer8GetLayerEv
Q0f:_Enumerator_System_Collections_IEnumerator_Reset_m2915500989_gshared
cAc:_cff_parse_vsindex
GDd:_Int32_ValidDigit_m1059003769
GHj:_emscripten_glTexParameterfv__wrapper
ESe:_LayoutGroup_get_rectTransform_m442863741
nob:__Z18Transfer_BlittableI14SafeBinaryReadLb1E9BoundsIntEvRK29SerializationCommandArgumentsR31RuntimeSerializationCommandInfo
B4i:_il2cpp_method_get_param_count
ccc:__ZN10systeminfo19ISOToSystemLanguageERN4core12basic_stringIcNS0_20StringStorageDefaultIcEEEE
U$i:__ZNK15dense_hashtableINSt3__24pairIK10KeyWrapperINS1_IPK12PropertyInfoP11Il2CppClassEEEjEES9_17ReflectionMapHashIS8_EN14dense_hash_mapIS9_jSD_NS9_14EqualsComparerINS0_8equal_toIS8_EEEENS0_9allocatorISB_EEE9SelectKeyESI_SK_E3endEv
Rgg:_UnauthorizedAccessException__ctor_m40101894
uHc:_ps_dimension_done
JMc:__Z46Register_UnityEngine_TextGenerator_Dispose_cppv
YAf:_Double_Parse_m4153729520
$hi:_IndexedSet_1_AddUnique_m861843892_gshared
m4a:__ZN16LightmapSettings8TransferI14SafeBinaryReadEEvRT_
voa:__ZN17BufferManagerGLES13ReleaseBufferEP14DataBufferGLES
pae:_CipherSuite_Write_m1172814058
jNd:_SynchronizedWriter_Write_m301917713
F8:__ZN9profiling6MarkerC2EPKc13ProfilerGroupNS0_5FlagsE
nuc:__Z18Transfer_BlittableI8JSONReadLb1EjEvRK29SerializationCommandArgumentsR31RuntimeSerializationCommandInfo
YUd:_ConstructorBuilder_get_IsCompilerContext_m3364441562
Blg:_Debug_LogWarning_m3752629331
vbi:_ReadOnlyCollection_1_System_Collections_Generic_IListU3CTU3E_RemoveAt_m4037795630_gshared
bJg:__Z117RuntimeInvoker_Void_t1185182177_RuntimeObject_Int32_t2950945753_Int32_t2950945753_Int32_t2950945753_Int32_t2950945753PFvvEPK10MethodInfoPvPS4_
p4c:_U3COnFinishSubmitU3Ec__Iterator0_Reset_m3632769946
$o:stackSave
s6c:_ColorTween_get_targetColor_m1724075482_AdjustorThunk
PHc:_ps_dimension_end
hlc:__Z41Register_UnityEngine_Mesh_Internal_Createv
Bdj:__ZNK15dense_hashtableI10KeyWrapperIP18Il2CppGenericClassES3_N6il2cpp8metadata22Il2CppGenericClassHashEN14dense_hash_setIS3_S6_NS3_14EqualsComparerINS5_25Il2CppGenericClassCompareEEENSt3__29allocatorIS3_EEE8IdentityESA_SD_E12test_deletedERK30dense_hashtable_const_iteratorIS3_S3_S6_SF_SA_SD_E
jzd:_Console_Open_m3077673205
uni:_X509StoreManager_get_CurrentUser_m4040993045
RXb:__ZN6Camera9SetAspectEf
jMf:_Array_InternalArray__IndexOf_TisDateTime_t3738529785_m2463359116_gshared
va:invoke_viiffiii
HFi:_Display_Start_m3623905221
XIj:_emscripten_glBindVertexArray__wrapper
tgj:__ZN6il2cpp6icalls8mscorlib6System4Enum19get_underlying_typeEP20Il2CppReflectionType
gti:_Parser_IsECMAScript_m674158805
oRa:__ZN9Transform37InitializeTransformHierarchyRecursiveER18TransformHierarchyRii
LHa:__ZN26SinglePassStereoSupportExt23SetupStereoMatrixParamsE21MonoOrStereoscopicEye24BuiltinShaderMatrixParamRK10Matrix4x4f
dwj:_fscanf
iYc:__ZNK25UnityWebRequestJavaScript16GetUploadedBytesEv
XP:__Z46AudioListener_CUSTOM_GetNumExtensionPropertiesP12Il2CppObject
$Ti:__ZN6il2cpp6icalls8mscorlib6SystemL16CheckMemberMatchI9FieldInfoNS_5utils10functional6FilterINSt3__212basic_stringIcNS8_11char_traitsIcEENS8_9allocatorIcEEEENS5_13VmStringUtils23CaseInsensitiveComparerEEEEEbPKT_PK11Il2CppClassSN_iRKT0_
wMf:_Array_InternalArray__IndexOf_TisMonoResource_t4103430009_m1351751258_gshared
Qej:__ZN6il2cpp2gc16GarbageCollector12RunFinalizerEPvS2_
SCf:_FieldAccessException__ctor_m3583219052
dkc:__Z57Register_UnityEngine_Transform_INTERNAL_set_localPositionv
zsa:__ZN13GfxDeviceGLES26SetRandomWriteTargetBufferEi15ComputeBufferID
Boj:_GC_split_block
u$h:_Array_Resize_TisUICharInfo_t75501106_m3903846016_gshared
xKb:__ZZ23InitPlayerLoopCallbacksvEN49EarlyUpdateResetFrameStatsAfterPresentRegistrator7ForwardEv
Fwj:_poll
i8h:_ReadOnlyCollection_1_System_Collections_IEnumerable_GetEnumerator_m1671097018_gshared
Cgg:_UInt64_ToString_m1529093114_AdjustorThunk
xXh:__ZL85Selectable_t3250028441_CustomAttributesCacheGenerator_Selectable_IsPressed_m907486548P21CustomAttributesCache
j5d:_TypeLibImportClassAttribute__ctor_m2302178978
K1e:_Escape_t3294788190_marshal_pinvoke
_Qe:_InputField_OnUpdateSelected_m1118869681
Vbj:__ZN6il2cpp2vmL36AddNestedTypesToNametoClassHashTableEP40Il2CppNameToTypeDefinitionIndexHashTablePKcRKNSt3__212basic_stringIcNS5_11char_traitsIcEENS5_9allocatorIcEEEEP11Il2CppClass
yxa:__ZN4crnd12crn_unpacker11unpack_dxt1EPPhjjj
Nbc:__ZNK11ICallString6ToUTF8Ev
gLi:__ZN15dense_hashtableINSt3__24pairIK10KeyWrapperIPK22Il2CppGenericParameterEP11Il2CppClassEES6_N6il2cpp5utils11PointerHashIS4_EEN14dense_hash_mapIS6_S9_SE_NS6_14EqualsComparerINS0_8equal_toIS5_EEEENS0_9allocatorISA_EEE9SelectKeyESJ_SL_E15insert_noresizeERKSA_
nze:_Transform_1_Invoke_m2468053724_gshared
IOb:__ZNSt3__211__sift_downIR17ROSorterDepthPassP15RODataDepthPassEEvT0_S5_T_NS_15iterator_traitsIS5_E15difference_typeES5_
X$a:__ZN18UnityPropertySheet11UnityTexEnvC2Ev
kmd:_ArgumentException__ctor_m3200406061
zA:__ZN8Animator17ApplyOnAnimatorIKEiRNS_11AnimatorJobE
o1:__ZN12FileAccessor4ReadEyyPvPy
Dsf:_EncoderExceptionFallback__ctor_m3745979420
X6g:_List_1_set_Capacity_m2777925136_gshared
sXb:__ZN13RenderTexture9SetHeightEi
mu:__ZN7mecanim9animation17ClearMotionOutputEPNS0_18AnimationNodeStateE
bbe:_CipherSuiteCollection_get_IsFixedSize_m3127823890
ete:_InternalEnumerator_1_System_Collections_IEnumerator_get_Current_m3537550566_gshared
tWe:_Scrollbar_UpdateVisuals_m2492252165
kmi:_PKCS12_get_Keys_m2165478388
L8i:__ZN6il2cpp6icalls8mscorlib6System2IO6MonoIO17GetFileAttributesEP12Il2CppStringPi
qhd:_HMACMD5__ctor_m3008609295
nvf:_DateTime__ParseAmPm_m3478436123
Tvf:_DateTime_ToString_m2992030064_AdjustorThunk
kEc:_tt_cmap8_char_index
Y_:__Z24scripting_class_get_name17ScriptingClassPtr
ULd:_Stream_WriteByte_m1519852120
Bzi:_VerticalLayoutGroup_CalculateLayoutInputHorizontal_m1404590745
eca:__ZN13RuntimeStaticI15GUIEventManagerLb0EE13StaticDestroyEPv
MPd:_ShortComparer_Compare_m1881262465
eqb:__Z29Transfer_Blittable_ArrayFieldI14SafeBinaryReadjEvRT_R9ArrayInfoRK23StaticTransferFieldInfo
ee:_emscripten_set_keydown_callback
e5f:_EncoderReplacementFallback__ctor_m1483565116
Zgf:_Interpreter_IsWordChar_m2858055765
Zwd:_Hashtable_CopyTo_m2905447224
w1:__ZN12FileAccessorC2Ev
ZBc:_otv_u_O_O_u_O_O
qy:__ZThn152_NK26AnimatorControllerPlayable25GetStateMachineBehavioursEv
Whi:_EventFunction_1_Invoke_m2429482587_gshared
Fbf:_AsnEncodedData_SubjectAltName_m4049949414
oVi:__ZN6il2cpp2vm7Runtime12GetConfigDirEv
o0f:_Enumerator_MoveNext_m1177880931_AdjustorThunk
VZe:_Slider_UpdateVisuals_m3662961057
BHi:_TextGenerator_Populate_m194003733
$Vd:_DerivedType_get_FullName_m1025358827
wfd:_CryptoConfig_MapNameToOID_m2044758263
OVh:__ZL70InputField_t3762917431_CustomAttributesCacheGenerator_m_OnValueChangedP21CustomAttributesCache
rHb:__ZN13RenderManager22OnWindowSizeHasChangedEv
PEb:__Z39WriteQueueForTransferSignatureIntoCacheRK31TransferFunctionScriptingTraitsRK24TransferRequestSignature17ScriptingClassPtrR23CachedSerializationDataRb
_gb:__ZN13RenderManager18UpdateAllRenderersEv
q6f:_Encoding_get_UTF8UnmarkedUnsafe_m320312322
mag:_Thread_Thread_free_internal_m333849022
brc:__Z35Transfer_Blittable_FixedBufferFieldI9JSONWritexEvRK29SerializationCommandArgumentsR31RuntimeSerializationCommandInfo
soi:_CostDelegate_BeginInvoke_m2828452701
QSc:__ZN22BaseUnityConnectClient30OnEnteringStatePausedOrStoppedEv
Fgh:_Collection_1_ConvertItem_m1556170494_gshared
Au:__ZN7mecanim5human12HumanPoseAddERNS0_9HumanPoseERKS1_S4_
Ntf:_DateTime_ToUniversalTime_m1945318289
vtd:_ArrayList_ToArray_m3827492363
l_e:_Slider_get_stepSize_m1423227661
xgg:_UInt64_Parse_m819899889
Pkf:_SymmetricAlgorithm_set_IV_m3196220308
rYd:_GenericTypeParameterBuilder_GetHashCode_m852224381
aCd:_Convert_ToUInt32_m1453583008
NDf:_CompareInfo_Compare_m894311506
YQa:__Z24MergeTransformComponentsR9TransformS0_b
bPi:__ZNK15dense_hashtableI10KeyWrapperIPK19Il2CppGenericMethodES4_N6il2cpp8metadata23Il2CppGenericMethodHashEN14dense_hash_setIS4_S7_NS4_14EqualsComparerINS6_26Il2CppGenericMethodCompareEEENSt3__29allocatorIS4_EEE8IdentityESB_SE_E10test_emptyEj
e_c:_EventSystem_UpdateModules_m3643806022
DJi:_AnimationOffsetPlayable__cctor_m1029460816
Rkj:__ZN6il2cpp2vm13ComObjectBase19GetRuntimeClassNameEPP15Il2CppHString__
Rj:_emscripten_glVertexAttribPointer
OVa:__ZNK20IntermediateRenderer12GetSceneMaskEv
CHb:__ZN14PreloadManager26UpdatePreloadingSingleStepENS_21UpdatePreloadingFlagsEi
$Ye:_ScrollRect_SetLayoutHorizontal_m3078869633
z0e:_SimpleCollator__ctor_m1587210019
pic:__Z57Register_UnityEngine_RectTransform_INTERNAL_set_anchorMinv
YBd:_Convert_ToUInt16_m1480956416
Xya:__ZN6prcoreL25inner_stretch_i8_bilinearEPKNS_9InnerInfoE
sib:__ZL30RegisterFilteredObjectCallbackPP12Il2CppObjectiPv
Tai:_ReadOnlyCollection_1_System_Collections_Generic_IListU3CTU3E_RemoveAt_m3317217538_gshared
fOh:__ZL54AudioSource_t3935305588_CustomAttributesCacheGeneratorP21CustomAttributesCache
UHb:__Z19InitializeGfxDevicev
sS:__ZN11UnityEngine15CloudWebService16SessionContainer24GetSessionHeaderJsonDataERKN4core12basic_stringIcNS2_20StringStorageDefaultIcEEEERNS2_13StringBuilderE
EVd:_DerivedType_GetEvent_m4157575360
Sba:__ZN13RuntimeStaticI21AssetReferenceStorageLb0EE13StaticDestroyEPv
zed:_SByte_System_IConvertible_ToType_m4075253447_AdjustorThunk
LQf:_Array_InternalArray__set_Item_TisKeyValuePair_2_t2530217319_m258011711_gshared
pTg:__Z72RuntimeInvoker_Bounds_t2266837910_RuntimeObject_Matrix4x4U26_t3606180965PFvvEPK10MethodInfoPvPS4_
Egj:__ZN6il2cpp6icalls8mscorlib6System9AppDomain22InternalGetProcessGuidEP12Il2CppString
iyc:_cf2_builder_moveTo
RCg:__Z48RuntimeInvoker_RuntimeObject_Decimal_t2948259380PFvvEPK10MethodInfoPvPS4_
uNa:__ZNK17FileSystemHandler10IsReadOnlyERK13FileEntryData
Bub:__Z18Transfer_BlittableI24GenerateTypeTreeTransferLb1EjEvRK29SerializationCommandArgumentsR31RuntimeSerializationCommandInfo
eLi:__ZN6il2cpp2os12FastAutoLockD2Ev
Z6:__ZN11ColorRGBA328TransferI14SafeBinaryReadEEvRT_
rAc:_cff_vstore_done
dOg:__Z68RuntimeInvoker_Void_t1185182177_UInt16_t2177724958_SByte_t1669577662PFvvEPK10MethodInfoPvPS4_
jfb:__ZN15ResourceManager10Dependency8TransferI24GenerateTypeTreeTransferEEvRT_
Phd:_MACTripleDES_HashFinal_m3613553534
Tfg:_UInt64_System_IConvertible_ToChar_m2074245892
B8f:_UTF8Encoding_InternalGetBytes_m1965760031
Jf:_emscripten_glClearDepth
U6b:__ZNK8GUILayer22GetTypeVirtualInternalEv
s5a:__ZN14SafeBinaryRead21TransferSTLStyleArrayINSt3__26vectorIN15QualitySettings14QualitySettingENS1_9allocatorIS4_EEEEEEvRT_17TransferMetaFlags
idb:__ZNSt3__26vectorINS_4pairIPKN5Unity4TypeE7Hash128EENS_9allocatorIS7_EEE8__appendEj
uAc:_cff_font_load
ihj:__GLOBAL__sub_I_LibraryLoader_cpp
Fcc:__Z13IsPathCreatedRKN4core12basic_stringIcNS_20StringStorageDefaultIcEEEE
Cya:__ZL22stbir__encode_scanlineP11stbir__infoiPvPfiii
v4d:_ExternalException__ctor_m2877839282
mxc:__ZN20QuadTreeNodeRenderer13StaticDestroyEPv
oT:__ZN11UnityEngine15CloudWebService20WebRequestRestClient5AbortEv
sri:_Regex_Matches_m2080913806
Z3b:__ZN9Transform12CleanupClassEv
Bwg:_Sprite_get_rect_m2575211689
mpg:_Mathf_Sin_m3411839043
ALc:_UNITY_FT_Set_Pixel_Sizes
bSd:_OperatingSystem_Clone_m1122165140
v3h:_GameObject_AddComponent_TisRuntimeObject_m3469369570_gshared
dka:__ZNSt3__26vectorIN9ShaderLab19SerializedSubShaderENS_9allocatorIS2_EEE26__swap_out_circular_bufferERNS_14__split_bufferIS2_RS4_EE
dA:__ZN11UnityEngine9Animation33SetGenericTransformPropertyValuesERKNS0_30AnimatorGenericBindingConstantERKN7mecanim10ValueArrayEP9Transformy
P6i:__ZN6il2cpp2vmL24thread_cleanup_on_cancelEPv
$2g:_List_1_RemoveAll_m3165362277_gshared
Wcg:_Type_type_is_subtype_of_m1406623598
a9f:_Thread_get_CurrentThread_m4142136012
eWa:__Z30ProcessDynamicBatchGeometryJobP25DynamicVBOGeometryJobDataj
cPb:__ZNSt3__27__sort4IRNS_6__lessI11CulledLightS2_EEPS2_EEjT0_S6_S6_S6_T_
ZWi:__ZN6il2cpp2vm14TypeNameParser26ParseArrayModifierOptionalEv
TZ:__Z26scripting_object_get_class18ScriptingObjectPtr
O7i:__ZN6il2cpp6icalls8mscorlib6System10Reflection8Assembly13get_code_baseEP24Il2CppReflectionAssemblyb
Vfb:__ZNSt3__26vectorIN4core12basic_stringIcNS1_20StringStorageDefaultIcEEEE13stl_allocatorIS5_L18MemLabelIdentifier13ELi16EEE7reserveEj
Egd:_DSASignatureDeformatter__ctor_m2889130126
C3b:__ZNK28MonoBehaviourPropertyBinding15GenerateBindingERKN4core12basic_stringIcNS0_20StringStorageDefaultIcEEEEbRN11UnityEngine9Animation14GenericBindingE
gvg:_RectTransform_INTERNAL_set_pivot_m1160676233
X7g:_List_1_set_Item_m35836043_gshared
Eef:_X509ChainElementCollection__ctor_m3424079155
Aoi:_LinkStack_Push_m3081279930
Sxe:_Enumerator_MoveNext_m1107569389_gshared
Sij:__ZN6il2cpp6icalls8mscorlib6System11Environment15internalGetHomeEv
Npg:_Matrix4x4_GetHashCode_m4034747639_AdjustorThunk
y3d:_ResourceCacheItem_t51292791_marshal_pinvoke_cleanup
iX:__ZNK5Unity9Component7GetNameEv
hTe:_U3CDelayedSetDirtyU3Ec__Iterator0_Reset_m160466733
$kg:_Native__cctor_m1435623442
m6g:_List_1_System_Collections_IList_Remove_m1070694895_gshared
Pvi:_LayoutCache__ctor_m3885940174
rB:__ZN7mecanim8skeleton26SkeletonPoseComputeGlobalQEPKNS0_8SkeletonEPKNS0_13SkeletonPoseTIN4math4trsXEEEPS7_ii
Sfg:_UInt64_System_IConvertible_ToByte_m1501504925_AdjustorThunk
uHi:_TextGenerator_Invalidate_m1072346986
Pde:_TlsClientHello_ProcessAsTls1_m2549285167
t$g:__Z74RuntimeInvoker_Boolean_t97287965_UIVertex_t4057497605_UIVertex_t4057497605PFvvEPK10MethodInfoPvPS4_
O8h:_ReadOnlyCollection_1_System_Collections_IList_Clear_m3591436538_gshared
IXe:_ScrollRect_set_decelerationRate_m723367336
TA:__ZN9BlobWrite8TransferI22OffsetPtrArrayTransferIiEEEvRT_PKc17TransferMetaFlags
Fsf:_EncoderExceptionFallback_Equals_m2760188920
$hf:_RIPEMD160Managed_HashCore_m2350629432
VJ:__ZN4FMOD6System7releaseEv
Zpd:_Boolean_CompareTo_m3665076258
Vpf:_String_Split_m3580120853
N5e:_PrivateKeyInfo__ctor_m2811023496
T0:__Z18PathToAbsolutePathRKN4core12basic_stringIcNS_20StringStorageDefaultIcEEEE
Kwi:_GUILayoutUtility_LayoutFromEditorWindow_m2914699782
eya:__ZL13BlitImageImplR14ImageReferenceiiRKS_NS_10ColorSpaceENS_8BlitModeEb
v8b:__ZN15DirectorManager17AcquireOutputNodeEv
nAa:__ZN6prcoreL17RemapGenericFloatI18TexFormatRGBAFloat17TexFormatRGBFloatEEvPKNS_9InnerInfoE
y3h:_GameObject_GetComponentInChildren_TisRuntimeObject_m1310240902_gshared
CLh:__ZL69PersistentCall_t3407714124_CustomAttributesCacheGenerator_m_ArgumentsP21CustomAttributesCache
aHa:__ZN16GeometryJobTasks20ScheduleGeometryJobsER9GfxDevicePFvP15GeometryJobDataEPK22GeometryJobInstructionjb
_H:__ZN12AudioManager29ShutdownReinitializeAndReloadEv
hYa:__ZN16ReflectionProbes28GetMinBakedCubemapResolutionEv
M9a:__ZN14BlendShapeData8TransferI14SafeBinaryReadEEvRT_
$jj:__GLOBAL__sub_I_String_cpp
dLi:__ZN15dense_hashtableINSt3__24pairIK10KeyWrapperIPK22Il2CppGenericParameterEP11Il2CppClassEES6_N6il2cpp5utils11PointerHashIS4_EEN14dense_hash_mapIS6_S9_SE_NS6_14EqualsComparerINS0_8equal_toIS5_EEEENS0_9allocatorISA_EEE9SelectKeyESJ_SL_E6insertERKSA_
hRe:_InputField_GenerateCaret_m1459647218
cmi:_X509CertificateEnumerator__ctor_m85694331
$ta:__ZN14DataBufferGLES16RecreateWithDataEjPKv
N2:__Z29GetGlobalAllowNameConversionsv
vPf:_Array_InternalArray__Insert_TisTableRange_t3332867892_m558285859_gshared
YYb:__ZN8Material8SetColorEN9ShaderLab16FastPropertyNameERK10ColorRGBAf
W1f:_Enumerator_System_Collections_IEnumerator_Reset_m3754523291_gshared
sHj:_glUniform3uiv__wrapper
TL:__ZN11AudioSource23VirtualRedirectTransferER18StreamedBinaryReadILb0EE
ftg:_RangeInt_get_end_m4128831787
Vba:__ZN21AssetReferenceStorageC2Ev
Lzj:dynCall_iiifiii
a$:__ZL41AssemblyNameMatchesWithOrWithoutExtensionPKcS0_
e5g:_List_1_set_Item_m2082115010_gshared
I5f:_Encoding_GetBytes_m3735967069
BDa:__ZN14GfxContextGLES43AddRenderSurfaceToDeferredFBOInvalidateListEPK17RenderSurfaceGLES
o8i:__ZN6il2cpp6icalls8mscorlib6System9Threading6Thread15Thread_internalEP12Il2CppThreadP14Il2CppDelegate
roa:__ZN11NamedObject23VirtualRedirectTransferER14SafeBinaryRead
f$e:_Text_get_resizeTextMinSize_m1002355407
pLc:__ZNSt3__26vectorIN20TextRenderingPrivate8FontImpl13CharacterInfoE13stl_allocatorIS3_L18MemLabelIdentifier1ELi16EEE6insertENS_11__wrap_iterIPKS3_EERS9_
mLa:__ZN23PreloadManagerOperation6IsDoneEv
rkj:__ZN6il2cpp5utils11StringUtils11Utf16ToUtf8ERKNSt3__212basic_stringIDsNS2_11char_traitsIDsEENS2_9allocatorIDsEEEE
d8d:_MD4Managed_Decode_m4273685594
Chb:__ZN21LightProbeProxyVolume18HasHardwareSupportEv
bSb:__ZN26LightProbeProxyVolumeCacheC2ER13BatchRendererR15RenderLoopStats
Sya:__ZN6prcoreL31inner_stretch_argb8888_bilinearEPKNS_9InnerInfoE
Byb:__Z18Transfer_BlittableI18StreamedBinaryReadILb1EELb1E8BitFieldEvRK29SerializationCommandArgumentsR31RuntimeSerializationCommandInfo
TEc:_UNITY_FT_Outline_Decompose
bGd:_Int64_System_IConvertible_ToChar_m1509243576_AdjustorThunk
oli:_GeneralNames_get_IPAddresses_m4242915644
fzf:_Decimal_op_Implicit_m3873897383
Toj:_GC_init_size_map
jTa:__Z20scripting_object_new17ScriptingClassPtr
_5e:_KeyGeneratedEventHandler_Invoke_m2527485594
nxf:_Decimal__ctor_m1925875020_AdjustorThunk
LNe:_SerializationCallbacks__ctor_m3863304525
P:Math_exp
rjg:_Vector3_Min_m1803158933
Do:FUNCTION_TABLE_iiifi
ngj:__ZN6il2cpp2os5posix13PosixAutoLockD2Ev
Qxi:_SymmetricTransform_OFB_m3690147804
Rxc:_cff_get_advances
jEb:__ZN13MonoBehaviour9SetScriptERK4PPtrI10MonoScriptE18ScriptingObjectPtr
EMa:__ZNK10FileSystem16LastErrorMessageEv
yQf:_Array_InternalArray__Insert_TisVector3_t3722313464_m3862657277_gshared
enf:_SecurityException__ctor_m1631242336
eNi:__ZN15dense_hashtableINSt3__24pairIK10KeyWrapperIPK11Il2CppClassEPKcEES6_N6il2cpp5utils11PointerHashIS3_EEN14dense_hash_mapIS6_S9_SE_NS6_14EqualsComparerINS0_8equal_toIS5_EEEENS0_9allocatorISA_EEE9SelectKeyESJ_SL_E14squash_deletedEv
f$c:_EventSystem_Update_m1662072334
NYc:__ZN22UnityWebRequestManager10InitializeEv
ADb:__ZN13MonoBehaviour13AwakeFromLoadE17AwakeFromLoadMode
Isb:__ZL26Transfer_SimpleNativeClassI17RemapPPtrTransfer8GradientLb1EEvRK29SerializationCommandArgumentsR31RuntimeSerializationCommandInfo
J_c:_RaycasterManager_RemoveRaycasters_m3057093063
G9b:__ZN12CachedWriter9InitWriteER15CacheWriterBase
k8b:__Z21UnsignedInt64ToStringy
UVe:_GetRaycastNonAllocCallback_BeginInvoke_m3984885848
Cpi:_PatternCompiler_BeginLink_m1295557963
JRa:__ZN14SafeBinaryRead21TransferSTLStyleArrayI13dynamic_arrayI17SortingLayerEntryLj4EEEEvRT_17TransferMetaFlags
ACd:_GuidParser_ThrowFormatException_m3223388534
Rsi:_Group_GetAnchorInfo_m3730312864
bVh:__ZL50Graphic_t1660335611_CustomAttributesCacheGeneratorP21CustomAttributesCache
ncg:_TimeSpan_op_LessThanOrEqual_m300470010
Khf:_Interval_Merge_m3454211016_AdjustorThunk
Qda:__ZZN15DirectorManager15InitializeClassEvEN41FixedUpdateDirectorFixedUpdateRegistrator7ForwardEv
XKd:_MemoryStream_get_Position_m3733941202
t0b:__ZL10KeyHandleriPK23EmscriptenKeyboardEventPv
GIj:_glLinkProgram__wrapper
ykb:__ZN18ScriptingArguments8AddInt64Ex
Aza:__ZN6prcoreL12RemapGenericI17TexFormatARGB888815TexFormatBGR888EEvPKNS_9InnerInfoE
dlb:__ZN12HandlerChain4LockER13FileEntryData12FileLockMode
WFf:_TextInfo_get_ListSeparator_m1628160079
AZe:_Selectable_OnCanvasGroupChanged_m472903475
j9f:_EventWaitHandle_Reset_m3348053200
zWc:__ZN28UnityConnectScriptingClasses23CallSessionStateChangedEixxbP21ScriptingExceptionPtr
Iaj:__ZN6il2cpp6icalls8mscorlib6System13Globalization11CultureInfo35construct_internal_locale_from_nameEP17Il2CppCultureInfoP12Il2CppString
Qub:__ZL22Transfer_ManagedObjectI24GenerateTypeTreeTransferLb1EEvRK29SerializationCommandArgumentsR31RuntimeSerializationCommandInfo
IMb:__ZN15RenderNodeQueueC2E10MemLabelId
u3d:_ResourceEnumerator_FillCache_m1661715061
Axh:__ZL72SecuritySafeCriticalAttribute_t3505979402_CustomAttributesCacheGeneratorP21CustomAttributesCache
Zj:_emscripten_set_main_loop_timing
fjg:_Bounds_get_min_m3755135869
RBd:_Convert_ToUInt16_m3523269149
vva:__ZN14DataBufferGLES12RecordRenderEv
e0c:_ExecuteEvents_get_endDragHandler_m2879610446
FYb:__ZN14ImageReference10FlipImageYEv
pnc:__Z14GetDefaultSkini
kF:__ZN4FMOD3DSP9setBypassEb
l0b:__Z19NormalizeWheelInputf
mad:_Graphic_DoMeshGeneration_m3548487693
Qqi:_Repetition__ctor_m1672362629
owc:__Z29Transfer_Blittable_ArrayFieldI8JSONReadhEvRT_R9ArrayInfoRK23StaticTransferFieldInfo
hof:_SecurityFrame_ToString_m339310712_AdjustorThunk
s_d:_TypeBuilder_create_runtime_class_m2581270900
Zke:_InternalEnumerator_1_get_Current_m3008260692_gshared
rtj:__ZN6il2cpp2os20ThreadLocalValueImpl8SetValueEPv
NTa:__ZN22RenderingCommandBuffer20CleanupCommandBufferEv
hzf:_Decimal_op_Implicit_m2299919277
drc:__Z18Transfer_BlittableI9JSONWriteLb1EtEvRK29SerializationCommandArgumentsR31RuntimeSerializationCommandInfo
TNd:_UnexceptionalStreamReader_ReadToEnd_m920589220
Jtf:_DateTime_System_IConvertible_ToType_m1242864300
sqf:_String_IndexOf_m1298810678
rk:___syscall85
PEi:__ZL25UnresolvedVirtualCall_198P12Il2CppObjectfPK10MethodInfo
NMb:__ZNSt3__26__sortIRPFbP10GUIElementS2_EPS2_EEvT0_S7_T_
_6b:__ZN16GraphicsSettings12CleanupClassEv
oVd:_ConstructorBuilder_GetILGenerator_m1750792206
g5f:_EncoderFallback_get_ReplacementFallback_m818398284
ehj:__ZN6il2cpp2os6Thread19DetachCurrentThreadEv
A$c:_EventTrigger_OnBeginDrag_m4203438710
zLi:__ZN6il2cpp2vmL21SetupInterfacesLockedEP11Il2CppClassRKNS_2os12FastAutoLockE
C5e:_PKCS1_Sign_v15_m2719206817
rz:__ZN23AnimationPlayableOutput17SetSourcePlayableEP8Playable
flg:_CullingGroup_Dispose_m782801025
oS:__ZN11UnityEngine15CloudWebService14DataDispatcher15SetupWebRequestEv
$Tc:__ZN11UnityEngine15PlatformWrapper13GetShaderCapsEv
nUb:__ZNSt3__211__sift_downIR26RenderDeferredObjectSorterP16RenderObjectDataEEvT0_S5_T_NS_15iterator_traitsIS5_E15difference_typeES5_
X4e:_KeyPairPersistence_get_MachinePath_m3812267291
Zyd:_Stack_Peek_m2216191248
wtf:_DateTime_System_IConvertible_ToDecimal_m1044850612_AdjustorThunk
I7b:__ZN21FixedBehaviourManager6UpdateEv
tcc:__ZN9Transform9SetParentEPS_NS_15SetParentOptionE
L4:__ZN19ShaderPropertySheet8SetFloatEN9ShaderLab16FastPropertyNameEfNS_8SetFlagsE
tgb:__ZN19RuntimeSceneManager24BeginIntegrateMainThreadEP10UnityScene
Qhj:__ZNSt3__2plIcNS_11char_traitsIcEENS_9allocatorIcEEEENS_12basic_stringIT_T0_T1_EERKS9_S6_
UMd:_StringReader_CheckObjectDisposedException_m3796163530
Gja:__ZN9ShaderLab20SerializedSubProgramaSERKS0_
lzj:_roundf
Rqd:_Byte_System_IConvertible_ToSingle_m324484566_AdjustorThunk
Uyf:_Decimal_op_Explicit_m2848387298
F_f:_KeyValuePair_2_ToString_m1238786018_gshared
Xs:__ZN8Animator15SetPrepareStageEv
LE:__ZN8AnimatorC2E10MemLabelId18ObjectCreationMode
ALi:__ZN6il2cpp2vmL24SetupTypeHierarchyLockedEP11Il2CppClassRKNS_2os12FastAutoLockE
u0b:__ZL11TextHandleriPK23EmscriptenKeyboardEventPv
MKc:_destroy_face
TEj:_glBlendEquationSeparate__wrapper
nqj:__ZN6il2cpp6icalls8mscorlib6System8Security12Cryptography24RNGCryptoServiceProvider13RngInitializeEP11Il2CppArray
aM:__ZN20SoundChannelInstance7setMuteEb
DRd:_NumberFormatter_NumberToString_m3906556024
Azb:__Z19TransferField_ArrayI18StreamedBinaryReadILb1EE27Converter_SimpleNativeClassI17AnimationCurveTplIfEEEvRK23StaticTransferFieldInfoR31RuntimeSerializationCommandInfoRT0_
_va:__ZN18GfxFramebufferGLES22MakeCurrentFramebufferENS_7BuiltinE
j7:__ZN12CachedReader4ReadEPvj
P2c:_StandaloneInputModule_ProcessMouseEvent_m2923582521
F1e:_SimpleCollator_MatchesForwardCore_m850743967
bRb:__Z24CalculateLightShadowFadeRK6CamerafffR8Vector4f
yaa:__ZN19RuntimeSceneManagerD2Ev
mDf:_CCGregorianCalendar_GetMonth_m1547203696
ET:__ZN11UnityEngine15CloudWebService25WebRequestDownloadHandler17OnCompleteContentEv
Rya:__ZN6prcore17GetIntegerBlitterE13TextureFormatS0_N14ImageReference8BlitModeE
soj:_GC_print_block_descr
Q_i:__ZN6il2cpp2gc19AppendOnlyGCHashMapINSt3__24pairIPK11Il2CppImageP11Il2CppClassEEP22Il2CppReflectionModule17ReflectionMapHashIS9_ENS2_8equal_toIS9_EEE11TryGetValueERKS9_PSB_
pec:__ZN9BlobWrite14ReduceCopyImplERK14ReduceCopyDataj
_8:__ZNSt3__26__treeI19RepeatingLogMessageNS_4lessIS1_EE13stl_allocatorIS1_L18MemLabelIdentifier73ELi16EEE12__find_equalIS1_EERPNS_16__tree_node_baseIPvEESD_RKT_
MP:__ZN11AudioSource18IsPlayingScriptingEv
P4e:_KeyBuilder_IV_m2230195376
JDj:_glShaderSource__wrapper
wOa:__ZN25MultiBlocksMemoryFileData17AdjustBlocksCountEj
_7i:__ZNSt3__214__split_bufferIN6il2cpp2vm22EmbeddedResourceRecordERNS_9allocatorIS3_EEED2Ev
fJc:__ZN13TextRendering4Font8TransferI24GenerateTypeTreeTransferEEvRT_
Kfc:__Z27CullingGroup_CUSTOM_DisposeP12Il2CppObject
I7i:__ZN6il2cpp6icalls8mscorlib6SystemL23CheckWideningConversionEjjj
ZWc:__ZNSt3__26vectorIP19BaseConnectSettings13stl_allocatorIS2_L18MemLabelIdentifier6ELi16EEE21__push_back_slow_pathIKS2_EEvRT_
sMb:__ZN13ComputeShader15SetTextureParamEjRKN9ShaderLab16FastPropertyNameE9TextureID16TextureDimension
zm:_glStencilMask
Ehj:__ZN6il2cpp2os10ThreadImpl16GetCurrentThreadEv
c1d:_MonoMethod_GetBaseDefinition_m2844667474
n0b:__ZN15GUIEventManager10QueueEventERK10InputEvent
d4d:_DecimalConstantAttribute__ctor_m3583301917
Unj:_GC_push_conditional_with_exclusions
nwe:_Enumerator_System_Collections_IDictionaryEnumerator_get_Entry_m2772123357_AdjustorThunk
DJe:_MethodCallDictionary__ctor_m2167303393
SB:__ZN12_GLOBAL__N_121ProcessAnimationBeginER35AnimationPlayableEvaluationConstantR32AnimationPlayableEvaluationInputR33AnimationPlayableEvaluationOutput
ynj:_GC_make_disappearing_links_disappear
qwj:_strrchr
Jkg:_Component_GetComponentInParent_m779177818
p3c:_UIBehaviour_IsDestroyed_m3033055982
PMg:__Z109RuntimeInvoker_Void_t1185182177_RuntimeObject_RuntimeObject_SByte_t1669577662_Int32_t2950945753_RuntimeObjectPFvvEPK10MethodInfoPvPS4_
IPe:_InputField_get_readOnly_m3111985574
sYa:__ZN14RenderSettings27UpdateIndirectSpecularColorEv
jeb:__ZN14PlayerSettings8TransferI18StreamedBinaryReadILb0EEEEvRT_
rUi:__ZN6il2cpp6icalls8mscorlib6System8MonoType16GetMethodsByNameEP20Il2CppReflectionTypeP12Il2CppStringibS5_
C9f:_Monitor_Monitor_wait_m3706677354
Lid:_RijndaelTransform__cctor_m2439033240
KIb:__ZNSt3__27__sort3IRNS_4lessIN22BuiltinResourceManager8ResourceEEEPS3_EEjT0_S7_S7_T_
CHc:_ps_hints_t2mask
g2h:_LayoutGroup_SetProperty_TisVector2_t2156229523_m2721164497_gshared
EIf:_Array_InternalArray__ICollection_Remove_TisMonoResource_t4103430009_m238733686_gshared
pHd:_IntPtr_ToString_m1831665121
v_e:_Slider_Set_m1476104429
_bd:_Image_set_fillClockwise_m2210525152
Uab:__ZN10BlendShape8TransferI19StreamedBinaryWriteILb0EEEEvRT_
gHd:__Z21il2cpp_codegen_sizeofP11Il2CppClass
KCa:__Z19GetTimeSinceStartupv
ycd:_Image_AddQuad_m2161647989
K1f:_Enumerator_System_Collections_IEnumerator_Reset_m2953002685_gshared
YGc:_TT_Load_Composite_Glyph
f$a:__ZN9ShaderLab11shaderprops9GetTexEnvEPK19ShaderPropertySheetS3_NS_16FastPropertyNameE16TextureDimensionb
vPb:__ZN29RenderNodeQueuePrepareContextC2Ev
n4i:_il2cpp_gc_disable
Ska:__ZN9ShaderLab20SerializedSubProgram16TextureParameter8TransferI24GenerateTypeTreeTransferEEvRT_
Ggd:_DSASignatureDeformatter_SetKey_m2999549245
Nqj:__ZN6il2cpp2os11MutexHandle4WaitEb
jpa:__ZN9GfxDevice19SaveStereoConstantsEv
Mqj:__ZN6il2cpp2os11MutexHandle4WaitEj
fdc:__ZL34GetComponentsImplementationRecurseILb1ELi1ELi1EEbR10GameObjectbRK17CompareParametersRK39GetComponentsImplementation_ReturnValue
XEg:__Z114RuntimeInvoker_Boolean_t97287965_RuntimeObject_RuntimeObject_Int32_t2950945753_Int32_t2950945753_Int32_t2950945753PFvvEPK10MethodInfoPvPS4_
GUd:_AssemblyBuilder_GetTypes_m3415680380
KAa:__ZN6prcoreL17RemapGenericFloatI15TexFormatRGHalf18TexFormatARGBFloatEEvPKNS_9InnerInfoE
PGb:__Z18SimulateMouseInputi
JLb:__ZN13RenderManager23AddRemoveCamerasDelayedEv
isc:__ZN9JSONWrite8TransferI13dynamic_arrayIdLj8EEEEvRT_PKc17TransferMetaFlags
Kpc:__ZN5Unity9rapidjson6WriterI16TempBufferWriterNS0_4UTF8IcEES4_13JSONAllocatorE11WriteUint64Ey
Qod:_BitConverter__cctor_m3841343255
hyf:_Decimal_Compare_m3062820418
Rhf:_IntervalCollection_GetMetaCollection_m4029522214
v$c:_EventTrigger_OnDeselect_m1919608102
mHi:_TextGenerator_get_characterCount_m864136654
pbg:_TimeSpan__ctor_m2047388489_AdjustorThunk
rXb:__ZN13RenderTexture8SetWidthEi
_Gc:_UNITY_FT_GlyphLoader_CheckSubGlyphs
GRb:__Z25SetupObjectBakedOcclusionbRK15SharedLightDataRK26SharedLightmapSettingsDataRK15LightmapIndicesR17ShaderPassContext
gdh:_Collection_1_System_Collections_ICollection_CopyTo_m1516601228_gshared
T4:__ZN9ShaderLab16FastPropertyName4InitEPKc
X2b:__Z13RegisterClassIN2UI13RectTransformEEvv
s6b:__ZL31MeshRendererTransformChangedJobP13BoundsJobDatajPK23TransformAccessReadOnlyPKyj
Duc:__ZN8JSONRead21TransferSTLStyleArrayI31ArrayOfManagedObjectsTransfererEEvRT_17TransferMetaFlags
Ard:_Char_System_IConvertible_ToByte_m2347554595_AdjustorThunk
gZa:__ZN13RenderTexture9SetMipMapEb
urf:_String_CreateString_m860434552
kea:__Z18GetDirectorManagerv
dAe:_Enumerator_System_Collections_IEnumerator_Reset_m278261807_AdjustorThunk
Ojc:__Z38Transform_CUSTOM_INTERNAL_get_rotationP12Il2CppObjectP11Quaternionf
F_i:__ZNK15dense_hashtableINSt3__24pairIK10KeyWrapperINS1_IPK10MethodInfoP11Il2CppClassEEEjEES9_17ReflectionMapHashIS8_EN14dense_hash_mapIS9_jSD_NS9_14EqualsComparerINS0_8equal_toIS8_EEEENS0_9allocatorISB_EEE9SelectKeyESI_SK_E5beginEv
aua:__ZN7ApiGLES19UploadBufferSubDataEjN2gl12BufferTargetEllPKv
wga:__ZNSt3__216__rotate_forwardINS_11__wrap_iterIPN4core12basic_stringIcNS2_20StringStorageDefaultIcEEEEEEEET_S9_S9_S9_
Wyg:_Vector2_GetHashCode_m3916089713
jwg:_SendMouseEvents_HitTestLegacyGUI_m579942228
KQd:_MulticastDelegate_Equals_m2502840627
Tkf:_SymmetricAlgorithm_set_KeySize_m3805756466
Xqd:_Byte_System_IConvertible_ToUInt32_m1049546902_AdjustorThunk
TNg:__Z53RuntimeInvoker_Double_t594665363_Interval_t1802865632PFvvEPK10MethodInfoPvPS4_
VIb:__Z21InitializeBatchedJobsv
mIi:_CanvasGroup_get_blocksRaycasts_m1805542303
Bjf:_SHA1Internal_ProcessBlock_m1991889327
Kpb:__Z19TransferField_ArrayI14SafeBinaryRead27Converter_SimpleNativeClassI8GUIStyleEEvRK23StaticTransferFieldInfoR31RuntimeSerializationCommandInfoRT0_
I$h:_Array_Sort_TisRuntimeObject_TisRuntimeObject_m1685639929_gshared
wqj:__ZN6il2cpp5utils10MemoryPoolC2Ev
PXa:__ZN14RenderSettings5ResetEv
S1b:__ZN6Sprite9BindAtlasERK4PPtrI11SpriteAtlasE
Soc:__ZN5Unity9rapidjson12GenericValueINS0_4UTF8IcEE13JSONAllocatorE10FindMemberIS4_EENS0_21GenericMemberIteratorILb0ES3_S4_EERKNS1_IS3_T_EE
Koe:_InternalEnumerator_1_System_Collections_IEnumerator_get_Current_m3892960115_AdjustorThunk
H9i:__ZNSt3__212basic_stringIDsNS_11char_traitsIDsEENS_9allocatorIDsEEE6appendEPKDsj
xtd:_ArrayList_Clone_m2682741233
khd:_HMAC_HashCore_m3684104066
qpc:__ZN5Unity9rapidjson13GenericReaderINS0_4UTF8IcEES3_13JSONAllocatorE11ParseNumberILj1ENS0_25GenericInsituStringStreamIS3_EENS0_15GenericDocumentIS3_S4_S4_EEEEvRT0_RT1_
ohj:__ZN6il2cpp2os10ThreadImplD2Ev
lqc:__ZN8Gradient8TransferI9JSONWriteEEvRT_
bhb:__ZN21RendererUpdateManager18OncePerFrameUpdateER13RendererScene
_Ai:_AudioSource_set_clip_m31653938
WKa:__ZNK12TLSAllocatorI14StackAllocatorE22GetAllocatedMemorySizeEv
b3:__ZN17RemapPPtrTransfer12PushMetaFlagE17TransferMetaFlags
fXf:_EqualityComparer_1_System_Collections_IEqualityComparer_GetHashCode_m2138064395_gshared
Qkb:__ZN12HandlerChain4NameEv
gDd:_Int16_System_IConvertible_ToType_m3672347013_AdjustorThunk
Fqf:_String_LastIndexOf_m578673845
xrb:__Z29Transfer_Blittable_ArrayFieldI14SafeBinaryReadN4math12int3_storageEEvRT_R9ArrayInfoRK23StaticTransferFieldInfo
Tnf:_SecurityException_ToString_m3228070608
SEd:_Int16_ToString_m2013897809
Vnf:_String_Substring_m2848979100
FRc:__Z44Register_UnityEngine_CanvasRenderer_get_cullv
B3h:_ScriptableObject_CreateInstance_TisRuntimeObject_m1552711675_gshared
iTc:__ZN11UnityEngine7Connect17XRDeviceInfoEvent12XRDeviceInfoD2Ev
Mnb:__Z44InitializeTransferFunctionScriptingTraitsForI17RemapPPtrTransferEvR31TransferFunctionScriptingTraits
E3b:__ZNSt3__26vectorI16MessageForwarder13stl_allocatorIS1_L18MemLabelIdentifier7ELi8EEE6resizeEj
$df:_X509Chain_SelectBestFromCollection_m1068759221
Txi:_SymmetricTransform_TransformBlock_m851059707
glh:__ZL68IntPtr_t_CustomAttributesCacheGenerator_IntPtr_ToPointer_m4157623054P21CustomAttributesCache
cah:_Enumerator_System_Collections_IEnumerator_Reset_m2261065994_AdjustorThunk
lYe:_ScrollRect_get_verticalNormalizedPosition_m3693218937
rgb:__ZN18LoadSceneOperation21MustCompleteNextFrameEv
x_e:_Slider_UpdateDrag_m1102107039
G1d:_MonoMethodInfo_get_method_info_m88651774
bM:__ZNK12AudioManager16GetAudioListenerEv
dFd:_Int32_System_IConvertible_ToDateTime_m1824716955
_dd:_RuntimeTypeHandle__ctor_m3315980708_AdjustorThunk
THi:_Canvas_set_overrideSorting_m4088794420
YWb:__ZNSt3__26vectorI11CameraStackNS_9allocatorIS1_EEE8__appendEj
su:__ZN7mecanim9animation12GetHumanPoseERKNS0_18ClipMuscleConstantEPKNS0_10ValueDeltaERNS_5human9HumanPoseE
iw:__ZN22AnimationMixerPlayable17ProcessRootMotionEP35AnimationPlayableEvaluationConstantP32AnimationPlayableEvaluationInputP33AnimationPlayableEvaluationOutput
Z0:__Z13GetFileSystemv
kba:__ZNK5Unity4Type21FindAllDerivedClassesER13dynamic_arrayIPKS0_Lj4EENS0_17TypeFilterOptionsE
dca:__ZN13RuntimeStaticI15GUIEventManagerLb0EE16StaticInitializeEPv
uhg:_Version_CompareTo_m3146217210
yde:_TlsClientCertificate_FindParentCertificate_m3844441401
Hti:_Uri_ParseAsUnixAbsoluteFilePath_m1476768041
xOf:_Array_InternalArray__ICollection_CopyTo_TisKeyValuePair_2_t71524366_m1056941380_gshared
Jcg:_Type_get_IsClass_m589177581
Vcg:_Type_get_IsSystemType_m624798880
enb:__ZN19ShaderPropertySheet9SetMatrixEN9ShaderLab16FastPropertyNameERK10Matrix4x4fNS_8SetFlagsE
p3a:__Z29GetTextureSizeAllowedMultiple13TextureFormat
$xf:_Decimal_Subtract_m835601464
Xfb:__ZNSt3__26vectorIN4core12basic_stringIcNS1_20StringStorageDefaultIcEEEE13stl_allocatorIS5_L18MemLabelIdentifier13ELi16EEE8__appendEj
Y7b:__ZN21IntermediateRenderers3AddEP20IntermediateRenderer
y3i:_il2cpp_array_element_size
LOd:_MissingMemberException__ctor_m2571045846
Pjh:__ZL62ComVisibleAttribute_t1362837655_CustomAttributesCacheGeneratorP21CustomAttributesCache
cvg:_RectTransform_INTERNAL_set_sizeDelta_m188783163
Wf:_glCheckFramebufferStatus
Tpj:__ZN6il2cpp2os11EventHandle4WaitEv
SU:__ZN19CloudServiceHandler20StartEventDispatcherERKN11UnityEngine15CloudWebService18CloudServiceConfigERNS1_23WebRequestRestHeaderMapE
Mad:_GraphicRaycaster__ctor_m646559428
svd:_BitArrayEnumerator_get_Current_m4220391712
ZSd:__Z37il2cpp_codegen_get_executing_assemblyPK10MethodInfo
Dvg:_Transform_get_parent_m835071599
faf:_IPAddress_get_ScopeId_m4237202723
vr:__ZN4core8hash_mapIN11UnityEngine9Animation14GenericBindingENS2_10BoundIndexENS2_25GenericBindingHashFunctorENS2_30GenericBindingValueArrayUniqueEE4growEi
Ft:__ZN21AnimationClipPlayable7SetTimeEd
Uqi:_ExpressionCollection_get_Item_m3510736379
VUh:__ZL62FontData_t746620069_CustomAttributesCacheGenerator_m_AlignmentP21CustomAttributesCache
o2c:_StandaloneInputModule_get_inputActionsPerSecond_m3946624274
G8f:_UTF8Encoding_InternalGetCharCount_m82458470
jzg:_Vector2__cctor_m2108982652
ur:__ZN4core8hash_mapIN11UnityEngine9Animation14GenericBindingENS2_10BoundIndexENS2_25GenericBindingHashFunctorENS2_30GenericBindingValueArrayUniqueEE4growEv
Yaj:__ZN14dense_hash_mapI10KeyWrapperIP14Il2CppIUnknownEjN6il2cpp5utils11PointerHashIS1_EENS3_14EqualsComparerINSt3__28equal_toIS2_EEEENS9_9allocatorINS9_4pairIKS3_jEEEEE15set_deleted_keyERSF_
xba:__ZN22BuiltinResourceManager16StaticInitializeEPv
j1i:__ZN13Il2CppHashMapIPK14Il2CppAssemblyPK22Il2CppMonoAssemblyNameN6il2cpp5utils11PointerHashIS1_EENSt3__28equal_toIS2_EENSA_9allocatorINSA_4pairIK10KeyWrapperIS2_ES5_EEEEEC2EjRKS9_RKSC_
Xld:_DelegatePInvokeWrapper_AppDomainInitializer_t682969308
e0:__ZN8Remapper6RemoveEi
H5f:_Encoding_GetBytes_m3148649984
wLc:__ZL36CleanupTextRenderingScriptingClassesv
oXb:__ZN15ReflectionProbe17UseRendererResultEP13ProbeRenderer
blc:__Z34Mesh_CUSTOM_SetArrayForChannelImplP12Il2CppObject30InternalScriptingShaderChannel34InternalScriptingVertexChannelTypeiP11Il2CppArrayi
X_:__Z32scripting_class_get_nested_types17ScriptingClassPtrRNSt3__26vectorIS_13stl_allocatorIS_L18MemLabelIdentifier1ELi16EEEE
uIi:_CanvasRenderer_INTERNAL_CALL_EnableRectClipping_m3318097918
Yfg:_UInt64_System_IConvertible_ToDecimal_m806594027_AdjustorThunk
iwe:_Enumerator_System_Collections_IEnumerator_get_Current_m361750367_AdjustorThunk
PLe:_RealProxy_InternalGetTransparentProxy_m1765012608
v0g:_List_1__ctor_m3395838871_gshared
H4h:_Collection_1_IsFixedSize_m3698021882_gshared
Eli:_PKCS12__ctor_m1854440921
k$h:_Array_Resize_TisCustomAttributeNamedArgument_t287865710_m885566878_gshared
VD:__ZN11UnityEngine9Animation28GenericAnimationBindingCache25RegisterIAnimationBindingEPKN5Unity4TypeEiP17IAnimationBinding
JRc:__Z70RectTransformUtility_CUSTOM_INTERNAL_CALL_RectangleContainsScreenPointP12Il2CppObjectRK13Vector2fIcallS0_
VId:_DirectoryInfo__ctor_m481305441
t9:__ZN10MemoryPoolC2E10MemLabelIdbPKciii
QVb:__Z40ProcessCameraIndexListIsNodeVisibleInOutRK22SceneCullingParametersPK9SceneNodePK4AABBR9IndexList
Owi:_GUIScrollGroup_SetHorizontal_m291416666
vVa:__ZN16GraphicsSettings8TransferI17RemapPPtrTransferEEvRT_
jPc:__ZN2UI6Canvas13UpdateBatchesEb
Xbf:_X509BasicConstraintsExtension_Decode_m120598446
oz:__ZNK23AnimationPlayableOutput11DerivesFromE17ScriptingClassPtr
HPh:__ZL64EventType_t3528516131_CustomAttributesCacheGenerator_dragUpdatedP21CustomAttributesCache
AUc:__ZN11UnityEngine7Connect13ConfigHandler12GetListenersERKN4core12basic_stringIcNS2_20StringStorageDefaultIcEEEE
Gqa:__ZN9GfxDevice18AllocRenderSurfaceEb
srd:_Char__cctor_m2787437263
L1b:__ZN10TagManager32GetSortingLayerUniqueIDFromValueEi
D3c:_AspectRatioFitter_get_rectTransform_m2996235303
K_:__ZL27CleanupCoreScriptingClassesv
Jad:_Graphic_UnregisterDirtyMaterialCallback_m2707090617
nve:_Comparer_1_System_Collections_IComparer_Compare_m1313384821_gshared
Shc:__Z26AnimationCurve_CUSTOM_InitP12Il2CppObjectP11Il2CppArray
mHj:_glUniform1uiv__wrapper
W0i:__ZN6il2cpp2vm10Reflection7IsEventEP12Il2CppObject
xZ:__ZN17PersistentManager26GetStreamNameSpaceInternalEi
ZF:__ZN4FMOD6System11createSoundEPKcjP22FMOD_CREATESOUNDEXINFOPPNS_5SoundE
Xn:FUNCTION_TABLE_iiifiiii
txc:__ZN13SpeedTreeWind20AdvanceWithoutUpdateEd
vtf:_DateTime_System_IConvertible_ToDecimal_m1044850612
Y9:__ZN9ShaderLab19CommonPropertyNames13StaticCleanupEPv
y$:__Z31scripting_method_get_returntype18ScriptingMethodPtr
K4a:__ZN15SerializeTraitsI12LightmapDataE8TransferI24GenerateTypeTreeTransferEEvRS0_RT_
omf:_SecurityElement_AddAttribute_m311510562
LDj:_glStencilOpSeparate__wrapper
Iac:__ZN4Mesh5SetUvEiPKfjj
L5a:__ZN7Texture13SetAnisoLimitENS_20AnisotropicFilteringE
ZN:__ZN11AudioModule16SetListenerPauseEb
God:_Attribute_IsDefined_m4069052474
Qh:_emscripten_glCompressedTexSubImage2D
qDa:__ZN13GfxDeviceGLES22MemoryBarrierImmediateEyN2gl17MemoryBarrierTypeE
YAa:__ZN6prcoreL26RemapGenericFloatToIntegerI18TexFormatARGBFloat17TexFormatARGB8888EEvPKNS_9InnerInfoE
R8g:_List_1_set_Capacity_m1977188119_gshared
$cc:__Z46GetShaderModelNumericValueFromRequirementsMask18ShaderRequirements
fBc:_cff_ps_has_glyph_names
mTf:_Dictionary_2_Resize_m3287623642_gshared
wmj:_GC_write
fid:_RC2_Create_m2516417038
tad:_Graphic_OnPopulateMesh_m767318148
NCe:_Dictionary_2_Remove_m4193450060_gshared
OGd:_Int64_TryParse_m3606398488
k_h:_Array_InternalArray__set_Item_TisMark_t3471605523_m1299772331_gshared
Eoc:__Z44Register_UnityEngine_GUIStyle_SetDefaultFontv
Jxb:__Z18Transfer_BlittableI18StreamedBinaryReadILb1EELb1EiEvRK29SerializationCommandArgumentsR31RuntimeSerializationCommandInfo
RA:__ZN9BlobWrite8TransferI22OffsetPtrArrayTransferIKN4math7_float3EEEEvRT_PKc17TransferMetaFlags
bFg:__Z173RuntimeInvoker_Int32_t2950945753_RuntimeObject_Int32_t2950945753_Int32_t2950945753_Int32_t2950945753_RuntimeObject_Int32_t2950945753_SByte_t1669577662_ContextU26_t3937453398PFvvEPK10MethodInfoPvPS4_
p2g:_List_1__ctor_m2576108087_gshared
K$i:__ZN15dense_hashtableINSt3__24pairIK10KeyWrapperINS1_IPK12PropertyInfoP11Il2CppClassEEEjEES9_17ReflectionMapHashIS8_EN14dense_hash_mapIS9_jSD_NS9_14EqualsComparerINS0_8equal_toIS8_EEEENS0_9allocatorISB_EEE9SelectKeyESI_SK_E12maybe_shrinkEv
$li:_X509Certificate_get_DSA_m565099499
iyb:__Z18Transfer_BlittableI18StreamedBinaryReadILb1EELb1EsEvRK29SerializationCommandArgumentsR31RuntimeSerializationCommandInfo
Y6f:_StringBuilder_Remove_m940064945
$fd:_DESCryptoServiceProvider_GenerateIV_m683687014
jse:_InternalEnumerator_1_get_Current_m3792939945_gshared
NSc:__ZN22BaseUnityConnectClient17OnEnterStateReadyEv
n$e:_Text_get_fontSize_m1677872538
ugd:_DSACryptoServiceProvider_get_PublicOnly_m3933928860
KTa:__ZN14GrowableBufferD2Ev
ghc:__Z29Input_CUSTOM_GetMouseButtonUpi
xDd:_Int16_Parse_m138525169
RUi:__ZN6il2cpp6icalls8mscorlib6System8MonoType16InternalGetEventEP20Il2CppReflectionTypeP12Il2CppStringi
zui:_UriScheme_t722425697_marshal_pinvoke_back
ZCc:_UNITY_tt_face_load_maxp
vhc:__Z46Input_CUSTOM_INTERNAL_set_compositionCursorPosRK13Vector2fIcall
yt:__ZN7mecanim5human12FullBodyMaskEv
m2e:_BigInteger_ToString_m3475000413
Ybb:__ZN19ShaderPropertySheet11ComputeHashEv
cPi:__ZN30dense_hashtable_const_iteratorI10KeyWrapperIPK19Il2CppGenericMethodES4_N6il2cpp8metadata23Il2CppGenericMethodHashEN14dense_hash_setIS4_S7_NS4_14EqualsComparerINS6_26Il2CppGenericMethodCompareEEENSt3__29allocatorIS4_EEE8IdentityESB_SE_EppEv
nT:__ZN11UnityEngine15CloudWebService20WebRequestRestClient6IsDoneEv
yki:_X509CertificateCollection_get_Item_m1033426577
Ni:_llvm_fabs_f32
SS:__ZN11UnityEngine15CloudWebService16SessionContainer16GetJsonDataBlockEjRKN4core12basic_stringIcNS2_20StringStorageDefaultIcEEEERS6_PjSA_
D3e:_ASN1_Decode_m1695284166
GBf:_Enum_ToString_m3248653065
NZ:__ZN14SafeBinaryReadD2Ev
Q2b:__Z13RegisterClassI7TextureEvv
R1f:_Enumerator_MoveNext_m3859993671_gshared
yzb:__ZN8Gradient8TransferI18StreamedBinaryReadILb1EEEEvRT_
Iff:_Capture__ctor_m3103117740
N7a:__ZN4core8hash_mapINS_12basic_stringIcNS_20StringStorageDefaultIcEEEE13dynamic_arrayI4PPtrI6SpriteELj4EENS_4hashIS4_EENSt3__28equal_toIS4_EEEixERKS4_
$Dg:__Z113RuntimeInvoker_Void_t1185182177_RuntimeObject_Int64_t3736567304_RuntimeObject_Int64_t3736567304_Int64_t3736567304PFvvEPK10MethodInfoPvPS4_
gtg:_RangeInt_get_end_m4128831787_AdjustorThunk
uaj:__ZN6il2cpp6icalls8mscorlib6System4Type15MakeGenericTypeEP20Il2CppReflectionTypeP11Il2CppArray
nj:_SDL_PauseAudio
gxd:_Hashtable_Clone_m3078962909
V3i:_il2cpp_class_from_type
TVi:__ZN6il2cpp2os4File11GetStdErrorEv
X9:__ZN9ShaderLab19CommonPropertyNames16StaticInitializeEPv
WC:__ZN7mecanim9animation18CreateAvatarOutputEPKNS0_14AvatarConstantEbbRNS_6memory9AllocatorE
Umd:_Array_GetLongLength_m561139708
d_e:_Slider_set_maxValue_m2251404465
VL:__ZN11AudioSource23VirtualRedirectTransferER24GenerateTypeTreeTransfer
sac:__ZN7Texture11SetWrapModeE15TextureWrapMode
i8a:__ZN14Texture2DArray23VirtualRedirectTransferER14SafeBinaryRead
OOd:_MissingMemberException__ctor_m1220732369
YQb:__ZNK6Camera21CalculateCanDoShadowsEv
cig:_Application_InvokeOnBeforeRender_m2875673833
Zgj:__ZN6il2cpp2os6Thread12SetStackSizeEj
PUe:_MaskableGraphic_RecalculateMasking_m183336762
G2h:_Array_InternalArray__get_Item_TisRuntimeObject_m3347010206_gshared
I_d:_TypeBuilder_IsSubclassOf_m3458909121
nac:__ZNK8Renderer16IsVisibleInSceneEv
lZ:__Z13VFormatBufferPciPKcz
EAb:__Z18Transfer_BlittableI18StreamedBinaryReadILb0EELb1EhEvRK29SerializationCommandArgumentsR31RuntimeSerializationCommandInfo
Ejd:_X509Certificate__cctor_m198658613
esg:_PlayableHandle_Equals_m1666612586_AdjustorThunk
aBa:__ZN6prcoreL27StretchGenericFloatBilinearI15TexFormatRFloatEEvPKNS_9InnerInfoE
QDh:__ZL139ServicePointManager_t170559685_CustomAttributesCacheGenerator_ServicePointManager_t170559685____CheckCertificateRevocationList_PropertyInfoP21CustomAttributesCache
SBf:_Enum_ToObject_m1628250250
lw:__Z24ProcessAnimationMixBeginP35AnimationPlayableEvaluationConstantP32AnimationPlayableEvaluationInputP33AnimationPlayableEvaluationOutput
_6g:_List_1_set_Item_m2057272351_gshared
dya:__Z14PadImageBorderR14ImageReferenceii
k_i:__ZN15dense_hashtableINSt3__24pairIK10KeyWrapperINS1_IPK10MethodInfoP11Il2CppClassEEEjEES9_17ReflectionMapHashIS8_EN14dense_hash_mapIS9_jSD_NS9_14EqualsComparerINS0_8equal_toIS8_EEEENS0_9allocatorISB_EEE9SelectKeyESI_SK_E4findERSA_
mSi:__ZN6il2cpp2vm13MetadataCache28GetFieldDefaultValueForFieldEPK9FieldInfo
SLf:_Array_IndexOf_TisUIVertex_t4057497605_m3336763564_gshared
Pw:__ZN27AnimationLayerMixerPlayableD2Ev
W5c:_ColorBlock_Equals_m518833916_AdjustorThunk
zLh:__ZL66PersistentCall_t3407714124_CustomAttributesCacheGenerator_m_TargetP21CustomAttributesCache
eI:__ZN12AudioManager39HandlePendingAudioConfigurationCallbackEv
kk:_emscripten_glIsFramebuffer
d6e:_RSAManaged_EncryptValue_m799827583
T1:__ZN12_GLOBAL__N_16qAtan2Eff
ok:_JS_Sound_SetLoopPoints
Jca:__ZN15dense_hashtableINSt3__24pairIKyP17VertexDeclarationEEy14GfxGenericHashIyEN14GfxDoubleCacheIyS4_S7_NS0_8equal_toIyEEN31GfxDoubleCacheConcurrencyPolicy11LocklessGetE42GfxDoubleCacheDefaultEmptyDeletedGeneratorIyEE9SelectKeyESA_13stl_allocatorIS5_L18MemLabelIdentifier24ELi16EEE14squash_deletedEv
hN:__ZN12AudioManager17ShouldSourcePauseEb
Xqj:__ZN6il2cpp2vm26MetadataAllocGenericMethodEv
PIf:_Array_InternalArray__ICollection_Remove_TisUInt16_t2177724958_m1766181761_gshared
bHa:__ZN19ConstantBuffersGLES12RecordRenderEv
bsc:__ZN9JSONWrite8TransferI10RectOffsetEEvRT_PKc17TransferMetaFlags
Kxa:__ZN4crnd12symbol_codec11decode_bitsEj
$yc:_cf2_doFlex
kyi:_AesManaged_GenerateIV_m1368817386
LRa:__ZN13dynamic_arrayI17SortingLayerEntryLj4EE6insertEPS0_jRKS0_
iI:__ZN4FMOD6System12createReverbEPPNS_6ReverbE
akj:__ZN6il2cpp2vm6String21InitializeEmptyStringEP11Il2CppClass
Gw:__ZN7mecanim19ValueArrayBlendNodeILb1EEEvRKNS_10ValueArrayERKNS_14ValueArrayMaskERS1_RS4_RNS_16ValueArrayWeightEf
yib:__Z16MarkDependenciesR27GarbageCollectorThreadStatej
pji:_ObjectPool_1_get_countInactive_m526975942_gshared
GLe:_RemotingServices_DisposeIdentity_m2605848806
d2:__ZNK9Transform11GetPositionEv
bjg:_Bounds_set_size_m4127623202
yCd:_GuidParser_Reset_m2640004655
yWa:__ZN23SharedMeshRenderingData18UnloadVertexStreamEi
X7b:__ZN31CanvasBatchIntermediateRenderer11AddSubBatchERK16DrawBuffersRangePK19ShaderPropertySheet
F6b:__ZN19RenderEventsContextC2Ei
cR:__Z6simd4fRKf
Sk:_emscripten_glEnable
Gme:_InternalEnumerator_1_System_Collections_IEnumerator_get_Current_m2982675020_gshared
ERa:__ZN10TagManager23VirtualRedirectTransferER14SafeBinaryRead
zWh:__ZL51RawImage_t3182918964_CustomAttributesCacheGeneratorP21CustomAttributesCache
HTb:__Z15InitLightMeshesv
p0d:_MonoCMethod_ToString_m3992577062
An:FUNCTION_TABLE_iifiii
G5a:__ZN15QualitySettings8TransferI19StreamedBinaryWriteILb0EEEEvRT_
YTe:_LayoutUtility_U3CGetFlexibleHeightU3Em__7_m2991026842
Dyc:_cf2_arrstack_init
P2h:_Array_InternalArray__get_Item_TisResourceCacheItem_t51292791_m1306056717_gshared
NRg:__Z157RuntimeInvoker_Void_t1185182177_RuntimeObject_RuntimeObject_RuntimeObject_RuntimeObject_RuntimeObject_RuntimeObject_RuntimeObject_RuntimeObject_RuntimeObjectPFvvEPK10MethodInfoPvPS4_
bX:__Z15CleanLogHandler7LogTypePKcz
qRd:_NumberFormatter_NumberToString_m2481532188
zla:__ZN9ShaderLab19SerializedSubShader8TransferI19StreamedBinaryWriteILb0EEEEvRT_
oYe:_ScrollRect_InternalGetBounds_m599803667
WDb:__ZN6Camera17RemoveImageFilterERK11ImageFilter
ena:__ZNSt3__218__insertion_sort_3IR25ValueParameterArraySorterPN20GpuProgramParameters14ValueParameterEEEvT0_S6_T_
EDh:__ZL67EditorBrowsableAttribute_t1475454531_CustomAttributesCacheGeneratorP21CustomAttributesCache
lwd:_Comparer__cctor_m3311686689
ime:_InternalEnumerator_1_get_Current_m3500427238_AdjustorThunk
RPc:__ZN2UI26InitializeDeviceForOverlayEi
Y8:__Z27LogRepeatingStringWithFlagsRKN4core12basic_stringIcNS_20StringStorageDefaultIcEEEE15LogMessageFlagsi
hgg:_UInt64_System_IConvertible_ToSingle_m925613075
TBf:_Enum_IsDefined_m1442314461
U9f:_Thread__cctor_m817723615
bAi:_AudioExtensionManager_RegisterBuiltinDefinitions_m2742744104
Zt:__ZN17AnimationPlayable28ComputeNeedsBindingRebuildedEv
et:__ZN17AnimationPlayable23RequestAllocateBindingsEv
Asf:_DecoderReplacementFallbackBuffer_Fallback_m1261056214
BTd:_Binder_get_DefaultBinder_m950908649
lJd:_StreamReader__ctor_m1616861391
sVc:__ZN18UnityConnectClient33OnPlayerSessionStateChangedStaticEPS_jyy
Kif:_RSA_ToXmlString_m2922661427
ZT:__ZNK11UnityEngine15CloudWebService23WebRequestUploadHandler11GetProgressEv
Kua:__ZN7ApiGLES4LoadE16GfxDeviceLevelGL
X4a:__ZN18StreamedBinaryReadILb0EE21TransferSTLStyleArrayI13dynamic_arrayI31EnlightenSystemAtlasInformationLj8EEEEvRT_17TransferMetaFlags
Mdj:__ZN15dense_hashtableI10KeyWrapperIP18Il2CppGenericClassES3_N6il2cpp8metadata22Il2CppGenericClassHashEN14dense_hash_setIS3_S6_NS3_14EqualsComparerINS5_25Il2CppGenericClassCompareEEENSt3__29allocatorIS3_EEE8IdentityESA_SD_E15insert_noresizeERKS3_
M5b:__ZZL31RegisterOtherRendererPropertiesR22GenericPropertyBindingEN30Wrapper_RendererReceiveShadows13GetFloatValueEPv
lHf:_Array_InternalArray__ICollection_Contains_TisSlot_t384495010_m688761886_gshared
o3a:__ZN17SharedTextureDataC2E10MemLabelIdii13TextureFormatjiibb
DTg:__Z114RuntimeInvoker_RuntimeObject_RuntimeObject_Int32_t2950945753_Int32_t2950945753_Int32_t2950945753_Int32_t2950945753PFvvEPK10MethodInfoPvPS4_
bHb:__ZN8Material11SetPassFastEPN9ShaderLab4PassER17ShaderPassContextP6Shaderib
qVc:__ZN11UnityEngine7Connect20BasePersistentValues10SaveValuesER9JSONWrite
shh:_Collection_1_IsFixedSize_m3748602684_gshared
xtf:_DateTime_System_IConvertible_ToDouble_m2116720007
Slg:_Display_GetSystemExtImpl_m2808197389
gbg:_WaitHandle_WaitOne_m2577152516
rjd:_X509Certificate_PEM_m1177570576
Phe:_ArrayReadOnlyList_1_GetEnumerator_m1835926958_gshared
vbc:__Z14ScaleCurveTimeR17AnimationCurveTplIfEf
jca:__ZN22VirtualJoystickManagerC2Ev
Lba:__ZN20GlobalCachingManager7DisposeEv
WNb:__Z12SetupLODFadeR9GfxDeviceR17ShaderPassContextf
g1a:__ZNK14PlayableOutput7GetTypeEv
uTb:__ZL24CollectForwardObjectsJobP27CollectForwardObjectsHeader
pVb:__Z13IsNodeVisibleRK9SceneNodeRK4AABBRK22SceneCullingParameters
uMf:_Array_InternalArray__IndexOf_TisLabelFixup_t858502054_m1491765395_gshared
$0e:_SortKeyBuffer_AppendCJKExtension_m2591091991
LRc:__Z57RectTransformUtility_CUSTOM_INTERNAL_CALL_PixelAdjustRectP12Il2CppObjectS0_R5RectTIfE
A8f:_UTF8Encoding_GetByteCount_m4153686982
pWb:__Z24ScheduleCullingAllGroupsR8JobFenceRK22SceneCullingParametersiRK13CullingOutputRK13dynamic_arrayIP12CullingGroupLj4EERKS_
iJj:_emscripten_glStencilMask__wrapper
QCg:__Z49RuntimeInvoker_Void_t1185182177_Double_t594665363PFvvEPK10MethodInfoPvPS4_
UOi:__ZN15dense_hashtableI10KeyWrapperIPK19Il2CppGenericMethodES4_N6il2cpp8metadata23Il2CppGenericMethodHashEN14dense_hash_setIS4_S7_NS4_14EqualsComparerINS6_26Il2CppGenericMethodCompareEEENSt3__29allocatorIS4_EEE8IdentityESB_SE_EC2ERKSH_j
ETa:__ZN15RenderNodeQueue7CleanupEv
$1d:_MonoProperty_CreateGetterDelegate_m2478402519
Ewc:__ZN16NovodexAllocator8allocateEjPKcS1_i
_$a:__ZN39DeprecatedFastPropertyNameSerialization8TransferI14SafeBinaryReadEEvRT_
Sli:_DeriveBytes_DeriveIV_m973925711
oFd:_Int32_System_IConvertible_ToSByte_m3133688512
rTb:__ZN9ShaderLab10GrabPassesD2Ev
xYe:_ScrollRect_CalculateOffset_m927043599
t8a:__ZN14Texture2DArray13UploadTextureEv
zUe:_MaskableGraphic_UpdateCull_m2805101913
GDc:_tt_cmap14_done
ugb:__ZN18AwakeFromLoadQueue25RegisterObjectInstanceIDsEv
Uw:__ZNK27AnimationLayerMixerPlayable11DerivesFromE17ScriptingClassPtr
SJc:__ZN20TextRenderingPrivate19NativeTextGenerator15InsertCharacterEiPj
PPd:_MonoType_get_attributes_m1332507727
bwi:_GUIContent_ClearStaticCache_m1205116045
NMe:_BinaryCommon__cctor_m2978407547
yrd:_Char_System_IConvertible_ToByte_m2347554595
zLc:__ZN20TextRenderingPrivate15DynamicFontData21GetFontMetricsForFaceERK13dynamic_arrayIN4core17string_with_labelILi35EEELj4EEiRKS1_I4PPtrIN13TextRendering4FontEELj4EEPfSF_
Zhi:_IndexedSet_1__ctor_m2250384602_gshared
Leg:_UInt16_TryParse_m4139137016
Lij:__ZN6il2cpp2gc16GarbageCollector9FreeFixedEPv
u5f:_Encoding__ctor_m2997749867
Yog:_ManagedStreamHelpers_ManagedStreamSeek_m3158782053
Lsi:_ExpressionAssertion_Compile_m2166597834
nDb:__ZN16ScriptingManagerD0Ev
Iof:_Single_System_IConvertible_ToSByte_m1208276900_AdjustorThunk
rlj:__ZN6il2cpp6icalls8mscorlib6System7Convert24InternalFromBase64StringEP12Il2CppStringb
qcj:__ZN30dense_hashtable_const_iteratorINSt3__24pairIK10KeyWrapperINS1_IPKcS4_EEEiEES6_24NamespaceAndNamePairHashN14dense_hash_mapIS6_iS9_NS6_14EqualsComparerI26NamespaceAndNamePairEqualsEENS0_9allocatorIS8_EEE9SelectKeyESD_SF_EppEv
Hfc:__Z44Register_UnityEngine_Component_get_transformv
VB:__ZN12_GLOBAL__N_120ProcessPlayableGraphERN8Animator11AnimatorJobER35AnimationPlayableEvaluationConstantR32AnimationPlayableEvaluationInputR33AnimationPlayableEvaluationOutputPFvS4_R17AnimationPlayableEPFvS4_S6_S8_EPFvS8_S4_S6_S8_fESE_MS9_FvPS3_PS5_PS7_E
PIi:_CanvasRenderer_get_absoluteDepth_m2703237819
_Ff:_TextInfo_ToLower_m2744057472
_Jb:__ZN17ArchiveFileSystem12MountArchiveEPKcS1_
BYf:_EqualityComparer_1_System_Collections_IEqualityComparer_Equals_m3977314386_gshared
grc:__Z18Transfer_BlittableI9JSONWriteLb1E8Vector4fEvRK29SerializationCommandArgumentsR31RuntimeSerializationCommandInfo
wn:FUNCTION_TABLE_viififiii
fDf:_CCGregorianCalendar_year_from_fixed_m463929682
XNc:__ZN2UI13CanvasManagerD0Ev
HX:__ZThn32_NK8Renderer14GetSubsetIndexEi
rlg:_Debug_get_unityLogger_m2239795986
U7d:_MD2Managed_Initialize_m2341076836
vai:_ReadOnlyCollection_1_System_Collections_IList_Add_m4240023232_gshared
zra:__ZN9GfxDevice15ImmediateVertexEfff
z2b:__Z13RegisterClassI8MaterialEvv
g4a:__ZNK16LightmapSettings22GetTypeVirtualInternalEv
Roa:__ZN13GfxDeviceGLES15SetStencilStateEPK18DeviceStencilStatei
mqd:_Buffer_BlockCopyInternal_m418318694
tvj:_cycle
hlj:__ZN6il2cpp2vm8Profiler7GCEventE13Il2CppGCEvent
BEg:__Z76RuntimeInvoker_Void_t1185182177_RuntimeObject_RuntimeFieldHandle_t1871169219PFvvEPK10MethodInfoPvPS4_
Dd:_emscripten_glUniform1iv
qag:_Thread_get_ManagedThreadId_m1068113671
kmb:__ZN16MemoryFileSystemD2Ev
SEg:__Z150RuntimeInvoker_Int32_t2950945753_RuntimeObject_Int32_t2950945753_Int32_t2950945753_RuntimeObject_Int32_t2950945753_Int32_t2950945753_Int32_t2950945753PFvvEPK10MethodInfoPvPS4_
Tod:_BitConverter_DoubleToInt64Bits_m3574395137
$uf:_DateTime_Parse_m3729096069
u2g:_List_1_System_Collections_IList_Add_m1540114404_gshared
pfc:__Z37Register_UnityEngine_Camera_get_depthv
VMd:_StringReader_Read_m3322058819
SEe:_CrossAppDomainChannel_get_ChannelPriority_m3418073750
vRe:_Selectable_StartColorTween_m3618813981
m_c:_BaseInputModule_HandlePointerExitAndEnter_m1705532066
M$b:__Z23ConvertIntegerToTypePtrItEbPvR14SafeBinaryRead
Fzf:_Delegate_CombineImpl_m3572135514
_Dd:_NumberFormatter_IntegerToString_m1679294587
N7h:_ReadOnlyCollection_1_System_Collections_IList_RemoveAt_m422909114_gshared
AC:__ZN7mecanim5human29HumanGetGoalOrientationOffsetENS0_4GoalE
Ud:_emscripten_glStencilFunc
_1c:__Z46il2cpp_codegen_get_marshal_directive_exceptionPKc
_Oe:_InputField_get_isFocused_m709836844
$d:_glGetActiveUniformBlockName
Kf:_emscripten_glUniform1fv
Nhc:__Z39Quaternion_CUSTOM_INTERNAL_CALL_InverseRK11QuaternionfRS_
dJ:__ZN4FMOD7Channel20set3DConeOrientationEP11FMOD_VECTOR
nn:FUNCTION_TABLE_iiifii
FUd:_AssemblyBuilder_not_supported_m1735277432
Sfj:__ZN6il2cpp2vm12GenericClass11SetupEventsEP11Il2CppClass
EGc:_tt_delta_interpolate
cEc:_tt_cmap12_get_info
Abj:__ZN6il2cpp2vm15ReboxIReferenceEP14Il2CppIUnknownP11Il2CppClass
iKi:__ZN6il2cpp6icalls8mscorlib6System7Decimal14decimalCompareEP19il2cpp_decimal_reprS5_
MCe:_Dictionary_2_OnDeserialization_m4209543208_gshared
Olj:__ZThn4_N6il2cpp2vm13CachedCCWBaseINS0_13ManagedObjectEE7ReleaseEv
Png:_GameObject_AddComponent_m136524825
Auh:__ZL62SoapMethodAttribute_t1935009310_CustomAttributesCacheGeneratorP21CustomAttributesCache
gOg:__Z100RuntimeInvoker_Void_t1185182177_RuntimeObject_Int32_t2950945753_Int32_t2950945753_UInt16_t2177724958PFvvEPK10MethodInfoPvPS4_
mGj:_glCopyTexImage2D__wrapper
LAf:_Double_System_IConvertible_ToUInt32_m271206838
N7:__GLOBAL__sub_I_runtime_graphics_billboard_0_cpp
mHb:__Z18ClearByDrawingQuad13GfxClearFlagsRK10ColorRGBAffjR17ShaderPassContext
zAa:__ZN6prcoreL17RemapGenericFloatI14TexFormatRHalf15TexFormatRFloatEEvPKNS_9InnerInfoE
Kzc:_cf2_getBlueValues
LNb:__Z16ShouldUseShadowsb
gea:__ZN15DirectorManager21RebuildStageCallbacksEv
zHb:__ZN19RuntimeSceneManager9LoadSceneERKN4core12basic_stringIcNS0_20StringStorageDefaultIcEEEES6_S6_RK9UnityGUIDiNS_11LoadingModeE
Rta:__ZN7ApiGLES10DrawArraysE16GfxPrimitiveTypejjj
AG:__ZN10SampleClip13LoadBaseSoundEv
Gkd:_SmallXmlParser_SkipWhitespaces_m4243606597
VDf:_CompareInfo_IndexOf_m2631915198
lVd:_ConstructorBuilder_GetCustomAttributes_m2495332786
$qd:_Byte_CompareTo_m4285128861
F$c:_TriggerEvent__ctor_m87299207
jQ:__Z57AudioSource_CUSTOM_INTERNAL_CALL_ClearExtensionPropertiesP12Il2CppObjectRK12PropertyName
efj:__ZN15dense_hashtableINSt3__24pairIK10KeyWrapperIP12Il2CppObjectEN6il2cpp2gc9CachedCCWEEES5_NS7_5utils11PointerHashIS3_EEN14dense_hash_mapIS5_S9_SD_NS5_14EqualsComparerINS0_8equal_toIS4_EEEENS0_9allocatorISA_EEE9SelectKeyESI_SK_E15insert_noresizeERKSA_
Tca:__ZL50StaticRegisterSceneLoadedCallback_LightmapSettingsPv
c1a:__ZN22DeviceMVPMatricesStateC2ER9GfxDevice
Zm:FUNCTION_TABLE_iifii
Bvd:_Comparer_Compare_m3984347512
n4a:__ZN21EnlightenSceneMapping8TransferI14SafeBinaryReadEEvRT_
j3i:__ZN6il2cpp2vm10Reflection12HasAttributeEP9FieldInfoP11Il2CppClass
Mm:FUNCTION_TABLE_iiffi
hc:invoke_viiifi
_1d:_MonoProperty_GetCustomAttributes_m3619796755
IJe:_MethodDictionary_System_Collections_IEnumerable_GetEnumerator_m4169036899
ZLa:__ZNK11AssetBundle14GetPreloadDataEiR13dynamic_arrayIiLj4EE
kif:_RIPEMD160Managed_JJJ_m4161373884
OTf:_DefaultComparer_Equals_m3257444875_gshared
jf:_JS_Sound_SetPosition
YYa:__ZN19RenderBufferManager13GetTempBufferEii17DepthBufferFormat19RenderTextureFormatj22RenderTextureReadWrite14VRTextureUsagei23RenderTextureMemoryless
ORi:__ZL13GetSharedInstPK17Il2CppGenericInst
VSc:__ZN22BaseUnityConnectClient17SaveSessionValuesEv
lke:_InternalEnumerator_1_get_Current_m476140818_gshared
xTb:__Z24SetupActiveLightsContextR21ActiveLightingContextRK12ActiveLightsRK11CullResultsP14ShadowMapCacheRK10MinMaxAABB
Wic:__Z38Sprite_CUSTOM_INTERNAL_get_textureRectP12Il2CppObjectP5RectTIfE
X1i:__ZNK15dense_hashtableINSt3__24pairIK10KeyWrapperIPK22Il2CppGenericParameterEPK24MonoGenericParameterInfoEES6_N6il2cpp5utils11PointerHashIS4_EEN14dense_hash_mapIS6_SA_SF_NS6_14EqualsComparerINS0_8equal_toIS5_EEEENS0_9allocatorISB_EEE9SelectKeyESK_SM_E3endEv
Ycc:__ZN9TextAsset7SetTextERKN4core12basic_stringIcNS0_20StringStorageDefaultIcEEEE
BSa:__ZN6Camera8TransferI24GenerateTypeTreeTransferEEvRT_
Ha:invoke_iiiiiiif
Ea:invoke_iiiiiiii
DQf:_Array_InternalArray__set_Item_TisByte_t1134296376_m3104140039_gshared
sug:_Rect_ToString_m447614148
umi:_PKCS12_GetBytes_m415958948
PWb:__ZN8Renderer17PendingAddToSceneEv
gKj:b122
jKj:b125
iKj:b124
qKj:b127
lKj:b126
vKj:b129
nic:__Z52Register_UnityEngine_RectTransform_INTERNAL_get_rectv
jqg:_Mesh_SetSizedArrayForChannel_m2565120436
w_:__Z21PostprocessStacktracePKcRN4core12basic_stringIcNS1_20StringStorageDefaultIcEEEE
Zog:_ManagedStreamHelpers_ManagedStreamLength_m2930872960
peb:__ZN18StreamedBinaryReadILb0EE21TransferSTLStyleArrayI13dynamic_arrayI16SplashScreenLogoLj4EEEEvRT_17TransferMetaFlags
eli:_BasicConstraintsExtension_Encode_m2009213240
Afc:__Z47Register_UnityEngine_Camera_get_allCamerasCountv
f5c:___clang_call_terminate
YSc:__ZN22BaseUnityConnectClient20StartEventDispatcherEv
Nac:__ZNSt3__26vectorIj13stl_allocatorIjL18MemLabelIdentifier1ELi16EEE6assignIPKtEENS_9enable_ifIXaasr21__is_forward_iteratorIT_EE5valuesr16is_constructibleIjNS_15iterator_traitsIS9_E9referenceEEE5valueEvE4typeES9_S9_
lB:__ZN7mecanim9animation16EvaluateAvatarIKEPKNS0_14AvatarConstantEPKNS0_11AvatarInputEPNS0_12AvatarOutputEPNS0_12AvatarMemoryEPNS0_15AvatarWorkspaceEb
fCa:__ZL25ProgramUniformMatrix4x3fvPK7ApiGLESjiihPKv
kLb:__ZN12InputManager13InputEndFrameEv
yqg:_Object_get_name_m4211327027
X6i:__ZN6il2cpp2vm6Thread5SetupEP12Il2CppThread
Mxe:_Enumerator_System_Collections_IDictionaryEnumerator_get_Key_m2500634048_gshared
ywj:___munmap
ag:_localtime_r
qMb:__ZN22RenderingCommandBuffer13GetAndCheckRTE24BuiltinRenderTextureTypeRKN9ShaderLab16FastPropertyNameEPKcPP13RenderTexture
Ica:__ZN14GfxDoubleCacheIyP17VertexDeclaration14GfxGenericHashIyENSt3__28equal_toIyEEN31GfxDoubleCacheConcurrencyPolicy11LocklessGetE42GfxDoubleCacheDefaultEmptyDeletedGeneratorIyEEC2Ev
SW:__Z19free_alloc_internalPv10MemLabelId
a8f:_UTF32Decoder_GetChars_m1925558948
dg:_strftime
YEa:__ZN7Texture33SetStoredColorSpaceNoDirtyNoApplyE17TextureColorSpace
N3d:_ResourceSet__ctor_m3618395942
Hxf:_Decimal_System_IConvertible_ToDouble_m3125524987_AdjustorThunk
x1:__ZN12FileAccessorD2Ev
LWa:__ZN14VertexDataInfoC2Ev
vij:__ZN6il2cpp2gc16GarbageCollector14CollectALittleEv
w8b:__ZNK9HPlayable15GetPlayableTypeEv
Xyb:__ZL17Transfer_GUIStyleI18StreamedBinaryReadILb1EELb1EEvRK29SerializationCommandArgumentsR31RuntimeSerializationCommandInfo
LVe:_RectMask2D_IsRaycastLocationValid_m1652308696
HUi:__ZN6il2cpp6icalls8mscorlib6SystemL9IsPrivateEPK12PropertyInfo
Dmi:_X501_ToString_m1148552872
hvg:_RectTransform_add_reapplyDrivenProperties_m1374850920
V9:__ZN9shadertag10InitializeEv
YNb:__ZN13BatchRenderer20RenderSingleWithPassER17ShaderPassContextPK18SharedMaterialDataP6ShaderPN9ShaderLab4PassEiPKNS7_10GrabPassesEjib15BatchBreakCause
D5a:__ZN15QualitySettings14QualitySetting8TransferI24GenerateTypeTreeTransferEEvRT_
Dkc:__Z44Register_UnityEngine_Object_DestroyImmediatev
EBd:_Convert_ToSingle_m835189399
O9b:__ZN22BlockMemoryCacheWriter14LockCacheBlockEjPPhS1_
Suc:__Z22TransferField_NonArrayI8JSONRead27Converter_SimpleNativeClassI8GUIStyleEEvRK23StaticTransferFieldInfoR31RuntimeSerializationCommandInfoRT0_
Kg:_llvm_eh_typeid_for
q2b:__Z13RegisterClassI10GameObjectEvv
qJe:_RemotingServices_FindInterfaceMethod_m2125212568
nz:__ZNK23AnimationPlayableOutput7GetTypeEv
CMd:_StreamWriter__cctor_m1229272693
CBf:_Enum_System_IConvertible_ToSByte_m779472798
Kcg:_Type_get_IsInterface_m3284996719
jBb:__Z18Transfer_BlittableI18StreamedBinaryReadILb0EELb1E8Vector4fEvRK29SerializationCommandArgumentsR31RuntimeSerializationCommandInfo
zTf:_Dictionary_2_U3CCopyToU3Em__0_m2023886030_gshared
KIj:_glBindVertexArray__wrapper
Xcd:_SerializationInfo__ctor_m2923079689
F$a:__ZN8Material8TransferI14SafeBinaryReadEEvRT_
Q1a:__ZN12CubemapArray17UploadToGfxDeviceEv
DDd:_Int32_JumpOverWhite_m208298144
qXg:__Z53RuntimeInvoker_Int32_t2950945753_UIVertex_t4057497605PFvvEPK10MethodInfoPvPS4_
LHj:_emscripten_glGetUniformiv__wrapper
Hlj:__ZN6il2cpp2vm13ManagedObject14QueryInterfaceERK10Il2CppGuidPPv
YG:__ZN11AudioSource4StopEb
Rqb:__ZN14SafeBinaryRead21TransferSTLStyleArrayI13dynamic_arrayI10Matrix4x4fLj4EEEEvRT_17TransferMetaFlags
oTa:__ZN15LODGroupManager26CollectAllLODGroupManagersERK16CoreCameraValuesR13dynamic_arrayIPS_Lj4EEb
yHa:__ZN18GlslGpuProgramGLESD2Ev
cZb:__ZN13RenderTexture14SetVolumeDepthEi
uS:__ZN11UnityEngine15CloudWebService14DataErrorEvent12ToJsonStringERN4core12basic_stringIcNS2_20StringStorageDefaultIcEEEEjPKc
yNg:__Z86RuntimeInvoker_Void_t1185182177_UInt16_t2177724958_SByte_t1669577662_SByte_t1669577662PFvvEPK10MethodInfoPvPS4_
Uma:__Z22LoadGpuProgramFromDataPKhS0_Rj
wvc:__ZN10Matrix4x4f8TransferI8JSONReadEEvRT_
OIc:__ZN14SafeBinaryRead21TransferSTLStyleArrayI13dynamic_arrayIN4core17string_with_labelILi35EEELj4EEEEvRT_17TransferMetaFlags
vVe:_PositionAsUV1_ModifyMesh_m4231919476
Gwd:_Hashtable__ctor_m1941859523
YXe:_ScrollRect_set_horizontalScrollbarSpacing_m2209919081
PY:__ZN17PersistentManager18ReadObjectThreadedEi
nEa:__ZN25TransformFeedbackSkinning31CleanupTransformFeedbackShadersEv
cTa:__Z22scripting_object_unbox18ScriptingObjectPtr
UJc:__ZNK20TextRenderingPrivate8FontImpl19GetCharacterAdvanceEjijfPj
$Nf:_Array_InternalArray__ICollection_Add_TisUriScheme_t722425697_m3142345403_gshared
Wuj:_fmt_u
q7a:__ZN10VertexData8TransferI18StreamedBinaryReadILb0EEEEvRT_
Xtj:__ZN6il2cpp8metadata25Il2CppGenericClassCompare7CompareEPK18Il2CppGenericClassS4_
qQd:_MonoType_get_Assembly_m4290914179
Ona:__ZN9ShaderLab7ProgramC2E10MemLabelIdi10ShaderType
oZb:__ZN14PreloadManager16UpdatePreloadingEv
Iqf:_String_LastIndexOf_m95398196
A_h:_Array_InternalArray__set_Item_TisUILineInfo_t4195266810_m2313892078_gshared
Urg:_PlayableAsset__ctor_m2395156306
RV:__ZNK21UnityDefaultAllocatorI17LowLevelAllocatorE8ContainsEPKv
aed:_RuntimeTypeHandle_Equals_m2857439487
Uh:_emscripten_get_main_loop_timing
i5d:_SafeHandle_Finalize_m3866180675
C5a:__ZN24GenerateTypeTreeTransfer21TransferSTLStyleArrayINSt3__26vectorIN15QualitySettings14QualitySettingENS1_9allocatorIS4_EEEEEEvRT_17TransferMetaFlags
fLd:_MemoryStream_ToArray_m3911744835
lxe:_Enumerator_System_Collections_IDictionaryEnumerator_get_Entry_m859540448_AdjustorThunk
ldg:_Type_GetHashCode_m1947148725
IIg:__Z91RuntimeInvoker_Void_t1185182177_RuntimeObject_RuntimeObject_RuntimeObject_SByte_t1669577662PFvvEPK10MethodInfoPvPS4_
zjb:__ZNK2UI13RectTransform22GetTypeVirtualInternalEv
ep:getTempRet0
G_c:_BaseRaycaster_OnEnable_m2678466030
xwe:_Enumerator_get_CurrentKey_m627428048_AdjustorThunk
bng:_UnityEventBase__ctor_m1851535676
y0h:_Array_Sort_TisVector4_t3319028937_m2797285308_gshared
ude:_HandshakeMessage_Update_m2417837686
t8i:__ZN6il2cpp6icalls8mscorlib6System9ThreadingL21lookup_cached_cultureEP12Il2CppThreadi
Rpj:__ZN6il2cpp2os11EventHandleD2Ev
ymg:_NetFxCoreExtensions_CreateDelegate_m751211712
oUb:__ZN18DeferredRenderLoopD2Ev
rJi:_AnimationLayerMixerPlayable__cctor_m4086299972
J2:__ZNK16TypeTreeIterator4NameEv
X0:__ZN15FileSystemEntry3SetEPKc
eVd:_ConstructorBuilder_Invoke_m3010446651
Bec:__Z52Register_UnityEngine_Application_set_targetFrameRatev
kaf:_IPv6Address_set_ScopeId_m3907190992
L4h:_ReadOnlyCollection_1_System_Collections_Generic_IListU3CTU3E_Insert_m568455025_gshared
OI:__ZN20SoundChannelInstance15ParameterBuffer5ApplyEPN4FMOD7ChannelE
_9e:_IPv6Address__ctor_m4117281080
RJc:__ZN20TextRenderingPrivate19NativeTextGenerator9InsertTabEv
nzj:_sbrk
HRg:__Z66RuntimeInvoker_Boolean_t97287965_Vector2_t2156229523_RuntimeObjectPFvvEPK10MethodInfoPvPS4_
a2f:_Enumerator_VerifyState_m3474272061_AdjustorThunk
BTc:__ZN11UnityEngine15PlatformWrapper24GetRuntimePlatformStringEv
Ei:_glIsEnabled
KUd:_DerivedType__ctor_m1853298054
Gpb:__Z25scripting_class_get_image17ScriptingClassPtr
Knf:_SecurityException__ctor_m836898292
N3f:_List_1_RemoveAt_m2730968292_gshared
Yfb:__ZNSt3__26vectorIN4core12basic_stringIcNS1_20StringStorageDefaultIcEEEE13stl_allocatorIS5_L18MemLabelIdentifier13ELi16EEEC2INS_11__wrap_iterIPS5_EEEET_SE_RKS8_PNS_9enable_ifIXaasr21__is_forward_iteratorISE_EE5valuesr16is_constructibleIS5_NS_15iterator_traitsISE_E9referenceEEE5valueEvE4typeE
Ii:_emscripten_glDrawElementsInstanced
ay:__ZN26AnimatorControllerPlayable27SetupStateMachineBehavioursEv
JSe:_LayoutGroup_get_preferredWidth_m3816902260
SUa:__ZN18JobBatchDispatcherD2Ev
ujb:__ZN9Transform17MainThreadCleanupEv
yoj:_GC_clear_hdr_marks
GJj:_emscripten_glCreateShader__wrapper
$xc:_cff_fd_select_get
e$e:_Text_set_resizeTextForBestFit_m4095249125
hcf:_OidEnumerator_MoveNext_m3138911739
Ti:_emscripten_glGetShaderiv
OJ:__ZN4FMOD6System10getVersionEPj
aNc:__ZN2UI6Canvas23VirtualRedirectTransferER24GenerateTypeTreeTransfer
nZe:_Selectable_set_animationTriggers_m2970345687
_sc:__ZN9JSONWrite8TransferIN4math12int2_storageEEEvRT_PKc17TransferMetaFlags
AIc:__ZN13TextRendering4Font13AwakeFromLoadE17AwakeFromLoadMode
$Df:_CompareInfo_LastIndexOf_m2688553706
dqa:__ZN9GfxDevice21ReleaseSharedMeshDataEP14SharedMeshData
w1c:_MouseState__ctor_m1467839005
Xti:_Uri_IsDomainAddress_m2867513594
fdb:__ZNSt3__27__sort5IRNS_6__lessINS_4pairIPKN5Unity4TypeE7Hash128EES8_EEPS8_EEjT0_SC_SC_SC_SC_T_
E8c:_Dropdown_CreateItem_m2954407740
Fnj:_GC_unreachable_finalize_mark_proc
Edf:_X509Chain_ProcessCrlExtensions_m236234529
bpj:_maybe_finalize
QMi:__ZN6il2cpp2vm5Class40GetInterfaceInvokeDataFromVTableSlowPathEPK12Il2CppObjectPK11Il2CppClassj
tMf:_Array_InternalArray__IndexOf_TisLabelData_t360167391_m1826525656_gshared
fic:__Z43RectTransform_CUSTOM_INTERNAL_get_anchorMaxP12Il2CppObjectP13Vector2fIcall
hHi:_TextGenerator_INTERNAL_CALL_Populate_Internal_cpp_m4171649399
VFe:_RemotingConfiguration_RegisterChannelTemplate_m3105688054
gxf:_Decimal_Parse_m942471224
Z3a:__ZN8Material28UpdateHashesOnPropertyChangeEN9ShaderLab16FastPropertyNameE
Gqh:__ZL56MethodBuilder_t2807316753_CustomAttributesCacheGeneratorP21CustomAttributesCache
Pic:__Z53Register_UnityEngine_SortingLayer_GetLayerValueFromIDv
yob:__Z18Transfer_BlittableI14SafeBinaryReadLb1E8Vector4fEvRK29SerializationCommandArgumentsR31RuntimeSerializationCommandInfo
G3c:_AspectRatioFitter_SetDirty_m2910185270
ZL:__ZN11AudioSource12AddToManagerEv
Os:__ZN8Animator23VirtualRedirectTransferER19StreamedBinaryWriteILb0EE
Jz:__ZN11UnityEngine9Animation32CreateAnimatorGenericBindingsOptERKNS0_20AnimationSetBindingsER9TransformPKN7mecanim9animation14AvatarConstantEPKNS0_21AvatarBindingConstantEbRNS6_6memory9AllocatorER8Animator
vcj:__ZN6il2cpp2vm5Image13ClassFromNameEPK11Il2CppImagePKcS6_
Szj:dynCall_vdddddd
Dka:__ZN24GenerateTypeTreeTransfer21TransferSTLStyleArrayINSt3__26vectorIN9ShaderLab14SerializedPassENS1_9allocatorIS4_EEEEEEvRT_17TransferMetaFlags
taa:__ZL32MarkLevelGameManagerDependenciesR27GarbageCollectorThreadState
Bsa:__ZNK13GfxDeviceGLES26HasActiveRandomWriteTargetEv
N6i:__GLOBAL__sub_I_Thread_cpp
jnh:__ZL54_MemberInfo_t3922476713_CustomAttributesCacheGeneratorP21CustomAttributesCache
AEj:_glGetActiveUniformsiv__wrapper
Mic:__Z43Register_UnityEngine_Material_EnableKeywordv
Cqg:_Mesh_GetIndices_m2873123901
h_:__ZN13MonoBehaviour19SetupScriptingCacheE17ScriptingClassPtrP10MonoScript
cs:__Z20AnimationEventToMonoRK14AnimationEventR18MonoAnimationEvent
UTg:__Z106RuntimeInvoker_Void_t1185182177_Single_t1397266774_Single_t1397266774_Single_t1397266774_Int32_t2950945753PFvvEPK10MethodInfoPvPS4_
wZ:__ZN17PersistentManager29ReadAndActivateObjectThreadedEiRK26SerializedObjectIdentifierP14SerializedFilebb
k1c:_PointerEventData_get_dragging_m746831934
uai:_ReadOnlyCollection_1_System_Collections_IEnumerable_GetEnumerator_m2781605075_gshared
Wda:__ZZN15DirectorManager15InitializeClassEvEN52PreLateUpdateDirectorUpdateAnimationBeginRegistrator7ForwardEv
NGf:_Array_get_swapper_TisCustomAttributeNamedArgument_t287865710_m4254011335_gshared
Iad:_Graphic_RegisterDirtyMaterialCallback_m106898453
gwi:_GUILayoutEntry_get_margin_m3174861737
Vja:__ZNSt3__26vectorIN9ShaderLab14SerializedPassENS_9allocatorIS2_EEE8__appendEj
eja:__ZNSt3__26vectorIN9ShaderLab20SerializedSubProgram13BufferBindingENS_9allocatorIS3_EEEC2INS_11__wrap_iterIPS3_EEEET_SB_RKS5_PNS_9enable_ifIXaasr21__is_forward_iteratorISB_EE5valuesr16is_constructibleIS3_NS_15iterator_traitsISB_E9referenceEEE5valueEvE4typeE
Z5f:_Encoding_get_ISOLatin1_m2107621369
y6d:_BigInteger_op_Inequality_m2697143438
_Hh:__ZL89Mathf_t3464937446_CustomAttributesCacheGenerator_Mathf_SmoothDamp_m394423605____maxSpeed4P21CustomAttributesCache
G3a:__ZN9Texture2D23VirtualRedirectTransferER18StreamedBinaryReadILb0EE
ytf:_DateTime_System_IConvertible_ToDouble_m2116720007_AdjustorThunk
qvd:_BitArrayEnumerator__ctor_m2359341397
n0f:_Enumerator_MoveNext_m1177880931_gshared
YMh:__ZL73g_UnityEngine_TextRenderingModule_Assembly_CustomAttributesCacheGeneratorP21CustomAttributesCache
F$:__ZN16ScriptingManager27NativeTypeForScriptingClassE17ScriptingClassPtr
Vfg:_UInt64_System_IConvertible_ToDateTime_m3434604642
Ucg:_Type_get_IsSerializable_m1040556850
PCc:_get_sfnt_table
JVb:__ZL22ScheduleSceneNodesJobsP25ScheduleSceneNodesJobDataj
Jk:_emscripten_set_canvas_size
M9c:_Graphic_SetVerticesDirty_m2124914069
cEf:_CultureInfo__ctor_m3285927757
yUe:_MaskableGraphic_get_rootCanvasRect_m3492154629
s$h:_Array_Resize_TisRaycastResult_t3360306849_m1811054291_gshared
zja:__ZNSt3__26vectorIN9ShaderLab20SerializedSubProgramENS_9allocatorIS2_EEE8__appendEj
zW:__ZN20DynamicHeapAllocatorI17LowLevelAllocatorE8AllocateEji
Exi:_Locale_GetText_m2427493201
DOb:__ZN20DynamicPropertySheet15SetVectorQueuedERKN9ShaderLab16FastPropertyNameERK8Vector4fN19ShaderPropertySheet8SetFlagsE
wA:__ZN7mecanim9animation22EvaluateAvatarRetargetEPKNS0_14AvatarConstantEPKNS0_11AvatarInputEPNS0_12AvatarOutputEPNS0_12AvatarMemoryEPNS0_15AvatarWorkspaceEb
RXa:__ZN14RenderSettings23VirtualRedirectTransferER19StreamedBinaryWriteILb0EE
xrc:__ZL26Transfer_SimpleNativeClassI9JSONWrite10RectOffsetLb0EEvRK29SerializationCommandArgumentsR31RuntimeSerializationCommandInfo
Znj:_GC_push_conditional
Ewa:__ZN17GenericDynamicVBO10AllocateVBEjR21DynamicVBOChunkHandle
Xwf:_DBNull_ToString_m3638608738
ydj:__ZN30dense_hashtable_const_iteratorI10KeyWrapperIP18Il2CppGenericClassES3_N6il2cpp8metadata22Il2CppGenericClassHashEN14dense_hash_setIS3_S6_NS3_14EqualsComparerINS5_25Il2CppGenericClassCompareEEENSt3__29allocatorIS3_EEE8IdentityESA_SD_EppEv
nvd:_BitArray_Clone_m3537018332
jNe:_ObjectRecord_UnchainFixup_m3191243952
Bki:_TlsStream_get_CanWrite_m16389328
hl:_glMapBufferRange
y3a:__ZN9Texture2D8TransferI18StreamedBinaryReadILb0EEEEvRT_
fhc:__Z31Input_CUSTOM_GetMouseButtonDowni
E8b:__ZN13PlayableGraph4PlayEv
Z7b:__Z29AddCanvasIntermediateRendererPN2UI6CanvasEPNS_13CanvasBuffersEP17VertexDeclarationjRK10Matrix4x4ftRK4AABB4PPtrI8MaterialEi17ShadowCastingModebP6Camerab
_qf:_String_Format_m3339413201
tQd:_MonoType_get_BaseType_m1098640416
rLa:__ZN13LoadOperation19IntegrateTimeSlicedEi
Uki:_TlsStream_Read_m3392972801
DDi:__ZL25UnresolvedVirtualCall_132P12Il2CppObject17Color_t2555686324faaaPK10MethodInfo
Msa:__ZN13GfxDeviceGLES22DispatchComputeProgramE12ObjectHandleI18ComputeProgram_TagPvE15ComputeBufferIDj
G6f:_Latin1Encoding_GetString_m254210343
Bhb:__Z17TransformAABBSlowRK4AABBRK10Matrix4x4fRS_
Tnd:_Array_combsort_m4052486289
_6a:__ZN15SerializeTraitsI13dynamic_arrayI12SpriteVertexLj4EEE19ResizeSTLStyleArrayERS2_i
Wha:__ZN9ShaderLab21SerializedShaderState8TransferI14SafeBinaryReadEEvRT_
sCf:_Environment_GetWindowsFolderPath_m1738399646
azc:_cf2_stack_pushInt
nA:__ZN8Animator19FireAnimationEventsERNS_11AnimatorJobE
P$d:_Module_GetCustomAttributes_m76573271
xfd:_CryptoConfig_EncodeOID_m2635914623
Fka:__ZN15SerializeTraitsINSt3__24pairIN4core12basic_stringIcNS2_20StringStorageDefaultIcEEEES6_EEE8TransferI24GenerateTypeTreeTransferEEvRS7_RT_
$Gj:b89
_Gj:b88
AGj:b81
zGj:b80
iFa:__ZN7ApiGLES19CreateSparseTextureEjj14GraphicsFormatiiiiRiS1_S1_
n0:__ZN18ResourceImageGroup7CleanupEv
TGj:b85
SGj:b84
VGj:b87
UGj:b86
vKe:_RemotingSurrogateSelector_GetSurrogate_m3900875713
O9d:_CertificateValidationCallback_Invoke_m1014111289
PYa:__ZN8Playable19SetOutputConnectionEPS_i
fNi:__ZN15dense_hashtableINSt3__24pairIK10KeyWrapperIPK11Il2CppClassEPKcEES6_N6il2cpp5utils11PointerHashIS3_EEN14dense_hash_mapIS6_S9_SE_NS6_14EqualsComparerINS0_8equal_toIS5_EEEENS0_9allocatorISA_EEE9SelectKeyESJ_SL_EC2ERKSO_j
Wl:_glDeleteShader
HAa:__ZN6prcoreL17RemapGenericFloatI15TexFormatRGHalf16TexFormatRGFloatEEvPKNS_9InnerInfoE
j0h:_Array_Sort_TisUICharInfo_t75501106_m128665067_gshared
tBc:_otv_GSUB_validate
ljf:_RSAPKCS1SignatureDeformatter_SetHashAlgorithm_m1602190713
uBf:_Enum_System_IConvertible_ToByte_m1219166845
DCe:_Dictionary_2_CopyToCheck_m45332585_gshared
cdc:__Z27scripting_add_internal_callPKcPKv
D2i:__ZN13Il2CppHashMapINSt3__24pairIPK9EventInfoP11Il2CppClassEEj17ReflectionMapHashIS7_ENS0_8equal_toIS7_EENS0_9allocatorINS1_IK10KeyWrapperIS7_EjEEEEEC2EjRKS9_RKSB_
oej:__GLOBAL__sub_I_GarbageCollector_cpp
qog:_Input_get_inputString_m1307069105
txe:_Enumerator_MoveNext_m1556953412_AdjustorThunk
jt:__ZN26AnimatorControllerPlayable18SetLayerAutoWeightEv
qSc:__Z44Register_UnityEngine_Canvas_get_pixelPerfectv
Vsi:_Literal_GetAnchorInfo_m810577400
BPc:__ZN2UI14CanvasRenderer12SyncMaterialENS0_8SyncFlagE
OMd:_StreamWriter_Write_m1660535366
Wrj:__ZN6il2cpp2vm9Parameter30GetDefaultParameterValueObjectEPK10MethodInfoPK13ParameterInfoPb
z8f:_UTF8Encoding_GetByteCount_m4152118078
l5e:_KeyPairPersistence__CanSecure_m3516574278
rJg:__Z95RuntimeInvoker_Void_t1185182177_RuntimeObject_RuntimeObject_Int32_t2950945753_SByte_t1669577662PFvvEPK10MethodInfoPvPS4_
Xhd:_MD5CryptoServiceProvider_Dispose_m3502499818
Peh:_Collection_1_System_Collections_IList_get_Item_m2422562729_gshared
CDc:_UNITY_tt_face_done_kern
qab:__ZN12BoneWeights48TransferI24GenerateTypeTreeTransferEEvRT_
pGb:__Z19scripting_gc_enablev
dre:_InternalEnumerator_1_get_Current_m2907722321_gshared
rKb:__ZZ23InitPlayerLoopCallbacksvEN41InitializationPlayerUpdateTimeRegistrator7ForwardEv
Occ:__ZN11UTF16StringC2ERKS_10MemLabelId
ose:_InternalEnumerator_1_get_Current_m3792939945_AdjustorThunk
rRc:__Z55Register_UnityEngine_CanvasRenderer_DisableRectClippingv
R9a:__ZN14SafeBinaryRead21TransferSTLStyleArrayI13dynamic_arrayI11ColorRGBA32Lj4EEEEvRT_17TransferMetaFlags
tub:__ZL26Transfer_SimpleNativeClassI24GenerateTypeTreeTransfer8GradientLb0EEvRK29SerializationCommandArgumentsR31RuntimeSerializationCommandInfo
Ule:_InternalEnumerator_1_System_Collections_IEnumerator_get_Current_m888718134_gshared
lFg:__Z175RuntimeInvoker_Void_t1185182177_SByte_t1669577662_SByte_t1669577662_SByte_t1669577662_SByte_t1669577662_SByte_t1669577662_SByte_t1669577662_SByte_t1669577662_SByte_t1669577662PFvvEPK10MethodInfoPvPS4_
prg:_Object_Destroy_m3118546832
ouf:_DateTime_FromTicks_m4059645178_AdjustorThunk
l2h:_Array_InternalArray__get_Item_TisClientCertificateType_t1004704908_m2297379651_gshared
WFe:_ConfigHandler_ParseTime_m1787834288
Fma:__ZN9ShaderLab7Program27CreateFromSerializedProgramERKNS_17SerializedProgramE10ShaderTypeiP16PropertyNamesSetPK6Shader
XSd:_Assembly_Load_m3487507613
gXa:__ZNSt3__27__sort4IRNS_6__lessIN4core12basic_stringIcNS2_20StringStorageDefaultIcEEEES6_EEPS6_EEjT0_SA_SA_SA_T_
wAj:dynCall_viiiifii
f1i:__ZN6il2cpp2gc19AppendOnlyGCHashMapINSt3__24pairIPK11Il2CppImageP11Il2CppClassEEP22Il2CppReflectionModule17ReflectionMapHashIS9_ENS2_8equal_toIS9_EEEC2Ev
MY:__Z20GetPersistentManagerv
SGc:_UNITY_TT_Set_Var_Design
j8:__ZN21SystemInfoStringCache16StaticInitializeEPv
M4h:_ReadOnlyCollection_1_System_Collections_Generic_ICollectionU3CTU3E_Remove_m1100818788_gshared
_ia:__ZNSt3__26vectorIN9ShaderLab20SerializedSubProgram15StructParameterENS_9allocatorIS3_EEE6assignIPS3_EENS_9enable_ifIXaasr21__is_forward_iteratorIT_EE5valuesr16is_constructibleIS3_NS_15iterator_traitsISA_E9referenceEEE5valueEvE4typeESA_SA_
zjh:_Collection_1_IsSynchronized_m2291009199_gshared
EDb:__ZNK13MonoBehaviour7GetNameEv
Eib:__ZN19ScriptingInvocation28AdjustArgumentsToMatchMethodEv
eii:_IndexedSet_1_Contains_m1525966688_gshared
zG:__Z15_CheckFMODError11FMOD_RESULTPKciS1_
F7i:__ZN6il2cpp6icalls8mscorlib6SystemL16ThrowInvalidCastEPK11Il2CppClassS5_
RVa:__Z20RenderMultipleMeshesRK15RenderNodeQueueRK18RenderMultipleData17ShaderChannelMask
NWc:__ZN11UnityEngine15PlatformWrapper20GetPlayerPrefsStringERKN4core12basic_stringIcNS1_20StringStorageDefaultIcEEEES5_
uUe:_MaskableGraphic_get_maskable_m1260382606
a6f:_Latin1Encoding__ctor_m498920120
VXi:__ZN6il2cpp2vm4Type19GetGenericParameterEPK10Il2CppType
mMd:_StreamReader_Peek_m2272511193
ivf:_DateTimeFormatInfo_FillAllDateTimePatterns_m2683124783
SQc:__Z51Register_UnityEngine_CanvasGroup_get_blocksRaycastsv
mRd:_NumberFormatter_get_IsFloatingSource_m3714711779
Adg:_Type_GetConstructor_m1195697116
sd:_glBeginQuery
zph:__ZL104RegionInfo_t1090270226_CustomAttributesCacheGenerator_RegionInfo_t1090270226____DisplayName_PropertyInfoP21CustomAttributesCache
MHi:_Canvas_get_scaleFactor_m3314757802
SLb:__ZN6Camera12RenderStereoENS_10RenderFlagE8CullFlagPNS_24PerformEyeRenderFunctionE
Hlb:__ZN20LocalFileSystemPosix10ToAbsoluteEPKc
GVa:__ZN20TierGraphicsSettings8TransferI19StreamedBinaryWriteILb0EEEEvRT_
XJj:b111
Q7:__GLOBAL__sub_I_runtime_input_0_cpp
Zkj:__ZN6il2cpp2vm13ComObjectBase16DisconnectObjectEj
Bm:f0
Wvj:_getcwd
DKa:__ZN25ThreadsafeLinearAllocatorD2Ev
Sgb:__Z21SendMessageToEveryoneRK17MessageIdentifier11MessageData
Cca:__ZN21BillboardBatchManager16StaticInitializeEPv
ftf:_DateTime_AbsoluteDays_m4235097773
w9:__ZN12_GLOBAL__N_138ArchiveRedirectFileSystemStaticDestroyEPv
xAg:__Z74RuntimeInvoker_RuntimeObject_RuntimeObject_RuntimeObject_SByte_t1669577662PFvvEPK10MethodInfoPvPS4_
F7c:_DefaultControls_CreateScrollView_m3842770629
N1a:__ZN12CubemapArray34UpdateFileTextureUploadInstructionEP26FileAssetUploadInstructionj
hFa:__Z23CreateSparseTextureGLES9TextureIDii14GraphicsFormati
$Bc:_otv_Anchor_validate
qGf:_Guid_CompareTo_m243656946_AdjustorThunk
bDf:_CCMath_mod_m3631663509
ccg:_TimeSpan_Negate_m1889505500_AdjustorThunk
h8h:_ReadOnlyCollection_1_System_Collections_ICollection_CopyTo_m2715087453_gshared
zKc:__ZNSt3__23mapIN20TextRenderingPrivate7FontRefEP11FT_FaceRec_NS_4lessIS2_EENS_9allocatorINS_4pairIKS2_S4_EEEEEixERS9_
WMa:__ZN17ArchiveFileSystem10AddStorageEP20ArchiveStorageReader
_3i:_il2cpp_class_get_assemblyname
sLi:__ZN6il2cpp2vm5Class15GetEnumBaseTypeEP11Il2CppClass
Pce:_Context_set_WriteSequenceNumber_m942577065
Xd:_glVertexAttrib4fv
qlj:__ZNK6il2cpp5utils13VmStringUtils23CaseInsensitiveComparerclERKNSt3__212basic_stringIcNS3_11char_traitsIcEENS3_9allocatorIcEEEEPKc
N4c:_CanvasScaler_SetScaleFactor_m3006968999
o$g:__Z78RuntimeInvoker_Boolean_t97287965_Navigation_t3049316579_Navigation_t3049316579PFvvEPK10MethodInfoPvPS4_
P2a:__ZNK9Texture2D16GetNpotTexelSizeEv
iRd:_NumberFormatter_Init_m3576155222
sMa:__ZL33FileEntryInfoListToFolderContentsRKN4core12basic_stringIcNS_20StringStorageDefaultIcEEEERK19dynamic_block_arrayI13FileEntryInfoLj32EERNSt3__23setIS3_NSB_4lessIS3_EENSB_9allocatorIS3_EEEE
JTe:_LayoutUtility_GetLayoutProperty_m714717302
FGi:_Terminal_NotifyCommandHandlers_m909296863
Tpa:__ZN9GfxDevice22GetDefaultVertexBufferE26GfxDefaultVertexBufferTypej
rHf:_Array_InternalArray__ICollection_Contains_TisInt64_t3736567304_m2911357929_gshared
afh:_Collection_1_Remove_m3022471627_gshared
mwj:___fseeko_unlocked
SRd:_Object_ToString_m1740002499
ewj:_sscanf
l0c:_ExecuteEvents_GetEventChain_m2404658789
oHb:__Z17BeginSplashScreenv
w$h:_Array_Resize_TisUILineInfo_t4195266810_m3763058392_gshared
Ted:_SByte_ToString_m3584531119_AdjustorThunk
wla:__ZN9ShaderLab16SerializedShader8TransferI19StreamedBinaryWriteILb0EEEEvRT_
TC:__ZN7mecanim9animation18CreateAvatarMemoryEPKNS0_14AvatarConstantERNS_6memory9AllocatorE
Y5d:_ModulusRing__ctor_m2420310199
aAd:_Convert_ToDateTime_m626620011
Oxe:_Enumerator_System_Collections_IDictionaryEnumerator_get_Key_m2500634048_AdjustorThunk
FB:__ZN7mecanim8skeleton16SkeletonPoseCopyIN4math4trsXENS2_7affineXEEEvPKNS0_13SkeletonPoseTIT_EEPNS5_IT0_EE
mwa:__ZN18GfxFramebufferGLES18GetFramebufferNameERK20GfxRenderTargetSetup
iXi:__ZN6il2cpp2vm14TypeNameParser12ParseVersionERKNSt3__212basic_stringIcNS2_11char_traitsIcEENS2_9allocatorIcEEEERtSB_SB_SB_
XQe:_InputField_MoveDown_m1455948167
Lnc:__Z30Event_Get_Custom_PropCharacterP12Il2CppObject
pea:__ZN13PlayableGraph27SchedulePlayableDestructionERK9HPlayable
kBc:_cff_get_mm_var
CDj:_glGetFramebufferAttachmentParameteriv__wrapper
IEe:_ChannelServices_GetCurrentChannelInfo_m3041604116
dXc:__Z13RegisterClassI20UnityConnectSettingsEvv
Dpb:__Z22scripting_array_length17ScriptingArrayPtr
_Md:_SynchronizedReader_Peek_m148942882
fEg:__Z95RuntimeInvoker_Void_t1185182177_RuntimeObject_Int32_t2950945753_Int32_t2950945753_RuntimeObjectPFvvEPK10MethodInfoPvPS4_
_1a:__ZN14SafeBinaryRead20TransferTypelessDataEjPvi
qN:__ZN13dynamic_arrayI12SoundChannelLj4EE9push_backERKS0_
a5:__Z19GetActiveColorSpacev
cDc:_UNITY_tt_face_load_kern
j0d:_MonoMethodInfo_GetDeclaringType_m2924452727
BIb:__ZN13sorted_vectorINSt3__24pairIiN17InstancingBatcher12PropertyTypeEEEN10vector_mapIiS3_NS0_4lessIiEE13stl_allocatorIS4_L18MemLabelIdentifier1ELi16EEE13value_compareESA_E21sort_clear_duplicatesEv
xQc:__ZZN2UI14CanvasRenderer15InitializeClassEvEN38FunctorImpl_909kCanvasHierarchyChanged4CallEPviR11MessageData
C$:__Z6StrCmpPKcS0_
LEd:_NumberFormatter_AppendIntegerString_m2257376141
Nna:__Z21CheckGpuProgramUsable20ShaderGpuProgramType
$3b:__ZN13ProduceHelperI14Texture2DArrayLb0EE7ProduceE10MemLabelId18ObjectCreationMode
Nhj:__ZN6il2cpp2os9Directory20GetFileSystemEntriesERKNSt3__212basic_stringIcNS2_11char_traitsIcEENS2_9allocatorIcEEEESA_iiPi
Dmd:_Array_System_Collections_IList_Add_m1063688101
uWh:__ZL66Navigation_t3049316579_CustomAttributesCacheGenerator_m_SelectOnUpP21CustomAttributesCache
JJc:__ZN20TextRenderingPrivate19NativeTextGenerator5SetupEv
YSb:__ZNK15SharedLightData24GetFinalShadowResolutionEv
meb:__ZN12AspectRatios8TransferI18StreamedBinaryReadILb0EEEEvRT_
S7b:__ZN10GameObject14CopyPropertiesERS_
zoc:__Z44Register_UnityEngine_GUIStyle_get_fixedWidthv
oIf:_Array_InternalArray__ICollection_Remove_TisLink_t544317964_m1280781374_gshared
Rod:_BitConverter_DoubleWordsAreSwapped_m1474345095
q6a:__ZNK13ScreenManager12IsFullScreenEv
hud:_FixedSizeArrayListWrapper_set_Capacity_m4221053039
Hwj:_rand
eEj:_emscripten_glFramebufferRenderbuffer__wrapper
Zac:__ZN13MeshScripting10CreateMeshE21ScriptingObjectOfTypeI4MeshE
zqb:__ZN14SafeBinaryRead21TransferSTLStyleArrayINSt3__26vectorI17AnimationCurveTplIfE13stl_allocatorIS4_L18MemLabelIdentifier1ELi16EEEEEEvRT_17TransferMetaFlags
Mud:_SynchronizedArrayListWrapper_Contains_m3809499313
BIf:_Array_InternalArray__ICollection_Remove_TisLabelData_t360167391_m3556246844_gshared
vhd:_HMACSHA256__ctor_m346174875
mkg:_Color_op_Multiply_m2887457390
sVb:__Z22PrepareOptimizedPlanesPK5PlaneiPKN4math7_float4E
nV:__ZN11UnityEngine15CloudWebService17WebFileDownloaderINS0_20WebRequestRestClientENS0_23WebRequestRestHeaderMapEE10InitializeERKN4core12basic_stringIcNS5_20StringStorageDefaultIcEEEE
Aca:__ZN17UniqueIDGenerator15CreatePureIndexEv
zr:__ZN11UnityEngine9Animation28GenericAnimationBindingCache15DidReloadDomainEv
cfb:__ZNSt3__26vectorIN15ResourceManager10DependencyE13stl_allocatorIS2_L18MemLabelIdentifier52ELi16EEE6assignINS_11__wrap_iterIPS2_EEEENS_9enable_ifIXaasr21__is_forward_iteratorIT_EE5valuesr16is_constructibleIS2_NS_15iterator_traitsISC_E9referenceEEE5valueEvE4typeESC_SC_
HKi:__ZN15dense_hashtableINSt3__24pairIK10KeyWrapperIPK22Il2CppGenericParameterEP11Il2CppClassEES6_N6il2cpp5utils11PointerHashIS4_EEN14dense_hash_mapIS6_S9_SE_NS6_14EqualsComparerINS0_8equal_toIS5_EEEENS0_9allocatorISA_EEE9SelectKeyESJ_SL_E14squash_deletedEv
U_a:__ZN9ShaderLabL27GetDesiredRenderTextureDescEPK6Camera
eQf:_Array_InternalArray__Insert_TisMark_t3471605523_m2854535880_gshared
Yya:__ZN6prcoreL29inner_stretch_rgb565_bilinearEPKNS_9InnerInfoE
Vlc:__Z14GUIClipTextureP9Texture2DPhiiii
cKe:_MethodReturnDictionary__cctor_m278392388
uY:__ZNK9Transform18TransformDirectionERK8Vector3f
fhe:_SslStreamBase_get_CanWrite_m1622082918
hYh:__ZL80CanvasScaler_t2767979955_CustomAttributesCacheGenerator_m_ReferencePixelsPerUnitP21CustomAttributesCache
MBc:_otv_MarkLigPos_validate
V2e:_PrimalityTests_RabinMillerTest_m1471415870
R$f:_Enumerator_MoveNext_m2114485647_gshared
ZQi:__ZN15dense_hashtableINSt3__24pairIK10KeyWrapperIPK11Il2CppClassEPKcEES6_N6il2cpp5utils11PointerHashIS3_EEN14dense_hash_mapIS6_S9_SE_NS6_14EqualsComparerINS0_8equal_toIS5_EEEENS0_9allocatorISA_EEE9SelectKeyESJ_SL_E12resize_deltaEjj
qyj:__ZNK10__cxxabiv120__si_class_type_info27has_unambiguous_public_baseEPNS_19__dynamic_cast_infoEPvi
b6d:_Kernel_LeftShift_m4140742987
KSd:_Assembly_GetManifestResourceInternal_m1224391897
Iwa:__Z30AddDefaultStreamsToMeshBuffersR9GfxDeviceR11MeshBuffersj17ShaderChannelMaskS3_
f9:__ZL16GetInterfaceImpl18UnityInterfaceGUID
LLi:__ZN6il2cpp2vmL17SetupFieldOffsetsENS0_15FieldLayoutKindEP11Il2CppClassjRKNSt3__26vectorIjNS4_9allocatorIjEEEE
Okj:__ZN6il2cpp6icalls8mscorlib6System15MonoCustomAttrs27GetCustomAttributesInternalEP12Il2CppObjectP20Il2CppReflectionTypeb
Wb:invoke_viifi
nHc:_UNITY_TT_Set_MM_Blend
R7:__GLOBAL__sub_I_runtime_math_random_0_cpp
BHb:__ZN14PreloadManager35WaitForAllAsyncOperationsToCompleteEv
gI:__ZL31InitializeAudioScriptingClassesv
MMb:__Z14SortGUIByDepthP10GUIElementS0_
qC:__ZN12_GLOBAL__N_120ProcessRootMotionMixER33AnimationPlayableEvaluationOutputR35AnimationPlayableEvaluationConstantR32AnimationPlayableEvaluationInputS1_f
Fui:_UriParser__cctor_m3655686731
zTe:_LayoutRebuilder_U3Cs_RebuildersU3Em__0_m589488547
hmb:__ZNK20LocalFileSystemPosix21GetAvailableDiskSpaceEPKcRy
p8:__ZNSt3__26__treeIiNS_4lessIiEENS_9allocatorIiEEE7destroyEPNS_11__tree_nodeIiPvEE
mpa:__ZNK9GfxDevice14GetWorldMatrixEv
Ruc:__ZN8JSONRead8TransferI8Vector2fEEvRT_PKc17TransferMetaFlagsb
iyg:_Transform_set_parent_m786917804
g_e:_Slider_get_value_m739683640
xkb:__Z19scripting_array_new17ScriptingClassPtrjj
eN:__ZN11SoundHandle13CreateChannelEb
p4a:__ZN14SafeBinaryRead21TransferSTLStyleArrayI13dynamic_arrayI12LightmapDataLj4EEEEvRT_17TransferMetaFlags
Hja:__ZNSt3__26vectorIN9ShaderLab20SerializedSubProgram16TextureParameterENS_9allocatorIS3_EEE6assignIPS3_EENS_9enable_ifIXaasr21__is_forward_iteratorIT_EE5valuesr16is_constructibleIS3_NS_15iterator_traitsISA_E9referenceEEE5valueEvE4typeESA_SA_
APi:__ZN13Il2CppHashMapIN6il2cpp5utils13dynamic_arrayIPK10Il2CppTypeLj4EEEPFvvENS0_8metadata19Il2CppSignatureHashENS9_22Il2CppSignatureCompareENSt3__29allocatorINSC_4pairIK10KeyWrapperIS6_ES8_EEEEEC2EjRKSA_RKSB_
N1i:__ZN15dense_hashtableINSt3__24pairIK10KeyWrapperIPK22Il2CppGenericParameterEPK24MonoGenericParameterInfoEES6_N6il2cpp5utils11PointerHashIS4_EEN14dense_hash_mapIS6_SA_SF_NS6_14EqualsComparerINS0_8equal_toIS5_EEEENS0_9allocatorISB_EEE9SelectKeyESK_SM_E15set_deleted_keyERKSB_
Red:_SByte_TryParse_m2431806379
z1b:__ZN6prcoreL11inner_clearILj2EEEvPhjjj
tgd:_DSACryptoServiceProvider_get_KeySize_m786836990
Ig:_emscripten_exit_fullscreen
RRd:_Object_MemberwiseClone_m1474068832
Igj:__ZN6il2cpp6icalls8mscorlib6System6String19InternalAllocateStrEi
Yvc:__Z29Transfer_Blittable_ArrayFieldI8JSONRead11QuaternionfEvRT_R9ArrayInfoRK23StaticTransferFieldInfo
vfc:__Z45Register_UnityEngine_Camera_get_targetDisplayv
b6b:__ZNK24RendererAnimationBinding15GenerateBindingERKN4core12basic_stringIcNS0_20StringStorageDefaultIcEEEEbRN11UnityEngine9Animation14GenericBindingE
oaf:_IPv6Address__ctor_m3704187391
fNb:__Z15GetFlareManagerv
Hz:__ZN8Animator13GetAvatarRootEv
QNf:_Array_InternalArray__ICollection_Add_TisResourceCacheItem_t51292791_m3851804827_gshared
Huj:___toread
IFb:__ZNSt3__26vectorI10vector_mapIiiNS_4lessIiEE13stl_allocatorINS_4pairIiiEEL18MemLabelIdentifier38ELi16EEES4_IS9_LS7_38ELi16EEE26__swap_out_circular_bufferERNS_14__split_bufferIS9_RSA_EE
z5d:_BigInteger_get_Rng_m3283260184
Tyj:___cxa_is_pointer_type
SE:__ZN8Animator22ScriptingStringToCRC32ERK11ICallString
sC:__ZN7mecanim9animation16EvaluateAvatarDXEPKNS0_14AvatarConstantEPKNS0_11AvatarInputEPNS0_12AvatarMemoryEPNS0_15AvatarWorkspaceEPNS0_12AvatarOutputE
h2c:_RaycastResult_ToString_m2678663776_AdjustorThunk
v2h:_Array_InternalArray__get_Item_TisKeyValuePair_2_t2530217319_m2886833132_gshared
BYe:_ScrollRect_OnEndDrag_m3202230060
_jc:__Z34Transform_CUSTOM_SetAsFirstSiblingP12Il2CppObject
MQe:_InputField_Delete_m3471899192
VEe:_RemotingConfiguration_get_ProcessId_m2180277012
l3:__ZN17PersistentManager40GlobalToLocalSerializedFileIndexInternalERK26SerializedObjectIdentifier
kS:__ZN11UnityEngine15CloudWebService17SessionEventQueue14ParseEventDataERKN4core12basic_stringIcNS2_20StringStorageDefaultIcEEEE
Mua:__ZN13TranslateGLES4InitERK12GraphicsCaps16GfxDeviceLevelGL
vGd:_Int64_System_IConvertible_ToUInt16_m848637338_AdjustorThunk
gMf:_Array_InternalArray__IndexOf_TisLink_t544317964_m455584088_gshared
jah:_Enumerator_get_Current_m2282646120_AdjustorThunk
X7h:_ReadOnlyCollection_1_IndexOf_m2539022912_gshared
iXh:__ZL66Selectable_t3250028441_CustomAttributesCacheGenerator_m_TransitionP21CustomAttributesCache
Asj:__ZN6il2cpp2os6Memory12AlignedAllocEjj
m$e:_Text_set_alignByGeometry_m3828822280
kmj:__ZN6il2cpp8metadataL7CompareEPK10Il2CppTypeS3_
B7e:_HybridDictionary__ctor_m1681134385
Y1:__ZN21ScalableBufferManager11GetInstanceEv
WAb:__Z18Transfer_BlittableI18StreamedBinaryReadILb0EELb1E10ColorRGBAfEvRK29SerializationCommandArgumentsR31RuntimeSerializationCommandInfo
mcg:_TimeSpan_op_LessThan_m1594498345
idc:__ZL27GetComponentsImplementationILb0ELi0EEbR10GameObjectbRK17CompareParametersRK39GetComponentsImplementation_ReturnValue
qEb:__ZN9Scripting36IsSystemCollectionsGenericDictionaryE17ScriptingClassPtr
nhi:_UnityEvent_1_FindMethod_Impl_m322741469_gshared
wyg:_Enumerator_get_Current_m2591725252
R0:__ZL16ReadTypeTreeImplILb0EEbR8TypeTreeRK16TypeTreeIteratorRPKhS6_i
Ghf:_Interval_Contains_m110351300_AdjustorThunk
TAd:_Convert_ToInt32_m3048308591
kwf:_DateTimeOffset_Equals_m3030958070
gYa:__ZNK22BuiltinResourceManager21GetResourceInstanceIDEPKN5Unity4TypeERKN4core12basic_stringIcNS4_20StringStorageDefaultIcEEEE
Pra:__ZN9GfxDevice15BeginFrameStatsEv
_gc:__Z42Register_UnityEngine_RectOffset_set_bottomv
Wtf:_DateTimeFormatInfo_GetMonthName_m2034512315
ROb:__ZN28LightProbeProxyVolumeContext8CopyFromERKS_
F8h:_ReadOnlyCollection_1_System_Collections_Generic_IListU3CTU3E_Insert_m2489506856_gshared
B6:__ZN23TransformChangeDispatch32QueueTransformChangeIfHasChangedER18TransformHierarchy
N0e:_SimpleCollator_ToDashTypeValue_m6184468
EDa:__ZN7ApiGLES18DeleteRenderbufferERj
gCa:__ZL23ProgramUniformMatrix4fvPK7ApiGLESjiihPKv
NDa:__ZN7ApiGLES13CreateTextureEjj14GraphicsFormatiiiii
Ynd:_Array_new_gap_m262136975
lja:__ZN9ShaderLab20SerializedSubProgram15MatrixParameter8TransferI14SafeBinaryReadEEvRT_
kdc:__ZL27GetComponentsImplementationILb0ELi1EEbR10GameObjectbRK17CompareParametersRK39GetComponentsImplementation_ReturnValue
Jdf:_X509Store__ctor_m275383717
s1e:_SimpleCollator_LastIndexOfOrdinalIgnoreCase_m2984667899
YFc:_Round_Down_To_Grid
zEa:__ZN13RenderTexture7ReleaseEv
vtc:__Z18Transfer_BlittableI8JSONReadLb1EN4math12int3_storageEEvRK29SerializationCommandArgumentsR31RuntimeSerializationCommandInfo
lbb:__ZN10MeshFilter23VirtualRedirectTransferER14SafeBinaryRead
akd:_X509CertificateEnumerator_MoveNext_m2269241175
vbb:__ZN12MeshRenderer17MainThreadCleanupEv
wLi:__ZN6il2cpp2vmL10InitLockedEP11Il2CppClassRKNS_2os12FastAutoLockE
tHa:__ZN22CreateGpuProgramOutput12CreateParamsEv
rJ:__ZN10ObjectPoolIN4FMOD7ChannelENS0_8ChannelIEE7GetFreeEi
wme:_InternalEnumerator_1_System_Collections_IEnumerator_get_Current_m548105685_gshared
Cua:__ZNK14GfxContextGLES13GetDefaultFBOEv
nqd:_Byte_System_IConvertible_ToType_m2251112646
aTg:__Z81RuntimeInvoker_Char_t3634460470_RuntimeObject_Int32_t2950945753_Int16_t2552820387PFvvEPK10MethodInfoPvPS4_
tuf:_DateTime_get_Hour_m4153505178_AdjustorThunk
vAi:_AudioExtensionManager_WriteExtensionProperties_m3028464154
Qmf:_Evidence_Equals_m1478353107
aac:__Z13GetImagePixelI10ColorRGBAfET_PKhii13TextureFormat15TextureWrapModeS5_ii
C3g:_List_1_System_Collections_IList_set_Item_m1842844683_gshared
lji:_ObjectPool_1__ctor_m2535233435_gshared
b7i:__ZN6il2cpp2vm6Thread49CheckCurrentThreadForInterruptAndThrowIfNecessaryEv
EEf:_CultureInfo_construct_datetime_format_m1928121315
i5:__ZNSt3__23mapIN9ShaderLab16FastPropertyNameEN18UnityPropertySheet11UnityTexEnvENS_4lessIS2_EENS_9allocatorINS_4pairIKS2_S4_EEEEEixERS9_
HCa:__ZNK13TranslateGLES25GetTextureTargetDimensionEj
c6h:_ReadOnlyCollection_1_System_Collections_IList_Remove_m1842121503_gshared
jJd:_File_OpenRead_m2936789020
qjc:__Z47Texture2D_CUSTOM_INTERNAL_CALL_GetPixelBilinearP12Il2CppObjectffR10ColorRGBAf
Gyd:_Enumerator_get_Entry_m3561948123
MQg:__Z94RuntimeInvoker_Void_t1185182177_RuntimeObject_PlayableGraph_t3515989261_RuntimeObject_IntPtr_tPFvvEPK10MethodInfoPvPS4_
Ji:_emscripten_glVertexAttrib4f
ina:__ZNSt3__26vectorIN20GpuProgramParameters14ConstantBufferENS_9allocatorIS2_EEE8__appendEj
ref:_X509CertificateCollection_AddRange_m3683116910
cFe:_SinkProviderData__ctor_m1624738837
wSg:__Z88RuntimeInvoker_RuntimeObject_RuntimeObject_SByte_t1669577662_RuntimeObject_RuntimeObjectPFvvEPK10MethodInfoPvPS4_
lUd:_CustomAttributeTypedArgument_Equals_m2261980307
Gx:__ZN7mecanim12statemachine24CreateStateMachineMemoryEPKNS0_20StateMachineConstantERNS_6memory9AllocatorE
Ura:__ZN9GfxDevice18SetGlobalDepthBiasEff
GTi:__ZN6il2cpp6icalls8mscorlib6System8MonoType12get_AssemblyEP20Il2CppReflectionType
so:FUNCTION_TABLE_vi
Xi:_emscripten_glGetPointerv
o1h:_Dictionary_2_Do_CopyTo_TisKeyValuePair_2_t3842366416_TisRuntimeObject_m1564656153_gshared
fC:__ZN8Animator22ApplyBuiltinRootMotionEv
cHb:__Z26ApplyMaterialPassWithCacheRK18SharedMaterialDataR17ShaderPassContextP6ShaderPN9ShaderLab4PassEibPKNS6_10GrabPassesEPNS6_11SubProgramsEPK22DeviceRenderStateBlock
PQd:_MulticastDelegate_KPM_m22863605
cqe:_InternalEnumerator_1_get_Current_m1897120917_AdjustorThunk
nQd:_MonoType_ReorderParamArrayArguments_m2458683451
JMe:_FormatterConverter_ToInt16_m4282804414
wIg:__Z81RuntimeInvoker_Void_t1185182177_Int64_t3736567304_RuntimeObject_Int64_t3736567304PFvvEPK10MethodInfoPvPS4_
N2c:_StandaloneInputModule_ProcessTouchPress_m4019232747
eJd:_FileStream__ctor_m3151488352
Xnd:_Array_swap_m547389985
y3:__ZN8Renderer23VirtualRedirectTransferER14SafeBinaryRead
Mfg:_UInt32_ToString_m2420423038
A0g:_List_1_System_Collections_IList_Add_m634558835_gshared
IJd:_FileStream_get_Length_m426703983
GLi:__ZN6il2cpp2vmL15GetBitmapNoInitEP11Il2CppClassPjRjj
OH:__ZN12AudioManager5ResetEv
n8b:__ZN15DirectorManager18ScheduleGraphStartERK14HPlayableGraph
NB:__ZN7mecanim5human14RetargetToTDoFEPKNS0_5HumanEPNS0_9HumanPoseEPNS_8skeleton13SkeletonPoseTIN4math4trsXEEESB_
Rij:__ZN6il2cpp6icalls8mscorlib6System11Environment20GetWindowsFolderPathEi
uw:__ZN7mecanim5human18HumanPoseBlendNodeERNS0_9HumanPoseEPS1_f
fAc:_UNITY_FT_RoundFix
ypj:_GC_is_heap_ptr
E3e:_ASN1_DecodeTLV_m1200977460
ing:_UnityEventBase_PrepareInvoke_m1785382128
J8h:_ReadOnlyCollection_1_System_Collections_Generic_IListU3CTU3E_set_Item_m1584697503_gshared
xbb:__ZNK12MeshRenderer22GetTypeVirtualInternalEv
Zrd:_Char_System_IConvertible_ToUInt32_m3901815580
GWe:_Scrollbar_set_onValueChanged_m346467699
WKg:__Z157RuntimeInvoker_Int32_t2950945753_RuntimeObject_Int32_t2950945753_Int32_t2950945753_Int32_t2950945753_SByte_t1669577662_SByte_t1669577662_Int32U26_t1369213839PFvvEPK10MethodInfoPvPS4_
uK:__ZN4FMOD6System17setSoftwareFormatEi17FMOD_SOUND_FORMATii18FMOD_DSP_RESAMPLER
Oha:__ZN14SafeBinaryRead19TransferSTLStyleMapINSt3__23mapIN4core12basic_stringIcNS3_20StringStorageDefaultIcEEEES7_NS1_4lessIS7_EE13stl_allocatorINS1_4pairIKS7_S7_EEL18MemLabelIdentifier1ELi16EEEEEEvRT_17TransferMetaFlags
dPc:__ZN2UI6Canvas27UpdateEventIndexesRecursiveERi
qS:__ZN11UnityEngine15CloudWebService16SessionContainer21PrepareDataErrorEventERN4core12basic_stringIcNS2_20StringStorageDefaultIcEEEE
$$c:_ExecuteEvents_get_pointerUpHandler_m3515704212
Usd:_ArrayList_set_Item_m2003485935
a4d:_SatelliteContractVersionAttribute__ctor_m3630863995
U1c:_MouseButtonEventData_PressedThisFrame_m1060658845
cxb:__Z19TransferField_ArrayI19StreamedBinaryWriteILb0EE27Converter_SimpleNativeClassI8GUIStyleEEvRK23StaticTransferFieldInfoR31RuntimeSerializationCommandInfoRT0_
CMb:__Z27SetClippingPlaneShaderPropsR9GfxDevice
v6h:_ReadOnlyCollection_1_System_Collections_Generic_IListU3CTU3E_RemoveAt_m3969985996_gshared
qGj:_emscripten_glCopyTexSubImage2D__wrapper
Vad:_GraphicRegistry_GetGraphicsForCanvas_m4219276355
KEd:_NumberFormatter_FastToDecHex_m699829267
spi:_PatternCompiler_MakeFlags_m1977119795
jtc:__Z35Transfer_Blittable_FixedBufferFieldI8JSONReadiEvRK29SerializationCommandArgumentsR31RuntimeSerializationCommandInfo
Ula:__ZN15SerializeTraitsIN9ShaderLab16FastPropertyNameEE8TransferI19StreamedBinaryWriteILb0EEEEvRS1_RT_
JSi:__ZNSt3__213__vector_baseIN6il2cpp2os19SocketHandleWrapperENS_9allocatorIS3_EEED2Ev
lnh:__ZL48_Type_t3588564251_CustomAttributesCacheGeneratorP21CustomAttributesCache
dc:invoke_viiffi
wGd:_Int64_System_IConvertible_ToUInt32_m109903525
$oc:__ZN5Unity9rapidjson13GenericReaderINS0_4UTF8IcEES3_13JSONAllocatorE10ParseFalseILj0ENS0_19GenericStringStreamIS3_EENS0_15GenericDocumentIS3_S4_S4_EEEEvRT0_RT1_
ypg:_Mathf_CeilToInt_m432108984
Xbg:_TimeSpan_FromHours_m1109641064
jka:__Z14resize_trimmedINSt3__26vectorIN9ShaderLab18SerializedPropertyENS0_9allocatorIS3_EEEEEvRT_j
JDi:__ZL25UnresolvedVirtualCall_138P12Il2CppObject17Color_t2555686324faaPK10MethodInfo
GQi:__ZN6il2cpp2vm13MetadataCache38GetMethodInfoFromMethodDefinitionIndexEi
M_c:_EventSystem_set_current_m38955169
toi:_CostDelegate_EndInvoke_m2797921932
h7a:__ZN10VertexData8TransferI24GenerateTypeTreeTransferEEvRT_
XAf:_Double_IsInfinity_m820013146
ljj:__ZN13Il2CppHashMapIPK19Il2CppGenericMethodP10MethodInfoN6il2cpp8metadata23Il2CppGenericMethodHashENS6_26Il2CppGenericMethodCompareENSt3__29allocatorINS9_4pairIK10KeyWrapperIS2_ES4_EEEEEC2EjRKS7_RKS8_
bwg:_Screen_get_dpi_m495672463
y8f:_UTF8Encoding_InternalGetByteCount_m2120178851
OUb:__ZL10CullLightsRK22SceneCullingParametersR11CullResults
vCd:_Convert_ToUInt64_m3170916409
Bx:__ZN7mecanim12statemachine20GetBlendTreeConstantERKNS0_13StateConstantEi
jGd:_Int64_System_IConvertible_ToInt16_m4062196970_AdjustorThunk
JQd:_MonoType_GetGenericTypeDefinition_m3201894896
u1b:__Z40GetTemporaryCachePathApplicationSpecificv
_pa:__ZN9GfxDevice16EndAsyncJobFrameEv
eUg:__Z99RuntimeInvoker_Int32_t2950945753_Ray_t3785851493_RuntimeObject_Single_t1397266774_Int32_t2950945753PFvvEPK10MethodInfoPvPS4_
XCc:_UNITY_tt_face_load_hhea
ZVd:_DerivedType_get_Assembly_m2979298667
Tk:___syscall3
Wk:___syscall6
Yk:___syscall4
pT:__ZN11UnityEngine15CloudWebService20WebRequestRestClient17GetResponseStatusEv
xKe:_ReturnMessage__ctor_m2352989078
ZFg:__Z99RuntimeInvoker_Void_t1185182177_RuntimeObject_Int32_t2950945753_SByte_t1669577662_SByte_t1669577662PFvvEPK10MethodInfoPvPS4_
cnb:__ZNSt3__26__treeINS_12__value_typeIN4core12basic_stringIcNS2_20StringStorageDefaultIcEEEEPN16MemoryFileSystem4NodeEEENS_19__map_value_compareIS6_SA_NS_4lessIS6_EELb1EEE13stl_allocatorISA_L18MemLabelIdentifier55ELi16EEE7destroyEPNS_11__tree_nodeISA_PvEE
afj:__ZN6il2cpp2vm3RCW14QueryInterfaceILb1EEEP14Il2CppIUnknownP15Il2CppComObjectRK10Il2CppGuid
$be:_TlsServerCertificateRequest__ctor_m1334974076
VAd:_Convert_ToInt32_m1613163543
pUe:_MatEntry__ctor_m1949610076
X5h:_ReadOnlyCollection_1_System_Collections_ICollection_CopyTo_m3127175806_gshared
ml:_emscripten_glShaderBinary
Teg:_UInt16_ToString_m760649087
$lb:__ZNK20LocalFileSystemPosix6ExistsERK13FileEntryData
Pjg:_Camera_GetAllCameras_m668492922
BSc:__Z58Register_UnityEngine_Canvas_GetETC1SupportedCanvasMaterialv
lcg:_TimeSpan_op_Inequality_m2467851530
Bzb:__ZN17AnimationCurveTplIfE8TransferI18StreamedBinaryReadILb1EEEEvRT_
o0h:_Array_Sort_TisUIVertex_t4057497605_m3996333845_gshared
VUc:__ZN18UnityConnectClientD2Ev
pod:_Swapper_BeginInvoke_m1688449973
Olg:_Display_get_renderingWidth_m1970428952
zMg:__Z81RuntimeInvoker_Void_t1185182177_RuntimeObject_Int32_t2950945753_Int64_t3736567304PFvvEPK10MethodInfoPvPS4_
P0:__ZN13dynamic_arrayIcLj1EE6insertEPcPKcS3_
_Ig:__Z86RuntimeInvoker_Boolean_t97287965_Int16_t2552820387_Int16_t2552820387_Int32_t2950945753PFvvEPK10MethodInfoPvPS4_
iii:_IndexedSet_1_IndexOf_m241693686_gshared
_Tc:__ZN11UnityEngine15PlatformWrapper30GetGraphicsDriverLibraryStringEv
Wdd:_RuntimeMethodHandle_Equals_m3301340296_AdjustorThunk
igg:_UInt64_System_IConvertible_ToSingle_m925613075_AdjustorThunk
XAb:__Z18Transfer_BlittableI18StreamedBinaryReadILb0EELb0E4AABBEvRK29SerializationCommandArgumentsR31RuntimeSerializationCommandInfo
hfb:__ZN24GenerateTypeTreeTransfer19TransferSTLStyleMapINSt3__28multimapIN4core12basic_stringIcNS3_20StringStorageDefaultIcEEEE4PPtrI6ObjectENS1_4lessIS7_EE13stl_allocatorINS1_4pairIKS7_SA_EEL18MemLabelIdentifier52ELi16EEEEEEvRT_17TransferMetaFlags
QD:__ZN16MecanimAnimation24DeleteAnimatedPropertiesERP26IAnimatedPropertyEvaluator
zIi:_CanvasRenderer_SetMaterial_m824577244
wLb:__Z14DrawGUITextureRK5RectTIfEP7Texture11ColorRGBA32P8Materiali
r6h:_ReadOnlyCollection_1_System_Collections_Generic_ICollectionU3CTU3E_Add_m2686599243_gshared
SA:__ZN9BlobWrite8TransferI22OffsetPtrArrayTransferIKN4math7_float4EEEEvRT_PKc17TransferMetaFlags
jMb:__ZN22RenderingCommandBuffer20ExecuteCommandBufferER17ShaderPassContextR15RenderNodeQueuejP13dynamic_arrayINSt3__24pairIN9ShaderLab16FastPropertyNameEP13RenderTextureEELj4EE16ComputeQueueTypeSA_
syg:_Transform_IsChildOf_m224006092
XZa:__ZN15TextureSettings8TransferI24GenerateTypeTreeTransferEEvRT_
Usc:__ZN9JSONWrite8TransferI4AABBEEvRT_PKc17TransferMetaFlags
tOa:__ZN25MultiBlocksMemoryFileData9SetLengthEy
j1h:_Dictionary_2_Do_ICollectionCopyTo_TisRuntimeObject_m1855083806_gshared
iyi:_Aes__ctor_m178909601
F2a:__ZNK9Texture2D20GetRuntimeMemorySizeEv
Lkc:__ZN11Marshalling39CreateNullExceptionForUnityEngineObjectE18ScriptingObjectPtr
_oc:__ZN5Unity9rapidjson13GenericReaderINS0_4UTF8IcEES3_13JSONAllocatorE9ParseTrueILj0ENS0_19GenericStringStreamIS3_EENS0_15GenericDocumentIS3_S4_S4_EEEEvRT0_RT1_
um:_emscripten_glUniform2iv
Cxc:_UNITY_FT_Outline_Transform
ZLi:__ZN6il2cpp2vm5Class10GetMethodsEP11Il2CppClassPPv
MQb:__Z30AddDefaultStreamsToMeshBuffersR9GfxDeviceR11MeshBuffersRK16DrawBuffersRange17ShaderChannelMaskS6_
SCa:__ZN7ApiGLES17DeleteFramebufferERN2gl6HandleILNS0_10ObjectTypeE9EEES3_
vGa:__ZN15UniformTFMethod13MapBoneBufferEj
_Nc:__ZN2UI14CanvasRendererD2Ev
O2h:_Array_InternalArray__get_Item_TisParameterModifier_t1461694466_m29553316_gshared
BGd:_Int64_CompareTo_m1928360444_AdjustorThunk
aGb:__Z9SetupArgviPPKc
jBd:_Convert_ToInt64_m2075031821
iHj:_glTexParameteri__wrapper
G1a:__ZN12CubemapArray23VirtualRedirectTransferER24GenerateTypeTreeTransfer
v1:__ZN12FileAccessor4OpenER15FileSystemEntry14FilePermission16FileAutoBehavior
Mhj:__ZN6il2cpp2os9Directory6CreateERKNSt3__212basic_stringIcNS2_11char_traitsIcEENS2_9allocatorIcEEEEPi
A6:__ZN23TransformChangeDispatch32QueueTransformChangeIfHasChangedERK15TransformAccess
O0a:__ZNSt3__26vectorINS_4pairIN9ShaderLab16FastPropertyNameEN18UnityPropertySheet11UnityTexEnvEEENS_9allocatorIS6_EEE21__push_back_slow_pathIKS6_EEvRT_
GSd:_Assembly_get_FullName_m293988418
B:tempValue
ktj:__ZN6il2cpp8metadata24Il2CppGenericContextHash4HashEPK20Il2CppGenericContext
koe:_InternalEnumerator_1_get_Current_m356936020_AdjustorThunk
aih:_Collection_1_CheckWritable_m1583234367_gshared
QFd:_Int32_ToString_m141394615_AdjustorThunk
Ytd:_ArrayListWrapper_CopyTo_m498486826
DId:_Directory_GetCurrentDirectory_m219218555
Jkd:_SmallXmlParser_UnexpectedEndError_m1914362401
_x:__ZN26AnimatorControllerPlayable18DeallocateBindingsEv
Jva:__ZN14DelayedDeletorI15dense_hashtableINSt3__24pairIK9TextureIDiEES3_14GfxGenericHashIS3_EN14GfxDoubleCacheIS3_iS7_NS1_8equal_toIS3_EEN31GfxDoubleCacheConcurrencyPolicy11LocklessGetE42GfxDoubleCacheDefaultEmptyDeletedGeneratorIS3_EE9SelectKeyESA_13stl_allocatorIS5_L18MemLabelIdentifier24ELi16EEEEclEv
vN:__ZN11AudioSource19CreateOpenALRolloffEfff
RCc:_UNITY_FT_Stream_ReadAt
kbg:_TimeSpan__ctor_m1896986612_AdjustorThunk
PPi:__ZN15dense_hashtableINSt3__24pairIK10KeyWrapperIN6il2cpp5utils13dynamic_arrayIPK10Il2CppTypeLj4EEEEPFvvEEESA_NS3_8metadata19Il2CppSignatureHashEN14dense_hash_mapISA_SD_SG_NSA_14EqualsComparerINSF_22Il2CppSignatureCompareEEENS0_9allocatorISE_EEE9SelectKeyESK_SM_E9set_valueEPSE_RKSE_
fjd:_ArgumentException__ctor_m1216717135
ptg:_Ray_ToString_m1732834890_AdjustorThunk
md:_glReadBuffer
s3g:_List_1_System_Collections_IList_Contains_m3860993176_gshared
jO:__ZN11AudioModule22CreateAudioClipFromWWWEP10IWWWStreamPKcbbi
o5b:__ZN9Texture2DC2E10MemLabelId18ObjectCreationMode
Si:_emscripten_glRotatef
Xeg:_UInt32_System_IConvertible_ToBoolean_m1763673183_AdjustorThunk
cng:_UnityEvent_AddListener_m2276267359
eQc:__Z13RegisterClassIN2UI11CanvasGroupEEvv
B1b:__ZN6prcoreL11inner_clearILj4EEEvPhjjj
of:_emscripten_glClear
Soj:_GC_initialize_offsets
oea:__ZNK8Playable6HandleEv
kPe:_SetPropertyUtility_SetColor_m2229203028
Uwe:_Enumerator_MoveNext_m481679286_gshared
B$:__ZN14MessageHandler28MessageIDToMessageIdentifierEi
D7a:__ZNK11SpriteAtlas20GetRuntimeRenderDataEPK6Sprite
tId:_FileSystemInfo__ctor_m3035148496
gFd:_Int32_System_IConvertible_ToDecimal_m2190376994_AdjustorThunk
sKc:__ZN20TextRenderingPrivate15DynamicFontData36GetFaceForCharacterIfAvailableInFontERKNS_7FontRefERK13dynamic_arrayI4PPtrIN13TextRendering4FontEELj4EEj
Yv:__ZN7mecanim14ValueArrayCopyILb0EEEvPKNS_10ValueArrayEPS1_
eF:__Z51Register_UnityEngine_Animator_get_hasBoundPlayablesv
Ed:emscriptenWebGLGetUniform
to:FUNCTION_TABLE_iiiiiiiiiii
vvi:_GUI_CallWindowDelegate_m3309453386
iBc:_cff_set_mm_blend
vWb:__ZL10CleanUpJobP20CullingGroupsJobData
oId:_DirectoryInfo_get_Exists_m3142069876
nLb:__ZN13RenderManager15BatchModeUpdateEv
Gdf:_X509Chain_get_CertificateAuthorities_m804805415
N6a:__ZN14SafeBinaryRead21TransferSTLStyleArrayI13dynamic_arrayI8Vector2fLj4EEEEvRT_17TransferMetaFlags
k3:__ZN17PersistentManager51InstanceIDToLocalSerializedObjectIdentifierInternalEiR31LocalSerializedObjectIdentifier
rvg:_Vector2_get_one_m738793577
cac:__ZNK4Mesh14GetIndexFormatEv
hd:_glVertexAttribIPointer
W6f:_StringBuilder_ToString_m3317489284
jCa:__ZN13dynamic_arrayI21ComputeShaderResourceLj4EE9push_backERKS0_
pac:__ZNK6Sprite10GetPaddingE20SpriteRenderDataMode
QIf:_Array_InternalArray__ICollection_Remove_TisUInt32_t2560061978_m733727733_gshared
kfd:_CryptographicException__ctor_m503735289
bKd:_Stream_EndRead_m1896469262
QAg:__Z93RuntimeInvoker_Boolean_t97287965_Int32_t2950945753_SByte_t1669577662_ExceptionU26_t3600731591PFvvEPK10MethodInfoPvPS4_
GOb:__ZN14qsort_internal5QSortIP15RODataDepthPassi17ROSorterDepthPassEEvT_S4_T0_T1_
BDc:_UNITY_ft_glyphslot_alloc_bitmap
xfe:_RSASslSignatureDeformatter_SetHashAlgorithm_m895570787
Mni:_X509CrlEntry__ctor_m4013514048
RPg:__Z87RuntimeInvoker_Color_t2555686324_Color_t2555686324_Color_t2555686324_Single_t1397266774PFvvEPK10MethodInfoPvPS4_
uIc:_ft_raster1_render
rlc:__Z47Register_UnityEngine_Mesh_RecalculateBoundsImplv
lqa:__ZN9GfxDevice27UpdateComputeSkinPoseBufferEP9GfxBufferP12SkinMeshInfo
Axj:__ZNKSt3__221__basic_string_commonILb1EE20__throw_length_errorEv
TWf:_EqualityComparer_1_System_Collections_IEqualityComparer_Equals_m245992594_gshared
yMf:_Array_InternalArray__IndexOf_TisParameterModifier_t1461694466_m1227120810_gshared
TDa:__ZN18GfxFramebufferGLES13ReadbackImageER14ImageReferenceiiiiii
Cpc:__ZN5Unity9rapidjson6WriterI16TempBufferWriterNS0_4UTF8IcEES4_13JSONAllocatorE11WriteStringEPKcj
$cd:_SerializationInfo_SetType_m3923964808
wza:__ZN6prcoreL12RemapGenericI17TexFormatARGB888815TexFormatRGB565EEvPKNS_9InnerInfoE
$I:__ZN4FMOD7Channel19setReverbPropertiesEPK29FMOD_REVERB_CHANNELPROPERTIES
iMd:_StreamReader_Dispose_m156389394
k_:__ZN13MonoBehaviour22GetScriptFullClassNameEv
p3b:__ZN13ProduceHelperI11MonoManagerLb0EE7ProduceE10MemLabelId18ObjectCreationMode
jif:_RIPEMD160Managed_JJ_m112143231
cOb:__ZN13BatchRendererC2ER15RenderLoopStatsRK15RenderNodeQueuebb
Vmb:__ZNK16MemoryFileSystem9EnumerateEPKcP19dynamic_block_arrayI13FileEntryInfoLj32EEbPPv19FileEnumerationFlag
_Db:__ZN13MonoBehaviour9CallAwakeEv
AYa:__ZN20SphericalHarmonicsL211AddWeightedERKS_f
SDg:__Z82RuntimeInvoker_RuntimeObject_Int64_t3736567304_Int64_t3736567304_Int64_t3736567304PFvvEPK10MethodInfoPvPS4_
htb:__Z19TransferField_ArrayI17RemapPPtrTransfer27Converter_SimpleNativeClassI8GUIStyleEEvRK23StaticTransferFieldInfoR31RuntimeSerializationCommandInfoRT0_
mqc:__ZN9JSONWrite8TransferI10ColorRGBAfEEvRT_PKc17TransferMetaFlags
v$:__Z25scripting_method_get_name18ScriptingMethodPtr
Ife:_SslCipherSuite_ComputeKeys_m661027754
urg:_Object_set_name_m291480324
xyf:_Decimal_Equals_m2486655999
Uoj:_GC_exit_check
V0d:_MonoField_ToString_m2518484388
A4e:_DSAManaged_get_Random_m923751780
bze:_Transform_1_Invoke_m2385719192_gshared
rzg:_Vector3_set_Item_m1772472431_AdjustorThunk
zgf:_Interpreter_PopulateGroup_m4042796257
l_b:__ZNSt3__26vectorINS_4pairIN4core12basic_stringIcNS2_20StringStorageDefaultIcEEEES6_EE13stl_allocatorIS7_L18MemLabelIdentifier38ELi16EEE6insertENS_11__wrap_iterIPKS7_EERSD_
Dng:_RenderPipelineManager_DoRenderLoop_Internal_m3799666479
JA:__ZN9BlobWrite8TransferI22OffsetPtrArrayTransferI9OffsetPtrIN7mecanim12statemachine18StateMachineMemoryEEEEEvRT_PKc17TransferMetaFlags
tfh:_Collection_1_System_Collections_IList_IndexOf_m3894953546_gshared
Yli:_PKCS12_get_Certificates_m26161562
n8e:_NameObjectCollectionBase_Init_m2525481323
ekj:__ZN6il2cpp2vm6String8NewUtf16EPKDsi
ged:_SByte_System_IConvertible_ToByte_m2268214252_AdjustorThunk
vhj:__ZN6il2cpp2os10ThreadImpl12QueueUserAPCEPFvPvES2_
_si:_RegularExpression__ctor_m119502265
LUc:__ZN22BaseUnityConnectClient10QueueEventERN11UnityEngine15CloudWebService17CloudServiceEventEPKcjb
s6h:_ReadOnlyCollection_1_System_Collections_Generic_ICollectionU3CTU3E_Clear_m522482168_gshared
JIe:_ConstructionCall_InitMethodProperty_m2021094586
rGc:_UNITY_FT_Hypot
oYh:__ZL74CanvasScaler_t2767979955_CustomAttributesCacheGenerator_m_DefaultSpriteDPIP21CustomAttributesCache
S3i:_il2cpp_class_is_abstract
yf:_emscripten_glGetError
q1i:__ZN15dense_hashtableINSt3__24pairIK10KeyWrapperIPK14Il2CppAssemblyEPK22Il2CppMonoAssemblyNameEES6_N6il2cpp5utils11PointerHashIS4_EEN14dense_hash_mapIS6_SA_SF_NS6_14EqualsComparerINS0_8equal_toIS5_EEEENS0_9allocatorISB_EEE9SelectKeyESK_SM_E14squash_deletedEv
MJ:__Z14FMOD_FILE_SeekPvjS_
KUe:_MaskableGraphic_OnDisable_m1757789159
jZa:__ZN7TextureC2E10MemLabelId18ObjectCreationMode
zSe:_LayoutGroup__ctor_m2162961217
wXb:__ZNK13RenderTexture32CalculateNeedsInvertedProjectionEv
z0b:__ZN10systeminfo18GetOperatingSystemEv
Gf:emscriptenWebGLGet
Iaa:__Z19CanReplaceComponentRN5Unity9ComponentEPKNS_4TypeEPN4core12basic_stringIcNS5_20StringStorageDefaultIcEEEE
iOd:_UnmanagedMemoryStream_Flush_m1540584491
GCd:_GuidParser_ParseGuid2_m1914838819
h5b:__ZN12CubemapArray11InitTextureEiii13TextureFormatb
KBd:_Convert_ToSingle_m3983149863
Mie:_InternalEnumerator_1_System_Collections_IEnumerator_get_Current_m55999184_gshared
X9c:_Graphic_get_depth_m815589653
Zui:_Event_set_displayIndex_m1342258734
qB:__ZN7mecanim5human13HumanFixTwistEPKNS0_5HumanEPNS_8skeleton13SkeletonPoseTIN4math4trsXEEES9_iiRKf
uRb:__ZL24AssignProjectorQueuesJobP30AssignProjectorQueuesJobHeader
G2d:_ParameterModifier_t1461694466_marshal_pinvoke
WPi:__ZN15dense_hashtableINSt3__24pairIK10KeyWrapperIN6il2cpp5utils13dynamic_arrayIPK10Il2CppTypeLj4EEEEPFvvEEESA_NS3_8metadata19Il2CppSignatureHashEN14dense_hash_mapISA_SD_SG_NSA_14EqualsComparerINSF_22Il2CppSignatureCompareEEENS0_9allocatorISE_EEE9SelectKeyESK_SM_E4swapERSP_
qna:__ZN9ShaderLab20SerializedSubProgram14SetConstBufferEPKci
dWi:__ZN6il2cpp2os4File5CloseEPNS0_10FileHandleEPi
vPi:__ZNSt3__27__sort5IRN6il2cpp5utils11collections13ArrayValueMapIPK10Il2CppType17Il2CppInteropData26InteropDataToTypeConverterNS1_8metadata14Il2CppTypeLessENSA_26Il2CppTypeEqualityComparerEE12SortComparerEPS8_EEjT0_SH_SH_SH_SH_T_
Beg:_UInt16_CompareTo_m2664746316_AdjustorThunk
$W:__Z40DebugStringToFilePostprocessedStacktraceRK21DebugStringToFileData
_uc:__Z29Transfer_Blittable_ArrayFieldI8JSONReadjEvRT_R9ArrayInfoRK23StaticTransferFieldInfo
_oj:_GC_check_finalizer_nested
mg:__setLetterbox
wYe:_ScrollRect_OnScroll_m3861066534
QCe:_Dictionary_2_ToTKey_m224697230_gshared
RMh:__ZL72FormerlySerializedAsAttribute_t2859083114_CustomAttributesCacheGeneratorP21CustomAttributesCache
Toc:__ZN8JSONRead32GetValueForKeyWithNameConversionEPKN5Unity9rapidjson12GenericValueINS1_4UTF8IcEE13JSONAllocatorEEPKc
Opi:_PatternCompiler_EmitFastRepeat_m3012952683
hab:__ZNSt3__26vectorI17BlendShapeChannelNS_9allocatorIS1_EEE6assignINS_11__wrap_iterIPS1_EEEENS_9enable_ifIXaasr21__is_forward_iteratorIT_EE5valuesr16is_constructibleIS1_NS_15iterator_traitsISA_E9referenceEEE5valueEvE4typeESA_SA_
s0b:__ZN11TimeManager11GetRealtimeEv
eK:__ZN29AudioEffectInternalDefinitionC2EP26UnityAudioEffectDefinitionb
cbi:_ReadOnlyCollection_1_System_Collections_IList_Remove_m2434650390_gshared
Ueg:_UInt16_ToString_m3056878594_AdjustorThunk
msj:__ZN6il2cpp2os9FastMutexD2Ev
whf:_Interval_get_IsSingleton_m3386290029
lYi:__ZNSt3__2plIcNS_11char_traitsIcEENS_9allocatorIcEEEENS_12basic_stringIT_T0_T1_EERKS9_PKS6_
nxg:_Time_get_unscaledDeltaTime_m4270080131
Kbb:__ZN4Mesh14GetMeshBuffersER11MeshBuffers17ShaderChannelMaskPS_b
$jf:_SHA384Managed__ctor_m3220477113
vya:_stbir_resize
LLf:_Array_IndexOf_TisCustomAttributeTypedArgument_t2723150157_m3158556463_gshared
nCf:_Environment_GetOSVersionString_m407782784
gsf:_DecoderExceptionFallback_Equals_m1082173956
drh:__ZL69Assembly_t_CustomAttributesCacheGenerator_Assembly_GetName_m981771927P21CustomAttributesCache
zOa:__Z37ReadDirectoryInfo_UnityWebAndUnityRawR12FileAccessorRKN20ArchiveStorageHeader6HeaderERNS1_13DirectoryInfoE
T9:__ZNSt3__26__treeINS_12__value_typeIPKciEENS_19__map_value_compareIS3_S4_15compare_tstringIS3_ELb1EEENS_9allocatorIS4_EEE7destroyEPNS_11__tree_nodeIS4_PvEE
QPf:_Array_InternalArray__Insert_TisIntPtr_t_m189626842_gshared
Lcf:_X509Certificate2_get_IssuerName_m1277209535
Fid:_RijndaelManaged_CreateEncryptor_m263736311
EOb:__ZN20DynamicPropertySheet14SetValueQueuedEN9ShaderLab16FastPropertyNameEN19ShaderPropertySheet12PropertyTypeEjNS2_8SetFlagsE
OOc:__ZN2UI6Canvas26MarkAllNestedCanvasesDirtyEv
Jmg:_InvokableCallList_ClearPersistent_m1904264973
AFb:__ZN25PathNamePersistentManagerD2Ev
OY:__ZN17PersistentManager48IntegrateObjectAndUnlockIntegrationMutexInternalEi
Hga:__ZZ29InitializeSortingGroupManagerPvEN44PostLateUpdateSortingGroupsUpdateRegistrator7ForwardEv
RRh:__ZL55EventTrigger_t1076084509_CustomAttributesCacheGeneratorP21CustomAttributesCache
Hnf:_SecurityElement_SearchForChildByTag_m900466299
mp:__ZN6Object12SetHideFlagsENS_9HideFlagsE
p4e:_CryptoConvert_FromCapiPublicKeyBlob_m4073029974
fEj:_emscripten_glGetFramebufferAttachmentParameteriv__wrapper
PLb:__ZN13RendererScene15InitializeUmbraEv
rXa:__Z28CalculateGlobalMatrixInverse23TransformAccessReadOnly
wZf:_GenericEqualityComparer_1_Equals_m3457564127_gshared
T5d:_BigInteger_ModInverse_m2426215562
csf:_DecoderExceptionFallback__ctor_m4044614564
nOd:_LocalDataStoreSlot__cctor_m644942532
itj:__ZN6il2cpp6icalls8mscorlib6System6Object7GetTypeEP12Il2CppObject
K1d:_MonoProperty_CachePropertyInfo_m2968057423
gYc:__ZNK25UnityWebRequestJavaScript18GetDownloadedBytesEv
ntg:_Ray_GetPoint_m1852405345_AdjustorThunk
QGf:_Array_get_swapper_TisColor32_t2600501292_m2310851009_gshared
_Xc:__ZN12HeaderHelper14SetUnvalidatedERKN4core12basic_stringIcNS0_20StringStorageDefaultIcEEEES6_b
cG:__ZN4FMOD6SoundI7releaseEv
Wzc:_cff_parse_num
bPa:__ZN10MemoryFile9SetLengthEy
mvb:__ZN5RectTIiE8TransferI24GenerateTypeTreeTransferEEvRT_
v4a:__ZN14SafeBinaryRead21TransferSTLStyleArrayI13dynamic_arrayI7Hash128Lj8EEEEvRT_17TransferMetaFlags
CEb:__Z28scripting_class_is_interface17ScriptingClassPtr
Dh:_glTexStorage2D
Qxd:_SyncHashtable_get_Item_m2686606216
Nma:__ZNK9ShaderLab10SubProgram14EnsureCompiledEv
bZd:_MethodBuilder_GetGenericArguments_m1765425737
Nuf:_DateTime_CompareTo_m3687348273
Pnj:_GC_push_marked
Vvf:_DateTime_ToUniversalTime_m1945318289_AdjustorThunk
x2e:_Kernel_modInverse_m668448880
l$:__Z18BuildScriptClassId17ScriptingClassPtr
eHi:_TextGenerator_Init_m1168488231
CMa:__ZL31DeleteLastPathNameComponentImplRKN4core12basic_stringIcNS_20StringStorageDefaultIcEEEEPKc
n2b:__Z13RegisterClassI18DelayedCallManagerEvv
YUc:__ZN18UnityConnectClient15GetCloudServiceEv
vtb:__Z18Transfer_BlittableI24GenerateTypeTreeTransferLb0EiEvRK29SerializationCommandArgumentsR31RuntimeSerializationCommandInfo
jne:_InternalEnumerator_1_get_Current_m2698009637_gshared
DSi:__ZN6il2cpp2os19SocketHandleWrapperD2Ev
cAe:_Enumerator_System_Collections_IEnumerator_Reset_m278261807_gshared
vEb:__ZL28SerializationCommandGroupForRK31TransferFunctionScriptingTraits17ScriptingClassPtr17ScriptingFieldPtrRK20CoreScriptingClasses
GRa:__ZN10TagManager32RegisterDefaultTagsAndLayerMasksEv
ebg:_WaitHandle_Dispose_m738127030
WJg:__Z50RuntimeInvoker_Double_t594665363_Int32_t2950945753PFvvEPK10MethodInfoPvPS4_
BSg:__Z104RuntimeInvoker_Void_t1185182177_Color_t2555686324_Single_t1397266774_SByte_t1669577662_SByte_t1669577662PFvvEPK10MethodInfoPvPS4_
B1f:_Enumerator_System_Collections_IEnumerator_get_Current_m1540440674_gshared
Cof:_Single_System_IConvertible_ToInt16_m809233024_AdjustorThunk
Nvj:_fmodf
IOe:_InputField_UpdateLabel_m1837760870
Lua:__ZN4gles8InitCapsEP7ApiGLESP12GraphicsCapsR16GfxDeviceLevelGL
Pya:__ZN6prcore14BlitImageFloatERK14ImageReferenceRS0_NS0_8BlitModeE
WUa:__Z24CalculateVertexLightDataRK15SharedLightDataR14GfxVertexLight
li:_glEnable
Kma:__ZNK9ShaderLab7Program28BeginReadUnsupportedVariantsEv
m6:__ZN12CachedWriter11Align4WriteEv
Qfb:__ZNSt3__26vectorIN30RuntimeInitializeOnLoadManager9ClassInfoE13stl_allocatorIS2_L18MemLabelIdentifier13ELi16EEE7reserveEj
zqc:__Z35Transfer_Blittable_FixedBufferFieldI9JSONWriteiEvRK29SerializationCommandArgumentsR31RuntimeSerializationCommandInfo
MZf:_Enumerator__ctor_m1590062855_AdjustorThunk
o2i:__ZN14dense_hash_mapI10KeyWrapperINSt3__24pairIPK10MethodInfoP11Il2CppClassEEEj17ReflectionMapHashIS8_ENS9_14EqualsComparerINS1_8equal_toIS8_EEEENS1_9allocatorINS2_IKS9_jEEEEEC2EjRKSB_RKSF_
Sx:__ZN26AnimatorControllerPlayable17ProcessRootMotionEP35AnimationPlayableEvaluationConstantP32AnimationPlayableEvaluationInputP33AnimationPlayableEvaluationOutput
ONd:_UnexceptionalStreamReader_Peek_m1842169584
ATc:__ZN11UnityEngine7Connect15DeviceInfoEvent16CollectExtraInfoEv
Uig:_Bounds_GetHashCode_m1844059663_AdjustorThunk
Bfd:_CryptographicException__ctor_m1422015889
Qzg:_Vector4_Equals_m1779210055_AdjustorThunk
wCd:_Convert_ChangeType_m739676612
Qlj:__ZThn8_N6il2cpp2vm13CachedCCWBaseINS0_13ManagedObjectEE6AddRefEv
I9d:_Alert_GetAlertMessage_m1942367141
BGe:_RemotingServices_GetRealProxy_m2081098851
g4e:_BlockProcessor_Core_m189015002
nEj:_emscripten_glScissor__wrapper
yo:FUNCTION_TABLE_viifi
zo:FUNCTION_TABLE_viiff
mjd:_X501__cctor_m1166912714
TUe:_MaskUtilities_GetRectMasksForClip_m532898711
IGc:_UNITY_tt_face_free_hdmx
ujg:_Bounds_ToString_m4208690781
TWi:__ZN6il2cpp2vm14TypeNameParser5ParseEb
EOd:_Math_Sqrt_m1297338011
BMd:_StreamWriter_Initialize_m3490883444
Ddg:_Type_GetGenericArguments_m3500465462
bXc:__ZN23UnityPurchasingSettingsC2Ev
S$d:_Module_IsDefined_m2423524910
BVd:_DerivedType_create_unmanaged_type_m747846525
FPh:__ZL60EventType_t3528516131_CustomAttributesCacheGenerator_repaintP21CustomAttributesCache
LTa:__ZN17GPUFenceInternals7ReleaseEv
hXh:__ZL66Selectable_t3250028441_CustomAttributesCacheGenerator_m_NavigationP21CustomAttributesCache
xXb:__ZL10RenderFaceR9GfxDeviceR18MaterialStateCacheP13RenderTextureiif
KLf:_Array_IndexOf_TisCustomAttributeNamedArgument_t287865710_m2817957199_gshared
wja:__ZN15SerializeTraitsI13dynamic_arrayIN9ShaderLab21SerializedBindChannelELj4EEE19ResizeSTLStyleArrayERS3_i
ccj:__ZNK24NamespaceAndNamePairHashclERKNSt3__24pairIPKcS3_EE
lli:_ExtendedKeyUsageExtension_ToString_m2116504780
Jib:__ZNK5Unity9Component38MarkGameObjectAndComponentDependenciesER27GarbageCollectorThreadState
THd:_BinaryReader_Read_m3708759962
vYc:__ZN20UnityWebRequestProtoI24UnityWebRequestTransport16AtomicRefCounter14RedirectHelper14ResponseHelper15DownloadHandler13UploadHandler12HeaderHelper14AsyncOperationED0Ev
qua:__ZN9GfxDevice26CreateDefaultVertexBuffersEv
GFj:_emscripten_glVertexAttrib2fv__wrapper
aNd:_SynchronizedReader_ReadToEnd_m2160105378
KAf:_Double_System_IConvertible_ToUInt16_m4132603953_AdjustorThunk
Jxa:__ZN4crnd12symbol_codec32decode_receive_static_data_modelERNS_25static_huffman_data_modelE
Q0b:__ZN18ScriptingArguments8AddFloatEf
Axg:_TouchScreenKeyboard_Open_m3325559252
acd:_Image_set_fillOrigin_m469806249
oTc:__ZN11UnityEngine15PlatformWrapper16GetVRRenderScaleEv
zrc:__Z18Transfer_BlittableI9JSONWriteLb0EaEvRK29SerializationCommandArgumentsR31RuntimeSerializationCommandInfo
MR:__ZN11UnityEngine15CloudWebService14DataDispatcher34OnSessionContainerArchivedAndReadyERNS0_16SessionContainerE
Yqg:_ConnectionChangeEvent__ctor_m764126802
$2d:_ResolveEventHandler_Invoke_m1337322179
t0f:_Enumerator_VerifyState_m2621680056_gshared
Vti:_UriParser_InternalRegister_m3643767086
Uha:__ZN14SafeBinaryRead19TransferSTLStyleMapINSt3__23mapIN4core12basic_stringIcNS3_20StringStorageDefaultIcEEEEiNS1_4lessIS7_EENS1_9allocatorINS1_4pairIKS7_iEEEEEEEEvRT_17TransferMetaFlags
UEc:_gray_move_to
Swf:_DBNull_System_IConvertible_ToSingle_m13713620
x5h:_ReadOnlyCollection_1_System_Collections_IList_Contains_m1327645028_gshared
ncd:_Image_GetDrawingDimensions_m3060965396
eNh:__ZL69FontTextureRebuildCallback_t2467502454_CustomAttributesCacheGeneratorP21CustomAttributesCache
Wdg:_TypeLoadException__ctor_m1154572625
_dc:__Z30RegisterValidateMethodCallbackiPF18ScriptingMethodPtrS_17ScriptingClassPtrP6ObjectEPKc
Oce:_Context_get_WriteSequenceNumber_m1115956887
w1h:_Dictionary_2_Do_ICollectionCopyTo_TisKeyValuePair_2_t2401056908_m1169495264_gshared
NZd:_OpCodes__cctor_m3821715395
a6c:_ContentSizeFitter__ctor_m2349275633
fEc:_tt_cmap_init
Rvc:__ZN8JSONRead8TransferI9BoundsIntEEvRT_PKc17TransferMetaFlagsb
Ia:invoke_viidi
Z$h:_Array_Sort_TisOrderBlock_t1585977831_m2922111197_gshared
O9c:_Graphic_OnRectTransformDimensionsChange_m3695755375
ied:_SByte_System_IConvertible_ToChar_m1489191771_AdjustorThunk
FI:__ZN9AudioClip7CleanupEv
y6i:__ZNK15dense_hashtableINSt3__24pairIK10KeyWrapperIP11Il2CppClassES4_EES5_N6il2cpp8metadata16SZArrayClassHashEN14dense_hash_mapIS5_S4_SA_NS5_14EqualsComparerINS9_19SZArrayClassCompareEEENS0_9allocatorIS7_EEE9SelectKeyESE_SG_E12test_deletedEj
suc:__Z18Transfer_BlittableI8JSONReadLb0EdEvRK29SerializationCommandArgumentsR31RuntimeSerializationCommandInfo
QHe:_SynchronizationAttribute_EnterContext_m1660729920
OHi:_Canvas_get_referencePixelsPerUnit_m3420541976
bvi:_Event_get_current_m2393892120
kzi:_VertexHelper_Clear_m627349662
WSi:__ZN6il2cpp2vm21ThreadPoolCompartment13QueueWorkItemEP17Il2CppAsyncResult
npa:__ZNK9GfxDevice13GetViewMatrixEv
jOd:_UnmanagedMemoryStream_Dispose_m2681886347
Jhb:__ZN17RemapPPtrTransferC2E24TransferInstructionFlagsb
qAd:_Convert_ToDecimal_m889385228
J0:__ZN8TypeTree8BlobReadERPKhS1_ib
Pnd:_Array_Reverse_m3714848183
i8c:_Dropdown_ClearOptions_m4085591601
n5c:_CanvasUpdateRegistry_InternalRegisterCanvasElementForGraphicRebuild_m3522560454
lgb:__ZN18LoadSceneOperation23GetAllowSceneActivationEv
eSa:__ZN6CameraD0Ev
tfa:__ZN31CanvasBatchIntermediateRenderer16StaticInitializeEPv
ix:__ZN7mecanim12AndValueMaskILb0EEEvPKNS_14ValueArrayMaskEPS1_
Efb:__ZN14SafeBinaryRead21TransferSTLStyleArrayINSt3__26vectorIi13stl_allocatorIiL18MemLabelIdentifier13ELi16EEEEEEvRT_17TransferMetaFlags
c5f:_EncoderFallback__cctor_m3806755293
RKc:_raccess_guess_apple_double
OBa:__ZL18ProgramUniform1uivPK7ApiGLESjiihPKv
r5b:__ZN14Texture2DArray13RebuildMipMapEv
VMi:__ZN13Il2CppHashSetIPK17Il2CppGenericInstN6il2cpp8metadata21Il2CppGenericInstHashENS4_24Il2CppGenericInstCompareENSt3__29allocatorI10KeyWrapperIS2_EEEEC2EjRKS5_RKS6_
Sob:__Z18Transfer_BlittableI14SafeBinaryReadLb1EaEvRK29SerializationCommandArgumentsR31RuntimeSerializationCommandInfo
Cij:__ZN6il2cpp2gc16GarbageCollector14RemoveWeakLinkEPPv
rna:__ZN9ShaderLab20SerializedSubProgram14AddVectorParamEPKcii15ShaderParamTypei
U2g:_List_1_GetEnumerator_m563931292_gshared
Yyd:_Enumerator__ctor_m3362421874
YQg:__Z117RuntimeInvoker_CSSSize_t3377836552_IntPtr_t_Single_t1397266774_Int32_t2950945753_Single_t1397266774_Int32_t2950945753PFvvEPK10MethodInfoPvPS4_
JJj:_emscripten_glIsFramebuffer__wrapper
Cfj:__ZN6il2cpp2vm6Object3BoxEP11Il2CppClassPv
m7i:__ZN6il2cpp2vm6Thread7SetNameEP12Il2CppThreadP12Il2CppString
IGb:__ZN13ScreenManager18SetAllowCursorLockEb
eT:__ZN11UnityEngine15CloudWebService10RestClientINS0_23WebRequestRestHeaderMapEE16SetRequestHeaderERKN4core12basic_stringIcNS4_20StringStorageDefaultIcEEEESA_
Jfb:__ZN30RuntimeInitializeOnLoadManager15ClassMethodInfo8TransferI14SafeBinaryReadEEvRT_
BIe:_ConstructionCall_InitDictionary_m2824447813
BP:__ZL22InitializeModule_Audiov
Imb:__ZN16MemoryFileSystem8IsLockedERK13FileEntryData
V8i:__ZN6il2cpp6icalls8mscorlib6System2IO6MonoIO5WriteEiP11Il2CppArrayiiPi
Ipg:_Mathf_InverseLerp_m4155825980
hHg:__Z92RuntimeInvoker_RuntimeObject_RuntimeObject_RuntimeObject_SByte_t1669577662_SByte_t1669577662PFvvEPK10MethodInfoPvPS4_
Zk:_emscripten_glBindRenderbuffer
D0g:_List_1_System_Collections_IList_Insert_m1011775503_gshared
Poj:_GC_dirty_init
Xcj:__ZN6il2cpp2vm5Image33GetCachedMemoryMappedResourceFileEP24Il2CppReflectionAssembly
ofj:__ZN6il2cpp2vm5Field14GetValueObjectEP9FieldInfoP12Il2CppObject
WPc:__ZNK2UI6Canvas16GetTargetDisplayEv
Obg:_TimeSpan_CompareTo_m3633415627_AdjustorThunk
ida:__ZN6Object17FindObjectsOfTypeEPKN5Unity4TypeER13dynamic_arrayIPS_Lj4EEb
LUe:_MaskableGraphic_OnTransformParentChanged_m329502413
UDb:__ZN13MonoBehaviour17RemoveFromManagerEv
pzg:_Vector3_get_Item_m668685504_AdjustorThunk
LSa:__ZN12ImageFilters14AddImageFilterERK11ImageFilter
NGe:_Context_NotifyDynamicSinks_m1841702879
Dvi:_GUIUtility_get_pixelsPerPoint_m2369948084
tnf:_WindowsIdentity_System_Runtime_Serialization_IDeserializationCallback_OnDeserialization_m3428853631
pW:__ZN13MemoryManagerC2Ev
HFa:__ZN12SkinMeshInfo10DeallocateEPS_
ZXe:_ScrollRect_SetDirty_m214267968
qPa:__ZN20ArchiveStorageReader28AcquireAndPrefillUnusedBlockEjPNS_11CacheResultE
tpd:_Boolean_System_IConvertible_ToDateTime_m603510836
l5b:__Z12NHxRoughnessIA4_tEvP9Texture2DPT_iiii
J3e:_ASN1_get_Value_m1857007406
Cda:__ZN18AsyncUploadManagerD2Ev
kkb:__ZN9Transform5ResetEv
Yyf:_Decimal_op_Explicit_m1842265407
Cvb:__Z22TransferField_NonArrayI24GenerateTypeTreeTransfer16Converter_StringEvRK23StaticTransferFieldInfoR31RuntimeSerializationCommandInfoRT0_
EIi:_CanvasRenderer_SetAlphaTexture_m2009567627
AAc:_UNITY_FT_CMap_New
Yje:_InternalEnumerator_1_get_Current_m4241643334_AdjustorThunk
BGb:__Z17MainLoopKeepalivePv
mqe:_InternalEnumerator_1_get_Current_m1588647567_AdjustorThunk
Suj:_printf_core
Lsh:__ZL51GCHandle_t3351438187_CustomAttributesCacheGeneratorP21CustomAttributesCache
HVb:__Z14CalcHullBoundsPK8Vector3fPKhhRK5PlaneRK10Matrix4x4fR10MinMaxAABB
$Oe:_InputField_get_caretBlinkRate_m3620074524
zOb:__Z19SetupLODFadeKeywordR17ShaderPassContexti
pjf:_RSAPKCS1SignatureFormatter_CreateSignature_m3191980616
g$a:__ZN10builtintex16GetDefaultTexEnvE16TextureDimensionb
jFa:__ZL25CheckCopyTextureArgumentsRK7ApiGLESP11GLESTextureS3_
wIj:_glDeleteShader__wrapper
$ub:__Z29Transfer_Blittable_ArrayFieldI24GenerateTypeTreeTransferyEvRT_R9ArrayInfoRK23StaticTransferFieldInfo
qJ:__ZN4FMOD7SystemI9playSoundE17FMOD_CHANNELINDEXPNS_5SoundEbPPNS_7ChannelE
EGd:_Int64_GetHashCode_m703091690
FEf:_CultureInfo_set_DateTimeFormat_m1843682751
Wui:_Event_get_commandName_m4275147343
hx:__ZN27AnimationLayerMixerPlayable17LayerMixerProcessEP35AnimationPlayableEvaluationConstantP32AnimationPlayableEvaluationInputP33AnimationPlayableEvaluationOutputM17AnimationPlayableFvS1_S3_S5_EMS_FvS1_S3_S5_ESA_MS_FvS5_S1_S3_S5_ifE
dzf:_Decimal_op_Implicit_m4256234411
RH:__ZN12AudioManager23VirtualRedirectTransferER18StreamedBinaryReadILb0EE
KDg:__Z60RuntimeInvoker_RuntimeObject_RuntimeObject_Int16_t2552820387PFvvEPK10MethodInfoPvPS4_
eMd:_StreamReader__ctor_m3941437302
fkc:__Z57Register_UnityEngine_Transform_INTERNAL_get_localRotationv
cBj:dynCall_viif
ls:__ZN7mecanim4hand8HandPoseC2Ev
XMd:_StringReader_ReadLine_m2337102945
Hsb:__ZL26Transfer_SimpleNativeClassI17RemapPPtrTransfer8GradientLb0EEvRK29SerializationCommandArgumentsR31RuntimeSerializationCommandInfo
Txd:_SyncHashtable_Add_m3016107307
Uy:__ZN17AnimationPlayable26DisconnectNoTopologyChangeEPS_i
aqd:_Boolean_Equals_m2410333903_AdjustorThunk
g7g:_List_1_System_Collections_IList_Contains_m2131605266_gshared
$T:__ZN13UploadHandlerD2Ev
Azj:dynCall_viiiiiffi
XFi:_Hacker__ctor_m518604791
zc:_emscripten_glBlendFuncSeparate
Dfh:_Collection_1_Add_m809543251_gshared
D_:__Z20scripting_string_newPKc
Eic:__Z43Material_CUSTOM_Internal_CreateWithMaterialP12Il2CppObjectS0_
dti:_Parser_IsSingleline_m326238187
Xvd:_CollectionBase_get_Count_m1708965601
Ygd:_HMAC__ctor_m97939284
dhg:_ValueType_DefaultEquals_m2927252100
Xpc:__ZN9JSONWrite12AppendToNodeEPN5Unity9rapidjson12GenericValueINS1_4UTF8IcEE13JSONAllocatorEEPKcRS6_
Q3e:_ASN1_ToString_m1340204511
Mdf:_X509Store_get_Certificates_m2149701265
GTh:__ZL144StandaloneInputModule_t2760469101_CustomAttributesCacheGenerator_StandaloneInputModule_t2760469101____allowActivationOnMobileDevice_PropertyInfoP21CustomAttributesCache
V6f:_StringBuilder_set_Chars_m3548656617
XVi:__ZN6il2cpp2os4File17GetFileAttributesERKNSt3__212basic_stringIcNS2_11char_traitsIcEENS2_9allocatorIcEEEEPi
_B:__ZNSt3__26__sortIRPFbPKN8Animator11AnimatorJobES4_EPS4_EEvT0_S9_T_
WG:__ZN17AudioCustomFilterD2Ev
KXg:__Z56RuntimeInvoker_Void_t1185182177_MonoResource_t4103430009PFvvEPK10MethodInfoPvPS4_
Imj:_GC_unpromote_black_lists
ADa:__ZN18GfxFramebufferGLES18ReleaseFramebufferEP17RenderSurfaceBaseP14GfxContextGLES
itc:__Z18Transfer_BlittableI8JSONReadLb1EiEvRK29SerializationCommandArgumentsR31RuntimeSerializationCommandInfo
oV:__ZN19CloudServiceHandler34HandleSaveFileWebRequestPlayerLoopEv
Gy:__ZN7mecanim21ValueArrayReverseCopyEPKNS_18ValueArrayConstantEPKNS_10ValueArrayES2_PS3_PKi
EG:__Z31GetParentSampleClipFromInstancePN11SoundHandle8InstanceE
L3b:__ZNK28RectTransformPropertyBinding13GetFloatValueERKN11UnityEngine9Animation10BoundCurveE
UXb:__ZN6Camera22StandaloneCustomRenderENS_10RenderFlagEP6ShaderRKN4core12basic_stringIcNS3_20StringStorageDefaultIcEEEEPNS_21PerformRenderFunctionE
eMf:_Array_InternalArray__IndexOf_TisKeyValuePair_2_t2401056908_m4118889689_gshared
$eb:__ZNSt3__26vectorI4PPtrI6ObjectE13stl_allocatorIS3_L18MemLabelIdentifier52ELi16EEE6assignINS_11__wrap_iterIPS3_EEEENS_9enable_ifIXaasr21__is_forward_iteratorIT_EE5valuesr16is_constructibleIS3_NS_15iterator_traitsISD_E9referenceEEE5valueEvE4typeESD_SD_
Ftj:__ZN6il2cpp2os16ThreadLocalValue8GetValueEPPv
Pcf:_X509Certificate2_get_PublicKey_m370665820
Nxc:_cff_slot_init
mRi:__ZN6il2cpp2vm13MetadataCache14GetGenericInstEPKPK10Il2CppTypej
EP:__ZN13AudioListener17ReadExtensionNameEi
Lb:invoke_iiidii
cp:setThrew
c5b:__ZL21BuildEmptyCubeTexturePKci11ColorRGBA3217TextureColorSpace
Xha:__ZN14SafeBinaryRead21TransferSTLStyleArrayINSt3__26vectorIN9ShaderLab20SerializedSubProgramENS1_9allocatorIS4_EEEEEEvRT_17TransferMetaFlags
DMf:_Array_InternalArray__IndexOf_TisX509ChainStatus_t133602714_m48896230_gshared
VNa:__ZN19dynamic_block_arrayI13FileEntryInfoLj32EE4growEj
rtc:__Z15Transfer_StringI8JSONReadLb1EEvRK29SerializationCommandArgumentsR31RuntimeSerializationCommandInfo
Aci:_Comparison_1_BeginInvoke_m816899747_gshared
jAa:__ZN6prcoreL17RemapGenericFloatI17TexFormatRGBFloat15TexFormatRGHalfEEvPKNS_9InnerInfoE
UCc:_sfnt_load_face
oKc:_UNITY_FT_Render_Glyph_Internal
N9i:__ZNSt3__212basic_stringIDsNS_11char_traitsIDsEENS_9allocatorIDsEEE21__grow_by_and_replaceEjjjjjjPKDs
UAc:_UNITY_ft_service_list_lookup
Zmc:__ZN5IMGUI21SelectReceivingWindowER8GUIStateb
mhd:_HMAC_Initialize_m3157696427
Uvj:___strchrnul
QV:__ZN13BaseAllocator13TryDeallocateEPv
Ibf:_X509SubjectKeyIdentifierExtension__ctor_m2055934916
VTa:__ZNSt3__26vectorIN12FlareManager10FlareEntryENS_9allocatorIS2_EEE21__push_back_slow_pathIKS2_EEvRT_
Ouj:_sprintf
Fdc:__ZN9Scripting25CreateNullExceptionObjectE18ScriptingObjectPtr
T5e:_PrivateKeyInfo_DecodeRSA_m2889346634
yH:__ZN13AudioListener17RemoveFromManagerEv
td:_glAttachShader
l6c:_ContentSizeFitter_SetLayoutHorizontal_m2833273874
hY:__ZNK6Camera19GetProjectionMatrixEv
SVh:__ZL70InputField_t3762917431_CustomAttributesCacheGenerator_m_SelectionColorP21CustomAttributesCache
BPe:_InputField_SetToCustomIfContentTypeIsNot_m2813459946
wKh:__ZL70RuntimePlatform_t4159857903_CustomAttributesCacheGenerator_FlashPlayerP21CustomAttributesCache
xGf:_Guid_GetHashCode_m3042133858_AdjustorThunk
c_:__Z38PreallocateObjectFromPersistentManagerib
Hgf:_Interpreter_Backtrack_m2828876822
M2a:__ZNK9Texture2D20GetUnscaledTextureIDEv
yed:_SByte_System_IConvertible_ToType_m4075253447
NGj:_glFenceSync__wrapper
nyg:_Transform_INTERNAL_get_worldToLocalMatrix_m2730237241
RQe:_InputField_IsValidChar_m1928072643
R2a:__ZNK9Texture2D26CanReuploadDataToGfxDeviceEv
mxh:__ZL63CodeAccessPermission_t2681295399_CustomAttributesCacheGeneratorP21CustomAttributesCache
Xgb:__Z29ClearRepeatingLogMessageStatev
zoe:_InternalEnumerator_1_get_Current_m3191242573_gshared
crd:_Byte_Equals_m1161982810_AdjustorThunk
Gfe:_SslCipherSuite_ComputeMasterSecret_m3963626850
EJa:__ZN7ApiGLESD2Ev
aRa:__ZN9Transform47ClearTransformHierarchyAndApplyToSerializedDataEv
Guc:__ZN8JSONRead21TransferSTLStyleArrayINSt3__26vectorI8MonoPPtr13stl_allocatorIS3_L18MemLabelIdentifier1ELi16EEEEEEvRT_17TransferMetaFlags
kSa:__ZN6Camera23VirtualRedirectTransferER19StreamedBinaryWriteILb0EE
tBj:dynCall_fidi
bZi:__ZN15dense_hashtableINSt3__24pairIK10KeyWrapperINS1_IPK9FieldInfoP11Il2CppClassEEEjEES9_17ReflectionMapHashIS8_EN14dense_hash_mapIS9_jSD_NS9_14EqualsComparerINS0_8equal_toIS8_EEEENS0_9allocatorISB_EEE9SelectKeyESI_SK_E12resize_deltaEjj
Ovi:_GUILayoutEntry__ctor_m2229197035
m4:__ZN15dense_hashtableINSt3__24pairIKN9ShaderLab7Program23ShaderKeywordSetAndHashEPKNS2_10SubProgramEEES4_NS3_24ShaderKeywordHashFunctorEN14dense_hash_mapIS4_S8_SA_NS0_8equal_toIS4_EE13stl_allocatorIS9_L18MemLabelIdentifier67ELi16EEE9SelectKeyESD_SG_E15insert_noresizeERKS9_
Ddc:__ZNK13MonoBehaviour13GetScriptTypeEv
hZa:__ZN13RenderTexture12SetDimensionE16TextureDimension
t4e:_DSAManaged_add_KeyGenerated_m2286864968
je:_SDL_FreeRW
kRc:__Z34CanvasRenderer_Get_Custom_PropCullP12Il2CppObject
kN:__ZN20SoundChannelInstance8getDelayE14FMOD_DELAYTYPEPjS1_
D4:__ZNSt3__26vectorIN20GpuProgramParameters15StructParameterENS_9allocatorIS2_EEEC2ERKS5_
bie:_ArrayReadOnlyList_1_Contains_m232667507_gshared
zJg:__Z77RuntimeInvoker_Boolean_t97287965_IntPtr_t_Int32_t2950945753_SByte_t1669577662PFvvEPK10MethodInfoPvPS4_
msg:_PlayableHandle_GetPlayableType_m432385838_AdjustorThunk
dJc:__ZNSt3__26vectorIN20TextRenderingPrivate8FontImpl13CharacterInfoE13stl_allocatorIS3_L18MemLabelIdentifier1ELi16EEE8__appendEj
v:tempBigInt
nQf:_Array_InternalArray__Insert_TisKeyframe_t4206410242_m1558638568_gshared
re:_emscripten_glVertexAttrib1fv
Eia:__ZNSt3__26vectorIN9ShaderLab20SerializedSubProgram12UAVParameterENS_9allocatorIS3_EEE7reserveEj
vyj:__ZSt11__terminatePFvvE
QJ:__ZN12AudioManager14systemCallbackEP11FMOD_SYSTEM24FMOD_SYSTEM_CALLBACKTYPEPvS3_
Idi:_Nullable_1_Equals_m4046255732_gshared
g9h:_ReadOnlyCollection_1_System_Collections_Generic_ICollectionU3CTU3E_Clear_m3451551308_gshared
Y3c:_BaseMeshEffect_OnEnable_m3291426649
xF:__ZN10SampleClip23VirtualRedirectTransferER24GenerateTypeTreeTransfer
tYa:__ZN16ReflectionProbes16UpdateSampleDataEv
NEf:_CultureInfo_GetCultureInfo_m56098747
XUb:__Z20AddActiveLocalLightsR11CullResultsR27LocalLightCullingParametersPPK15SharedLightDataPK8Vector4fRK9IndexListPfRSA_R12ActiveLightsSG_P5RectTIfEP13TargetEyeMask
Eoh:__ZL80Hashtable_t1853889766_CustomAttributesCacheGenerator_Hashtable__ctor_m1763145853P21CustomAttributesCache
lAd:_Convert_ToDecimal_m1284148187
thh:_Collection_1__ctor_m3489157029_gshared
pEj:_emscripten_glRenderbufferStorage__wrapper
nXi:__ZNK6il2cpp2vm14TypeNameParser10NextWillBeEcb
oyc:_cf2_getNormalizedVector
Oe:_JS_Sound_Play
dai:_ReadOnlyCollection_1_System_Collections_IList_set_Item_m1538987737_gshared
jha:__ZN9ShaderLab16SerializedShader8TransferI14SafeBinaryReadEEvRT_
lbd:_GridLayoutGroup_set_constraint_m3308895167
UIe:_ConstructionCallDictionary_SetMethodProperty_m3145285304
wFd:_Int32_System_IConvertible_ToUInt32_m3557270157
uMg:__Z243RuntimeInvoker_Void_t1185182177_Int16_t2552820387_RuntimeObject_Int32_t2950945753_Int32_t2950945753_Int32_t2950945753_SByte_t1669577662_SByte_t1669577662_SByte_t1669577662_SByte_t1669577662_Int16_t2552820387_SByte_t1669577662_SByte_t1669577662PFvvEPK10MethodInfoPvPS4_
Wie:_InternalEnumerator_1_System_Collections_IEnumerator_get_Current_m1503522504_gshared
sB:__ZN7mecanim8skeleton13SkeletonAlignEPKNS0_8SkeletonERKN4math7_float4ES7_i
W5b:__ZN19ShaderPropertySheet16SetVectorIndexedEN9ShaderLab16FastPropertyNameEifRK8Vector4fNS_8SetFlagsE
Gcg:_Type_get_IsAbstract_m1120089130
vzg:_Vector3_get_normalized_m2454957984_AdjustorThunk
Cui:_UriFormatException__ctor_m1115096473
l5i:__ZN15dense_hashtableINSt3__24pairIK10KeyWrapperINS1_IP11Il2CppClassjEEES4_EES6_N6il2cpp8metadata14ArrayClassHashEN14dense_hash_mapIS6_S4_SB_NS6_14EqualsComparerINSA_17ArrayClassCompareEEENS0_9allocatorIS8_EEE9SelectKeyESF_SH_E9copy_fromERKSK_j
xxi:_GUIUtility_IsExitGUIException_m3644066650
XU:__ZN11UnityEngine15CloudWebService14DataDispatcher4StopEv
_5c:_ColorBlock_GetHashCode_m4264192507
lDd:_Int16_System_IConvertible_ToUInt64_m134975563
Gia:__ZNSt3__26vectorIN9ShaderLab20SerializedSubProgram12UAVParameterENS_9allocatorIS3_EEE8__appendEj
Rmc:__ZN5IMGUI9GUIWindow5OnGUIER8GUIState
yof:_Single_System_IConvertible_ToDecimal_m325860800_AdjustorThunk
_Of:_Array_InternalArray__ICollection_CopyTo_TisSingle_t1397266774_m455540885_gshared
RMa:__ZN17ScriptingGCHandle7AcquireE18ScriptingObjectPtr25ScriptingGCHandleWeakness
NLg:__Z74RuntimeInvoker_RuntimeObject_RuntimeObject_Int64_t3736567304_RuntimeObjectPFvvEPK10MethodInfoPvPS4_
ePc:__ZN2UI14CanvasRenderer14AttachToCanvasER8JobFencePNS_6CanvasENS0_15InstructionTypeE
pAj:dynCall_iifiii
jya:__Z21HasAlphaTextureFormat13TextureFormat
VO:__ZN12AudioManager6UpdateEv
cya:__ZN14ImageReference9BlitImageERKS_NS_8BlitModeE
Vs:__ZN8Animator12AddToManagerEv
Def:_X509Chain__ctor_m2674663382
h9h:_ReadOnlyCollection_1_System_Collections_Generic_IListU3CTU3E_Insert_m1121807192_gshared
OEb:__ZN23CachedSerializationDataD2Ev
UWb:__ZNK25CameraStackRenderingState31CalculateStereoCameraTargetTypeEv
VXa:__ZN14RenderSettings23VirtualRedirectTransferER14SafeBinaryRead
xre:_InternalEnumerator_1_get_Current_m114240259_gshared
Dhj:__ZN6il2cpp2os10ThreadImpl15CurrentThreadIdEv
xQf:_Array_InternalArray__Insert_TisVector2_t2156229523_m2148694950_gshared
Qkf:_SymmetricAlgorithm_get_Key_m3241860519
VRe:_U3CMouseDragOutsideRectU3Ec__Iterator1_Reset_m2233410497
lPe:_InputField_set_customCaretColor_m720445789
OGc:_UNITY_tt_face_load_fpgm
WQa:__Z17IsObjectAvailablei
dcb:__ZN12InputManagerD0Ev
Dah:_Queue_1_Peek_m1713833142_gshared
r9f:_ExecutionContext_Capture_m681135907
mke:_InternalEnumerator_1_System_Collections_IEnumerator_get_Current_m2889979481_AdjustorThunk
pxj:_posix_memalign
N3e:_ASN1_GetBytes_m3305539297
g_:__ZNK15MonoScriptCache7ReleaseEv
JLi:__ZN6il2cpp2vm5Class13HasReferencesEP11Il2CppClass
bg:_glBindTexture
Fvj:_snprintf
vSg:__Z50RuntimeInvoker_RuntimeObject_Resources_t1597885468PFvvEPK10MethodInfoPvPS4_
FFj:_emscripten_glVertexAttrib1fv__wrapper
vib:__Z36scripting_liveness_calculation_begin17ScriptingClassPtriPFvPP12Il2CppObjectiPvES3_PFvvES7_
KAi:_AudioExtensionManager_RemoveExtensionFromManager_m442924172
dEj:_emscripten_glGetProgramInfoLog__wrapper
UD:__ZN25AnimatedPropertyEvaluator29BindCurveToScriptingObjectPtrERKN13AnimationClip10FloatCurveEj18ScriptingObjectPtrb
d0:__ZN17PersistentManager23DestroyFromFileInternalEi
Mlg:_Display__ctor_m501911701
R5h:_ReadOnlyCollection_1_System_Collections_Generic_IListU3CTU3E_Insert_m1020890112_gshared
j7c:_DefaultControls_SetDefaultTextValues_m1943359795
dQb:__Z19SetupMotionMatricesR6CameraR18RPDataMotionVector
oKi:__ZL7log2_64y
OC:__ZN26AnimatorControllerPlayable18PrepareForPlaybackERN7mecanim6memory9AllocatorE
kD:__ZN8Animator11AnimatorJob11AddPlayableEP17AnimationPlayablef
gbd:_GridLayoutGroup_get_cellSize_m2967185053
Zsf:_CurrentSystemTimeZone_GetUtcOffset_m340358963
Nli:_PKCS12_Decrypt_m1280162536
vke:_InternalEnumerator_1_get_Current_m3081223448_gshared
evi:_Event_get_isMouse_m1058251071
DWa:__ZN10VertexDataC2ERKS_17ShaderChannelMask10MemLabelId
Dvd:_CaseInsensitiveHashCodeProvider_AreEqual_m1790260777
vBc:_otv_JSTF_validate
G4:__ZN22CreateGpuProgramOutputC2Ev
Xmg:_PersistentCallGroup_Initialize_m4253175514
spd:_Boolean_System_IConvertible_ToChar_m4279513009_AdjustorThunk
Cwd:_Hashtable__ctor_m1763145853
dJe:_LogicalCallContext__ctor_m1263247987
AEd:_NumberFormatter_ScaleOrder_m3813786990
U5e:_PrivateKeyInfo_DecodeDSA_m771724585
u_i:__ZNK15dense_hashtableINSt3__24pairIK10KeyWrapperINS1_IPK10MethodInfoP11Il2CppClassEEEjEES9_17ReflectionMapHashIS8_EN14dense_hash_mapIS9_jSD_NS9_14EqualsComparerINS0_8equal_toIS8_EEEENS0_9allocatorISB_EEE9SelectKeyESI_SK_E23find_position_with_hashERSA_j
Q6b:__ZN8GUILayer12CleanupClassEv
mfg:_UInt32_System_IConvertible_ToSByte_m1061556466
UFe:_WellKnownClientTypeEntry__ctor_m2471908952
ILi:__ZN6il2cpp2vm5Class4InitEP11Il2CppClass
ga:invoke_vidi
v$a:__ZN8Material17MainThreadCleanupEv
YDe:_RemotingServices_CreateClientProxyForContextBound_m783705199
dbc:__ZNK15GUIEventManager15GetEventAtIndexEi
vPc:__ZN2UI14CanvasRenderer17SyncDirtyElementsER8JobFence
Fwe:_Enumerator_System_Collections_IEnumerator_get_Current_m3816090481_gshared
Hkj:__ZN6il2cpp5utils11StringUtils15StringDuplicateEPKc
zVf:_DefaultComparer_Equals_m2480133610_gshared
X3:__ZNK9ShaderLab21ShaderRasterStateDesc16ToGfxRasterStateEPK19ShaderPropertySheetS3_R14GfxRasterState
u0h:_Array_Sort_TisVector3_t3722313464_m1915176437_gshared
Mtj:__ZN6il2cpp2os9EventImplC2Ebb
g4g:_List_1_get_Item_m2113769949_gshared
aUa:__ZN12FlareManager12RemoveCameraER6Camera
W4:__Z20IsMatrixBuiltinParamPKcPi
hmf:_String_memcpy4_m979367827
v7f:_UnicodeEncoding_GetBytesInternal_m1902824297
D5b:__ZN8Renderer19PostInitializeClassEv
BLf:_Array_FindIndex_TisRuntimeObject_m2504082708_gshared
Eni:_X509Chain_FindCertificateRoot_m1937726457
$pj:__ZN6il2cpp6icalls8mscorlib6System8Delegate23CreateDelegate_internalEP20Il2CppReflectionTypeP12Il2CppObjectP22Il2CppReflectionMethodb
Gxe:_Enumerator_System_Collections_IEnumerator_get_Current_m921113401_AdjustorThunk
ZVb:__ZNK13RendererScene22GetStaticBoundingBoxesEv
gEb:__ZN18DelayedCallManager18CancelCallDelayed2E4PPtrI6ObjectEPF15CallObjectStatePS1_PvES7_
Lpg:_Matrix4x4_GetHashCode_m4034747639
GKa:__ZN25ThreadsafeLinearAllocator10ReallocateEPvji
hob:__Z18Transfer_BlittableI14SafeBinaryReadLb1E11QuaternionfEvRK29SerializationCommandArgumentsR31RuntimeSerializationCommandInfo
Dga:__ZN18SpriteAtlasManagerD0Ev
$9a:__ZN10Matrix4x4f8TransferI14SafeBinaryReadEEvRT_
yfd:_CryptographicUnexpectedOperationException__ctor_m2381988196
L1i:__ZN14dense_hash_mapI10KeyWrapperIPK22Il2CppGenericParameterEPK24MonoGenericParameterInfoN6il2cpp5utils11PointerHashIS2_EENS4_14EqualsComparerINSt3__28equal_toIS3_EEEENSD_9allocatorINSD_4pairIKS4_S7_EEEEE15set_deleted_keyERSJ_
IC:__ZN14AvatarPlayback8StopTimeEv
_me:_InternalEnumerator_1_System_Collections_IEnumerator_get_Current_m4213507601_gshared
gba:__Z6AppendRKN4core12basic_stringIcNS_20StringStorageDefaultIcEEEEPKc
qxi:_GUIUtility_RemoveCapture_m1294193818
dua:__ZN7ApiGLES18ClearBufferSubDataEjN2gl12BufferTargetEll
jfc:__Z37Camera_Get_Custom_PropAllCamerasCountv
w8a:__ZN14Texture2DArray8TransferI18StreamedBinaryReadILb0EEEEvRT_
eUb:__Z18ApplyOcclusionMaskR19ProbeOcclusionCacheRK17LightProbeContextRK10RenderNodeb
pIc:_Split_Cubic
cb:invoke_fiiii
sRe:_InputField_OnSubmit_m3583210804
Pti:_Uri_CheckHostName_m2213216182
CFj:_emscripten_glBindRenderbuffer__wrapper
Z1h:_Mesh_SetUvsImpl_TisVector2_t2156229523_m3009194955_gshared
chg:_ValueType_InternalEquals_m1384040357
w0h:_Array_Sort_TisVector4_t3319028937_TisVector4_t3319028937_m4254533673_gshared
Otd:_ArrayListWrapper_Contains_m2641184447
bIc:_ft_black_render
WIg:__Z177RuntimeInvoker_Int32_t2950945753_RuntimeObject_Int32_t2950945753_Int32_t2950945753_RuntimeObject_Int32_t2950945753_EncoderFallbackBufferU26_t2343550713_CharU5BU5DU26_t3299466565PFvvEPK10MethodInfoPvPS4_
zBj:dynCall_viiifi
NCa:__ZN18GfxFramebufferGLES20ActiveContextChangedEPP17RenderSurfaceBaseS2_
ECa:__Z19PluginsRenderMarkeri
BE:__ZN10HumanTrait18InitializeBoneNameEv
Nia:__ZNSt3__26vectorIN9ShaderLab20SerializedSubProgram15StructParameterENS_9allocatorIS3_EEE6assignINS_11__wrap_iterIPS3_EEEENS_9enable_ifIXaasr21__is_forward_iteratorIT_EE5valuesr16is_constructibleIS3_NS_15iterator_traitsISC_E9referenceEEE5valueEvE4typeESC_SC_
adj:__ZNSt3__214__split_bufferIN6il2cpp2vm5Image20EmbeddedResourceDataERNS_9allocatorIS4_EEEC2EjjS7_
cH:__ZN12AudioManager17RemoveAudioSourceEP11AudioSource
Ndf:_X509Certificate2Collection_Add_m3151757943
ive:_Comparer_1__cctor_m951016718_gshared
Hvd:_CaseInsensitiveHashCodeProvider_get_DefaultInvariant_m4264275163
mJg:__Z195RuntimeInvoker_Int32_t2950945753_RuntimeObject_Int32_t2950945753_Int32_t2950945753_Int32_t2950945753_RuntimeObject_DecoderFallbackBufferU26_t3866396827_ByteU5BU5DU26_t4057885439_SByte_t1669577662PFvvEPK10MethodInfoPvPS4_
LQ:__ZN5physx14PxLightCpuTask12addReferenceEv
lWa:__ZNK15InstancingProps35FillInstanceBufferDispatchConstantsIN10Instancing14RenderLoopArgsEEEvPPvjjRK19ShaderPropertySheetRKT_
oWg:__Z86RuntimeInvoker_Int32_t2950945753_Color32_t2600501292_Color32_t2600501292_RuntimeObjectPFvvEPK10MethodInfoPvPS4_
_4a:__ZN21EnlightenSceneMapping8TransferI19StreamedBinaryWriteILb0EEEEvRT_
Pej:__ZN6il2cpp2gc16GarbageCollector19InitializeFinalizerEv
Iy:__ZN7mecanim8skeleton18CreateSkeletonMaskEjPKNS0_19SkeletonMaskElementERNS_6memory9AllocatorE
wmc:__ZN10GUIManager10DoGUIEventER10InputEventb
$tb:__Z35Transfer_Blittable_FixedBufferFieldI24GenerateTypeTreeTransferxEvRK29SerializationCommandArgumentsR31RuntimeSerializationCommandInfo
jCc:_otv_LangSys_validate
Dug:_RectOffset_get_right_m2294081512
MQf:_Array_InternalArray__set_Item_TisLink_t544317964_m1234244240_gshared
UGc:_UNITY_TT_Init_Glyph_Loading
ePb:__Z20CalculateSqrDistanceRK8Vector3fRK4AABB
ddd:_SerializationInfo_GetBoolean_m1756153320
BL:__Z32AudioMixerDuckingProcessCallbackP21UnityAudioEffectStatePfS1_jii
oqg:_Mesh_get_uv2_m3615020997
H4b:__ZN26CustomRenderTextureManagerD2Ev
lhc:__Z32Input_Get_Custom_PropInputStringv
zWf:_EqualityComparer_1_System_Collections_IEqualityComparer_Equals_m4172006498_gshared
WH:__ZN12AudioManager8TransferI24GenerateTypeTreeTransferEEvRT_
xpg:_Mathf_Round_m4098141538
hxa:__Z25GetBytesFromTextureFormat13TextureFormat
q8i:__ZN6il2cpp6icalls8mscorlib6System9Threading6Thread20Thread_free_internalEP12Il2CppThreadi
Czj:dynCall_iiffi
G8e:__KeysEnumerator_get_Current_m2996478063
ND:__ZN16MecanimAnimation25RegisterIAnimationBindingEPKN5Unity4TypeEiP17IAnimationBinding
V$:__Z32scripting_class_get_assemblyname17ScriptingClassPtr
qTc:__ZN11UnityEngine15PlatformWrapper15GetVRDeviceNameEv
hSg:__Z99RuntimeInvoker_Boolean_t97287965_Int32_t2950945753_PointerEventDataU26_t867828220_SByte_t1669577662PFvvEPK10MethodInfoPvPS4_
Gle:_InternalEnumerator_1_get_Current_m2128158355_AdjustorThunk
IIa:__ZN9GfxDevice21RegisterNativeTextureE9TextureIDi16TextureDimension
T9c:_GraphicRegistry__ctor_m1851575309
prj:__ZN6il2cpp6icalls8mscorlib6System10Reflection4Emit11TypeBuilder20create_generic_classEP27Il2CppReflectionTypeBuilder
Djf:_SHA1Internal_FillBuff_m3615718415
oJf:_PlayableHandle_IsPlayableOfType_TisAnimationLayerMixerPlayable_t3631223897_m201603007_gshared
oQ:__Z60Register_UnityEngine_AudioListener_GetNumExtensionPropertiesv
Wi:_emscripten_glUniformMatrix4fv
A5i:__ZN15dense_hashtableINSt3__24pairIK10KeyWrapperINS1_IP11Il2CppClassjEEES4_EES6_N6il2cpp8metadata14ArrayClassHashEN14dense_hash_mapIS6_S4_SB_NS6_14EqualsComparerINSA_17ArrayClassCompareEEENS0_9allocatorIS8_EEE9SelectKeyESF_SH_E13set_empty_keyERKS8_
ajb:__ZN12ScriptMapperD2Ev
pJj:b100
rqg:_Mesh_get_colors32_m1253190811
qnj:_GC_stopped_mark
Uhg:_AnimationCurve_Finalize_m2397002729
w$e:_Text_OnEnable_m616205807
r0g:__Z50RuntimeInvoker_RuntimeObject_ColorTween_t809614380PFvvEPK10MethodInfoPvPS4_
lOe:_SerializationCallbacks__cctor_m1674315180
zjc:__Z52Register_UnityEngine_RenderTexture_Internal_GetWidthv
koj:_GC_check_leaked
Nla:__ZN9ShaderLab20SerializedSubProgram16TextureParameter8TransferI19StreamedBinaryWriteILb0EEEEvRT_
jKa:__ZNK7Hash12812PackToUInt32Ev
Pud:_SynchronizedArrayListWrapper_IndexOf_m3642674350
I1:__ZNSt3__227__insertion_sort_incompleteIRNS_6__lessI14ObjectLoadDataS2_EEPS2_EEbT0_S6_T_
dV:__ZN11UnityEngine15CloudWebService16SessionContainer8AddEventEPNS0_14CloudEventInfoE
xHa:__Z4TrimRKN4core12basic_stringIcNS_20StringStorageDefaultIcEEEES5_
q1h:_Dictionary_2_Do_ICollectionCopyTo_TisKeyValuePair_2_t3842366416_m1399105608_gshared
Zcf:_X509Certificate2_Import_m4026562329
LGj:_glGetStringi__wrapper
W6a:__ZN10VertexData8TransferI14SafeBinaryReadEEvRT_
kJ:__ZN4FMOD8ChannelI8setDelayE14FMOD_DELAYTYPEjj
epj:_GC_malloc_atomic
q5d:_ActivatedClientTypeEntry_ToString_m2494181680
w_f:_HashSet_1_GetEnumerator_m3346268098_gshared
Orj:__ZN6il2cpp5utils6Memory13AlignedMallocEjj
yRe:_Selectable_get_animator_m2899312855
YY:__ZL20SortItemByInstanceIDRKN18AwakeFromLoadQueue4ItemES2_
bzg:_Vector2_op_Multiply_m2347887432
Y8e:_TypeConverterAttribute__ctor_m1774069684
Ty:__ZNK34AnimationStateMachineMixerPlayable26GetInterruptedPosePlayableEv
WVc:__ZN20UnityConnectSettings8TransferI24GenerateTypeTreeTransferEEvRT_
VA:__ZN34BlobWriteTransferSTLStyleArrayImplI22OffsetPtrArrayTransferIbEEclERS1_17TransferMetaFlagsR9BlobWrite
gkd:_Byte_ToString_m4063101981
WPd:_MonoType_GetConstructors_m2574682189
I9e:_ServicePointManager_FindServicePoint_m4119451290
Mca:__ZL31InitializeRendererUpdateManagerPv
$Ud:_ParameterInfo__ctor_m2779026345
sPe:_InputField_set_onValueChange_m1251390545
gQc:__ZN2UI13CanvasManager14GetRenderOrderEPKNS_6CanvasE
oRd:_NumberFormatter_get_IsZeroInteger_m2263284741
_ji:_X509Certificate_PEM_m2020851166
KPf:_Array_InternalArray__Insert_TisDateTime_t3738529785_m2308632330_gshared
Aif:_RNGCryptoServiceProvider_RngGetBytes_m1695806698
cee:_TlsServerCertificateRequest_ProcessAsTls1_m3214041063
FCc:_compare_uni_maps
dUc:__ZN11UnityEngine15PlatformWrapper27GetGraphicsCapsSupportFlagsEv
Cxb:__ZN12NativeBufferI16Converter_StringE15SetupForWritingER9ArrayInfo
Wfa:__ZN13RuntimeStaticI18AssetBundleManagerLb1EE16StaticInitializeEPv
gDj:___cxa_end_catch__wrapper
Dsd:_Char_ToString_m278452217
cBg:__Z32RuntimeInvoker_Boolean_t97287965PFvvEPK10MethodInfoPvPS4_
x6d:_BigInteger_op_RightShift_m460065452
REb:__ZN13MonoBehaviour22DoScriptRebuildWarningEv
lfc:__Z38Camera_CUSTOM_INTERNAL_CALL_RaycastTryP12Il2CppObjectRK3Rayfi
CMc:__Z38TextGenerator_Get_Custom_PropLineCountP12Il2CppObject
Gji:_InternalAsyncResult_SetComplete_m963842420
Q5f:_Encoding_GetEncoding_m2801244948
ync:__ZN11IMGUIModule25GetGUIStyleScriptingClassEv
hFc:_tt_get_interface
Uge:_SslStreamBase_EndRead_m495357226
b8i:__ZN6il2cpp5utils9PathUtils7CombineIcEENSt3__212basic_stringIT_NS3_11char_traitsIS5_EENS3_9allocatorIS5_EEEERKSA_SC_
gtc:__ZN9JSONWrite8TransferI13dynamic_arrayIiLj4EEEEvRT_PKc17TransferMetaFlags
FLg:__Z64RuntimeInvoker_RuntimeObject_SByte_t1669577662_SByte_t1669577662PFvvEPK10MethodInfoPvPS4_
Q8b:__ZN13PlayableGraph21InvalidateMultithreadEv
k0f:_Enumerator_System_Collections_IEnumerator_get_Current_m713684915_AdjustorThunk
XYf:_GenericComparer_1_Compare_m459680062_gshared
EWd:_EnumBuilder_GetConstructorImpl_m3068576149
G_:__Z18ConvertUTF16toUTF8PPKtS0_PPhS2_15ConversionFlags
Zij:__ZN6il2cpp2os20PathErrnoToErrorCodeERKNSt3__212basic_stringIcNS1_11char_traitsIcEENS1_9allocatorIcEEEEi
IVh:__ZL68InputField_t3762917431_CustomAttributesCacheGenerator_m_KeyboardTypeP21CustomAttributesCache
bKi:__ZL16my_g_bit_nth_msfj
RBh:__ZL65NonSerializedAttribute_t2945079482_CustomAttributesCacheGeneratorP21CustomAttributesCache
_9g:_Enumerator_MoveNext_m3662315381_AdjustorThunk
Mde:_TlsClientFinished_ProcessAsTls1_m2429863130
qNb:__Z23SetupStereoFlareElementP11FlareVertexRK8Vector2fS3_S3_RK11ColorRGBA32RK10Matrix4x4fRK8Vector3fb
sa:invoke_iiiifiiii
yPe:_InputField_EnforceContentType_m2436948794
grf:_String_Join_m2050845953
Cye:_ShimEnumerator_MoveNext_m2406150314_gshared
GDa:__ZL19BlitFramebufferImplRN4gles23BlitFramebufferDrawQuadER9GfxDevice9TextureIDRK8Vector4f
EZi:__ZN15dense_hashtableINSt3__24pairIK10KeyWrapperIPK10Il2CppTypeEjEES6_N6il2cpp8metadata14Il2CppTypeHashEN14dense_hash_mapIS6_jSB_NS6_14EqualsComparerINSA_26Il2CppTypeEqualityComparerEEENS0_9allocatorIS8_EEE9SelectKeyESF_SH_E4findERS7_
mAj:dynCall_viiiiiiiiiiiiii
yGc:_UNITY_FT_List_Add
f5b:__ZN14Texture2DArray11InitTextureEiii13TextureFormatb
Zki:_X509Extension__ctor_m1474351312
Lfi:_InvokableCall_1_Invoke_m1524307439_gshared
lId:_Directory_CreateDirectoriesInternal_m3735342319
ITe:_LayoutUtility_GetLayoutProperty_m3731360667
A2i:__ZN15dense_hashtableINSt3__24pairIK10KeyWrapperINS1_IPK11Il2CppImageP11Il2CppClassEEEjEES9_17ReflectionMapHashIS8_EN14dense_hash_mapIS9_jSD_NS9_14EqualsComparerINS0_8equal_toIS8_EEEENS0_9allocatorISB_EEE9SelectKeyESI_SK_E14squash_deletedEv
Fkf:_SHAConstants__cctor_m1699027474
_X:__ZNK6Camera26GetStereoSingleCullEnabledEv
Ufb:__Z14resize_trimmedINSt3__26vectorIN4core12basic_stringIcNS2_20StringStorageDefaultIcEEEE13stl_allocatorIS6_L18MemLabelIdentifier13ELi16EEEEEvRT_j
Rob:__Z18Transfer_BlittableI14SafeBinaryReadLb0EaEvRK29SerializationCommandArgumentsR31RuntimeSerializationCommandInfo
Hsd:_CharEnumerator_System_Collections_IEnumerator_get_Current_m1328529384
sCj:_emscripten_glFrustum__wrapper
mJi:_AnimationLayerMixerPlayable__ctor_m860721801
cHc:_UNITY_FT_List_Iterate
asd:_Char_System_IConvertible_ToUInt64_m3536560782
QVf:_EqualityComparer_1__cctor_m3452395357_gshared
hIc:_Render_Single_Pass
XLb:__Z20SyncFenceCullResultsR11CullResults
jGa:__ZN15TextureTFMethod20IsBoneCountSupportedEi
iBf:_Double_ToString_m3828879243_AdjustorThunk
ktb:__Z22TransferField_NonArrayI17RemapPPtrTransfer27Converter_SimpleNativeClassI8GUIStyleEEvRK23StaticTransferFieldInfoR31RuntimeSerializationCommandInfoRT0_
uNd:_TextReader_Synchronized_m3004980758
U0b:__ZNK17AnimationCurveTplIfE20EvaluateWithoutCacheEfRf
qQg:__Z67RuntimeInvoker_Boolean_t97287965_Rect_t2360479859_SByte_t1669577662PFvvEPK10MethodInfoPvPS4_
lYa:__ZN19ShaderPropertySheet10SetTextureERK23FastTexturePropertyNameP7Texture
ZTd:_CustomAttributeData__ctor_m2966233049
a5c:_CanvasUpdateRegistry_PerformUpdate_m1793997159
ade:_Context_set_ClientWriteIV_m3405909624
Gac:__ZN4Mesh10SetNormalsEPK8Vector3fj
myi:_AesManaged_CreateDecryptor_m692040246
ykj:__ZNSt3__212basic_stringIDsNS_11char_traitsIDsEENS_9allocatorIDsEEE9__grow_byEjjjjjj
ns:__ZN17AnimationCurveTplIfE8TransferI14SafeBinaryReadEEvRT_
SQf:_Array_InternalArray__set_Item_TisInt16_t2552820387_m2544074754_gshared
vmd:_ArithmeticException__ctor_m3551809662
MId:_MonoIO_ExistsDirectory_m2182482658
B_b:__Z29StdTemplateConversionFunctionIybEbPvR14SafeBinaryRead
v5a:__ZNSt3__26vectorIN15QualitySettings14QualitySettingENS_9allocatorIS2_EEE6assignIPS2_EENS_9enable_ifIXaasr21__is_forward_iteratorIT_EE5valuesr16is_constructibleIS2_NS_15iterator_traitsIS9_E9referenceEEE5valueEvE4typeES9_S9_
f:HEAPU32
O2f:_List_1_CheckCollection_m1671972112_gshared
lbe:_CipherSuiteFactory_GetSsl3SupportedCiphers_m3757358569
H7f:_UnicodeEncoding_GetPreamble_m3002287178
nAi:_AudioSource_get_spatialize_m3609701298
VPg:__Z52RuntimeInvoker_Color_t2555686324_Color32_t2600501292PFvvEPK10MethodInfoPvPS4_
kna:__ZN20GpuProgramParameters14AddVectorParamEPKcii15ShaderParamTypeiiiP16PropertyNamesSet
LXc:__ZNK12HeaderHelper3GetERKN4core12basic_stringIcNS0_20StringStorageDefaultIcEEEE
tcb:__ZN9InputAxis8TransferI14SafeBinaryReadEEvRT_
rZ:__ZNK21ExecutionOrderManager30GetCustomAwakeFromLoadQueueForEPKN5Unity4TypeE
eXc:__Z27RegisterModule_UnityConnectv
dLd:_MemoryStream_Expand_m3554752073
X0i:__ZN6il2cpp2vm10Reflection27GetCustomAttributesCacheForEP25Il2CppReflectionParameter
fwg:_ScriptableObject_CreateInstance_m2611081756
wMe:_ObjectRecord_get_IsInstanceReady_m2304516395
wre:_InternalEnumerator_1_System_Collections_IEnumerator_get_Current_m1635397542_gshared
KLd:_Path__cctor_m3273994011
Byj:__ZNSt11logic_errorD2Ev
Rtf:_DateTimeUtils_CountRepeat_m3396693018
Ihg:_WeakReference_get_Target_m168713953
EK:__ZN10ObjectPoolIN4FMOD12ChannelGroupENS0_13ChannelGroupIEE7SetSizeEi
Zxi:_SymmetricTransform_FinalDecrypt_m764004682
Jhj:__ZN6il2cpp2os10ThreadImpl33UnregisterCurrentThreadForCleanupEv
Jqi:_Parser_ParseGroupingConstruct_m263270497
G2i:__ZN14dense_hash_mapI10KeyWrapperINSt3__24pairIPK9EventInfoP11Il2CppClassEEEj17ReflectionMapHashIS8_ENS9_14EqualsComparerINS1_8equal_toIS8_EEEENS1_9allocatorINS2_IKS9_jEEEEE15set_deleted_keyERSH_
Zw:__ZN27AnimationLayerMixerPlayable22PrepareAnimationEventsEfR13dynamic_arrayI22AnimationClipEventInfoLj4EE
Bqb:__Z14resize_trimmedINSt3__26vectorI17AnimationCurveTplIfE13stl_allocatorIS3_L18MemLabelIdentifier1ELi16EEEEEvRT_j
SWb:__ZN25CameraStackRenderingState19SetupLastEyeCamerasERK11CameraStack
GPa:__Z12GUIDToStringRK9UnityGUID
yfe:_RSASslSignatureDeformatter_SetKey_m2204705853
BG:__ZN11SoundHandleC2ERKS_
it:__ZN17AnimationPlayableC2E18DirectorPlayerType
AOe:_InputField_set_shouldHideMobileInput_m1650743574
TQi:__ZNK6il2cpp5utils11collections13ArrayValueMapIPK10Il2CppType17Il2CppInteropData26InteropDataToTypeConverterNS_8metadata14Il2CppTypeLessENS8_26Il2CppTypeEqualityComparerEE10find_firstERKS5_
HJd:_FileStream_get_CanSeek_m331583577
Bgd:_DSAParameters_t1885824122_marshal_pinvoke_back
xz:__ZN8Animator22OnGraphTopologyChangedEP8Playablei
h3e:_Kernel_MultiplyByDword_m1266935086
iBd:_Convert_ToInt64_m3916071102
AYb:__ZN6Camera25StandaloneRenderToCubemapEP7TextureiPFvPK9SceneNodePK4AABBR9IndexListPvESA_j
cqf:_String_Trim_m3384720403
ZXa:__ZN14RenderSettings18TransferDeprecatedI14SafeBinaryReadEEvRT_
tJg:__Z93RuntimeInvoker_Single_t1397266774_SingleU26_t1922108698_Single_t1397266774_Single_t1397266774PFvvEPK10MethodInfoPvPS4_
Pui:_Event__ctor_m526447123
CMg:__Z88RuntimeInvoker_RuntimeObject_RuntimeObject_RuntimeObject_RuntimeObject_Int32_t2950945753PFvvEPK10MethodInfoPvPS4_
Cdg:_Type_ToString_m3975981286
jZ:__ZN12TLSAllocatorI14StackAllocatorE8AllocateEji
k$:__ZN16ScriptingManager18GetMonoScriptCacheEi
Xqi:_ExpressionAssertion__ctor_m2554412824
Yob:__Z18Transfer_BlittableI14SafeBinaryReadLb1EyEvRK29SerializationCommandArgumentsR31RuntimeSerializationCommandInfo
$Qd:_NullReferenceException__ctor_m3076065613
cqc:__ZN8JSONRead8TransferIfEEvRT_PKc17TransferMetaFlagsb
Lbf:_X509SubjectKeyIdentifierExtension_Decode_m1505409124
Vma:__ZL23AddGpuProgramParametersR20GpuProgramParametersRKNSt3__26vectorIN9ShaderLab20SerializedSubProgram15MatrixParameterENS1_9allocatorIS5_EEEERKNS2_INS4_15VectorParameterENS6_ISB_EEEEiiP16PropertyNamesSet
yAa:__ZN6prcoreL17RemapGenericFloatI18TexFormatARGBFloat17TexFormatRGBAHalfEEvPKNS_9InnerInfoE
Hpf:_String_System_IConvertible_ToUInt16_m2888090399
lM:__ZN11AudioSource21ApplyCachedParametersE12SoundChannel
QSd:_Assembly_InternalGetType_m3065345470
hR:__ZN13Simd4iFactoryIN6detail9FourTupleEEC2Eiiii
K3d:_ResourceSet__ctor_m3356376607
G6d:_PrimeGeneratorBase_get_PrimalityTest_m2487240563
wth:__ZL56_ParameterInfo_t489405856_CustomAttributesCacheGeneratorP21CustomAttributesCache
A4a:__ZN15SerializeTraitsI33EnlightenTerrainChunksInformationE8TransferI14SafeBinaryReadEEvRS0_RT_
T5b:__ZNK32RendererMaterialAnimationBinding9BindValueER6ObjectRKN11UnityEngine9Animation14GenericBindingERNS3_10BoundCurveE
Hze:_Transform_1_Invoke_m1731820209_gshared
UYa:__Z13GetIAnimationv
Hya:__ZL18stbir__support_onef
_of:_Single_CompareTo_m189772128
Prc:__Z26Transfer_UnityEngineObjectI9JSONWriteLb0EEvRK29SerializationCommandArgumentsR31RuntimeSerializationCommandInfo
Ite:_DefaultComparer_Compare_m4042058291_gshared
Pbd:_Image_set_overrideSprite_m3213596394
g0a:__ZNSt3__26vectorIN4core12basic_stringIcNS1_20StringStorageDefaultIcEEEE13stl_allocatorIS5_L18MemLabelIdentifier1ELi16EEE6assignINS_11__wrap_iterIPS5_EEEENS_9enable_ifIXaasr21__is_forward_iteratorIT_EE5valuesr16is_constructibleIS5_NS_15iterator_traitsISF_E9referenceEEE5valueEvE4typeESF_SF_
DOc:__ZNSt3__27__sort5IRNS_6__lessIN2UI14DepthSortEntryES3_EEPS3_EEjT0_S7_S7_S7_S7_T_
sJd:_FileLoadException_ToString_m2989457882
FAi:_AudioListener_ClearExtensionProperties_m3849891634
Xxc:_UNITY_FT_DivFix
A2h:_Array_InternalArray__get_Item_TisDecimal_t2948259380_m3511003792_gshared
tmf:_SecurityElement_IsValidAttributeValue_m948345692
Qwc:__ZN19ControllerHitReport15onControllerHitERKN5physx16PxControllersHitE
Ba:invoke_vdd
yn:FUNCTION_TABLE_fiii
FNd:_TextWriter_Write_m2252948084
f8b:__Z19RegisterModule_Corev
gMc:__ZZ29InitializeTextRenderingModulevEN27cleanupAfterLoadRegistrator7ForwardEv
ckb:__ZNSt3__26__sortIRPFbRK23TransformAccessReadOnlyS3_EPS1_EEvT0_S8_T_
$Cf:_CCFixed_FromDateTime_m3894190577
FWb:__Z29PluginsIssueRenderingExtEvent26UnityRenderingExtEventTypePv
sEg:__Z116RuntimeInvoker_RuntimeObject_RuntimeObject_Int32_t2950945753_RuntimeObject_RuntimeObject_RuntimeObject_RuntimeObjectPFvvEPK10MethodInfoPvPS4_
_Me:_MessageFormatter_ReadMethodCall_m2327590823
U4b:__Z14RandomRotationP9Texture2DPhiiii
YNf:_Array_InternalArray__ICollection_Add_TisUInt16_t2177724958_m3981262878_gshared
Yxf:_Decimal_GetBits_m453754410
t_f:_HashSet_1_Contains_m3173358704_gshared
Eyi:_ToggleEvent__ctor_m834619998
D8d:_PKCS1_Encode_v15_m2077073129
Bug:_RectOffset_get_left_m1232181034
IBa:__ZN4gles14UseGLSLProgramER15DeviceStateGLESjbij
vIj:_glDeleteProgram__wrapper
sfc:__Z50Register_UnityEngine_Camera_INTERNAL_get_pixelRectv
Qza:__ZN6prcoreL18BlitFloatToIntegerERK14ImageReferenceRS0_
Vwf:_DBNull_System_IConvertible_ToUInt32_m3784627971
dce:_ClientSessionCache_Add_m964342678
TFa:__ZN13dynamic_arrayI15ComputeShaderCBLj4EE6assignEPKS0_S3_
yU:__ZN11UnityEngine15CloudWebService14RestDownloader17OnCompleteContentEv
vYi:__ZN15dense_hashtableINSt3__24pairIK10KeyWrapperINS1_IPK14Il2CppAssemblyP11Il2CppClassEEEjEES9_17ReflectionMapHashIS8_EN14dense_hash_mapIS9_jSD_NS9_14EqualsComparerINS0_8equal_toIS8_EEEENS0_9allocatorISB_EEE9SelectKeyESI_SK_E15insert_noresizeERKSB_
eyg:_Transform_get_localScale_m129152068
qyf:_DivideByZeroException__ctor_m3496959969
Qa:invoke_viffi
dz:__ZN17AnimationPlayable28UpdateInternalStateRecursiveILi1ELb0EEEvPK35AnimationPlayableEvaluationConstant
bfj:__ZN6il2cpp2gcL10CleanupCCWEPvS1_
Ta:invoke_vifff
hHj:_glGetVertexAttribiv__wrapper
Ne:_emscripten_request_fullscreen
eei:_Predicate_1_Invoke_m851618236_gshared
LFb:__ZN20LocalFileSystemWebGL6DeleteER13FileEntryDatab
Pe:_emscripten_glDisableVertexAttribArray
MIf:_Array_InternalArray__ICollection_Remove_TisSingle_t1397266774_m3361324455_gshared
Um:FUNCTION_TABLE_iiiifiiii
Ega:__ZN4core8hash_mapINS_12basic_stringIcNS_20StringStorageDefaultIcEEEE13dynamic_arrayI4PPtrI6SpriteELj4EENS_4hashIS4_EENSt3__28equal_toIS4_EEE12delete_nodesEv
jc:invoke_fifffi
xhh:_Collection_1_System_Collections_IList_Add_m2969482770_gshared
uJ:__ZN4FMOD5Sound15getNumSubSoundsEPi
cwa:__ZN4gles23ClearCurrentFramebufferEP7ApiGLESbbbRK10ColorRGBAffi
Nwe:_Enumerator_System_Collections_IDictionaryEnumerator_get_Entry_m3249874482_AdjustorThunk
jhi:_UnityEvent_1_Invoke_m3604335408_gshared
_e:_emscripten_glDeleteObjectARB
Y_c:_EventSystem_RaycastComparer_m3685368675
Vf:_IMG_Load
mIg:__Z131RuntimeInvoker_Void_t1185182177_RuntimeObject_RuntimeObject_Int64_t3736567304_ObjectU26_t2146539884_SerializationInfoU26_t419328957PFvvEPK10MethodInfoPvPS4_
Ajc:__Z53Register_UnityEngine_RenderTexture_Internal_GetHeightv
s7e:_PKCS12_RemoveCertificate_m1421555398
C_e:_Slider_FindSelectableOnLeft_m1667068522
RAa:__ZN6prcoreL17RemapGenericFloatI17TexFormatRGBAHalf18TexFormatARGBFloatEEvPKNS_9InnerInfoE
onc:__Z14GetBuiltinSkini
MJe:_MethodDictionary_get_Item_m1201458851
F7:___cxx_global_var_init_18
il:_JS_SystemInfo_GetBrowserVersionString
Ejb:__ZN2UI13RectTransform23VirtualRedirectTransferER14SafeBinaryRead
BAe:_Enumerator_MoveNext_m3045873697_gshared
cka:__ZNSt3__26vectorIN9ShaderLab20SerializedSubProgramENS_9allocatorIS2_EEE6assignIPS2_EENS_9enable_ifIXaasr21__is_forward_iteratorIT_EE5valuesr16is_constructibleIS2_NS_15iterator_traitsIS9_E9referenceEEE5valueEvE4typeES9_S9_
$tc:__Z18Transfer_BlittableI8JSONReadLb0E8BitFieldEvRK29SerializationCommandArgumentsR31RuntimeSerializationCommandInfo
Wlf:_SecurityPermission_set_Flags_m1503445204
n_f:_HashSet_1_CopyTo_m2849056227_gshared
Wyb:__ZL17Transfer_GUIStyleI18StreamedBinaryReadILb1EELb0EEvRK29SerializationCommandArgumentsR31RuntimeSerializationCommandInfo
R2e:_ModulusRing_Multiply_m343333088
Tha:__ZN9ShaderLab14SerializedPass8TransferI14SafeBinaryReadEEvRT_
goc:__Z71Register_UnityEngine_GUILayoutUtility_INTERNAL_CALL_Internal_MoveWindowv
ZO:__ZN12AudioManager16SetListenerPauseEb
Rfb:__ZNSt3__26vectorIN30RuntimeInitializeOnLoadManager9ClassInfoE13stl_allocatorIS2_L18MemLabelIdentifier13ELi16EEE6assignINS_11__wrap_iterIPS2_EEEENS_9enable_ifIXaasr21__is_forward_iteratorIT_EE5valuesr16is_constructibleIS2_NS_15iterator_traitsISC_E9referenceEEE5valueEvE4typeESC_SC_
yJf:_SetPropertyUtility_SetStruct_TisSingle_t1397266774_m2805350785_gshared
y9i:__ZN6il2cpp2vm9Exception25RaiseOutOfMemoryExceptionERKNS_5utils10StringViewIDsEE
da:invoke_viiiiiiiiiii
ruj:___syscall_ret
Qli:_DeriveBytes_set_Salt_m1400945044
f1c:_PointerEventData_set_worldNormal_m1888481930
Fri:_AnchorInfo__ctor_m46784903
Lae:_CipherSuiteCollection_get_Item_m4188309062
tge:_SslHandshakeHash_HashFinal_m2573455475
IHe:_SynchronizationAttribute_ReleaseLock_m1030353464
y7a:__ZN11ChannelInfo8TransferI19StreamedBinaryWriteILb0EEEEvRT_
Bkj:__ZN4utf88internal13validate_nextIPKcEENS0_9utf_errorERT_S5_Rj
RXh:__ZL53ToggleGroup_t123837990_CustomAttributesCacheGeneratorP21CustomAttributesCache
eOb:__ZN14qsort_internal13Partition3WayIP17RODataReplacementi19ROSorterReplacementEENSt3__24pairIT_S6_EES6_S6_T0_T1_
jRe:_InputField_CreateCursorVerts_m3585916868
Agc:__Z34Register_UnityEngine_Gradient_Initv
WGe:_Context_ToString_m1073616138
w6a:__ZN13ScreenManager23SetIsOrientationEnabledE18EnabledOrientationb
uOe:_InputField_EnforceTextHOverflow_m3400115777
ycb:__ZN9InputAxis8TransferI19StreamedBinaryWriteILb0EEEEvRT_
KDd:__Z33il2cpp_codegen_check_sub_overflowxx
lAj:dynCall_viififiii
hPe:_InputField_get_caretColor_m2973283772
T3h:_Resources_ConvertObjects_TisRuntimeObject_m1486780300_gshared
AAf:_Double_System_IConvertible_ToInt16_m3591921965_AdjustorThunk
rci:_Comparison_1_Invoke_m2925518770_gshared
DQa:__ZN10GameObject23VirtualRedirectTransferER18StreamedBinaryReadILb0EE
Ixi:_SymmetricTransform__ctor_m2693628991
VRd:_ObjectDisposedException__ctor_m1034312941
qg:_glFrontFace
xug:_RectOffset__ctor_m3236153262
JUe:_MaskUtilities_IsDescendantOrSelf_m2247511982
aTb:__ZNSt3__26vectorI16ShadowCasterData13stl_allocatorIS1_L18MemLabelIdentifier2ELi16EEE21__push_back_slow_pathIKS1_EEvRT_
QMc:__Z51Register_UnityEngine_TextGenerator_GetLinesInternalv
Zze:_Enumerator_get_Current_m2250080680_AdjustorThunk
tyi:_AesManaged_set_Key_m767972181
MCd:_Int16_System_IConvertible_ToBoolean_m1656400658_AdjustorThunk
Jqd:_Byte_System_IConvertible_ToInt64_m285584218
vta:__ZN13GfxDeviceGLES22SetScissorRectPlatformERK5RectTIiE
gAa:__ZN6prcoreL17RemapGenericFloatI17TexFormatRGBFloat18TexFormatRGBAFloatEEvPKNS_9InnerInfoE
qNf:_Array_InternalArray__ICollection_Add_TisDictionaryEntry_t3123975638_m665385049_gshared
SOd:_MissingMemberException__ctor_m2707802176
YWc:__ZN20UnityConnectSettings10InitializeEv
JHi:_Canvas_get_renderMode_m841659411
G4a:__ZN15SerializeTraitsI13dynamic_arrayI28EnlightenRendererInformationLj8EEE19ResizeSTLStyleArrayERS2_i
Zcd:_SerializationInfo_GetValue_m42271953
sG:__ZN9AudioClip11CreateSoundEv
U2i:__ZN14dense_hash_mapI10KeyWrapperINSt3__24pairIPK9FieldInfoP11Il2CppClassEEEj17ReflectionMapHashIS8_ENS9_14EqualsComparerINS1_8equal_toIS8_EEEENS1_9allocatorINS2_IKS9_jEEEEEC2EjRKSB_RKSF_
q_i:__ZNK15dense_hashtableINSt3__24pairIK10KeyWrapperINS1_IPK10MethodInfoP11Il2CppClassEEEjEES9_17ReflectionMapHashIS8_EN14dense_hash_mapIS9_jSD_NS9_14EqualsComparerINS0_8equal_toIS8_EEEENS0_9allocatorISB_EEE9SelectKeyESI_SK_E13find_positionERSA_
Csa:__ZN13GfxDeviceGLES20CreateComputeProgramEPKhj
rWc:__ZN11UnityEngine7Connect16PersistentValues13RestoreValuesER8JSONRead
DGf:_Guid_BaseToString_m3600006650
kOa:__ZN20ArchiveStorageReader31TryToReadDirectoryFromBlockDataEyPKvj
Ebj:__ZN6il2cpp2vmL11GetIdentityEP14Il2CppIUnknown
Vnj:_GC_push_gc_structures
Wde:_TlsServerCertificate_ProcessAsTls1_m819212276
a8h:_ReadOnlyCollection_1_System_Collections_Generic_ICollectionU3CTU3E_Clear_m2102011098_gshared
D1h:_Dictionary_2_Do_ICollectionCopyTo_TisRuntimeObject_m3942192587_gshared
VUi:__ZN6il2cpp6icalls8mscorlib6SystemL8IsPublicEPK9EventInfo
R6d:_PrimalityTests_RabinMillerTest_m2544317101
a6d:_Kernel_DwordDivMod_m1540317819
V9g:_Enumerator_System_Collections_IEnumerator_get_Current_m1399273671_gshared
x_d:_TypeBuilder_GetPropertyImpl_m3104345782
S7a:__ZNSt3__213__stable_sortIRNS_4lessI4PPtrI11SpriteAtlasEEENS_11__wrap_iterIPS4_EEEEvT0_SA_T_NS_15iterator_traitsISA_E15difference_typeEPNSD_10value_typeEi
_Gd:_Int64_ToString_m2085073918_AdjustorThunk
d$d:_FieldInfo_GetFieldOffset_m1356898082
BMf:_Array_InternalArray__IndexOf_TisTypeTag_t3541821701_m2988972362_gshared
X8:__ZN8keywords6CreateEPKc
pKi:__ZL7log2_32j
S:Math_imul
pee:_TlsServerKeyExchange_Update_m453798279
J5a:__ZN11PlayerPrefs6GetIntERKN4core12basic_stringIcNS0_20StringStorageDefaultIcEEEEi
Sae:_CipherSuiteCollection_System_Collections_IList_IndexOf_m1361500977
v$e:_Text_set_fontStyle_m648756124
yMc:__Z45TextGenerator_CUSTOM_INTERNAL_get_rectExtentsP12Il2CppObjectP5RectTIfE
jtf:_DateTime__ctor_m2135476686_AdjustorThunk
LP:__ZN11AudioSource12SetAudioClipEP9AudioClip
lvg:_RectTransform_GetLocalCorners_m823861473
Xud:_SynchronizedArrayListWrapper_GetEnumerator_m1579424644
s_:__ZN18ScriptingArguments9AddObjectE18ScriptingObjectPtr
MQc:__Z39CanvasGroup_Get_Custom_PropInteractableP12Il2CppObject
GR:__ZN11UnityEngine15CloudWebService16SessionContainerD2Ev
BWc:__ZL38InitializeUnityConnectScriptingClassesv
nXb:__ZN13ProbeRenderer8ConvolveEbijjb
mxi:_GUIUtility_set_systemCopyBuffer_m608712289
wwa:__ZN17GenericDynamicVBOC2ER9GfxDevice13GfxBufferModejj
pmc:__ZZN10GUIManager14InitGUIManagerEvEN41PreUpdateIMGUISendQueuedEventsRegistrator7ForwardEv
Oaf:_ServicePointManager_get_SecurityProtocol_m966397919
aDa:__ZN13dynamic_arrayIN18GlslGpuProgramGLES9GLProgramELj4EE6insertEPS1_jRKS1_
kDf:_CCGregorianCalendar_day_from_fixed_m1674702403
ZS:__ZN11UnityEngine15CloudWebService17SessionEventQueue10PurgeItemsEj
TXb:__ZN6Camera16StandaloneRenderENS_10RenderFlagEP6ShaderRKN4core12basic_stringIcNS3_20StringStorageDefaultIcEEEE
pdf:_X509Chain_PrepareForNextCertificate_m3691934993
oyb:__Z18Transfer_BlittableI18StreamedBinaryReadILb1EELb1EtEvRK29SerializationCommandArgumentsR31RuntimeSerializationCommandInfo
DPh:__ZL58EventType_t3528516131_CustomAttributesCacheGenerator_keyUpP21CustomAttributesCache
Evh:__ZL57X509Certificate_t713131622_CustomAttributesCacheGeneratorP21CustomAttributesCache
Kab:__ZN12BoneWeights48TransferI19StreamedBinaryWriteILb0EEEEvRT_
Hqa:__ZN9GfxDevice20DeallocRenderSurfaceEP17RenderSurfaceBase
_ma:__ZN20GpuProgramParameters36UpdatePrepareValuesMaximumBufferSizeEv
H6h:_ReadOnlyCollection_1_System_Collections_IList_RemoveAt_m2129436005_gshared
I0e:_SimpleCollator_GetContraction_m2205549079
z7d:_ARC4Managed_GenerateKey_m1607343060
GOf:_Array_InternalArray__ICollection_CopyTo_TisDecimal_t2948259380_m2749946216_gshared
bSa:__ZN12BaseRenderer23RendererBecameInvisibleEv
lJc:__ZN20TextRenderingPrivate8FontImpl13CharacterInfo8TransferI18StreamedBinaryReadILb0EEEEvRT_
Dvb:__Z29Transfer_Blittable_ArrayFieldI24GenerateTypeTreeTransferfEvRT_R9ArrayInfoRK23StaticTransferFieldInfo
zba:__ZNSt3__26__treeINS_12__value_typeIN4core12basic_stringIcNS2_20StringStorageDefaultIcEEEES6_EENS_19__map_value_compareIS6_S7_NS_4lessIS6_EELb1EEE13stl_allocatorIS7_L18MemLabelIdentifier13ELi16EEE7destroyEPNS_11__tree_nodeIS7_PvEE
fng:_UnityEvent_FindMethod_Impl_m2312362624
hZb:__ZN19CustomRenderTexture9AddParentE4PPtrIS_E
W6:__ZN8Gradient8TransferI14SafeBinaryReadEEvRT_
Sig:_Vector3_GetHashCode_m2879461828
Hqi:_Parser_ParseSpecial_m1961501104
Sof:_Single_System_IConvertible_ToUInt64_m3299129161_AdjustorThunk
f0a:__ZNSt3__26vectorIN4core12basic_stringIcNS1_20StringStorageDefaultIcEEEE13stl_allocatorIS5_L18MemLabelIdentifier1ELi16EEE7reserveEj
taf:_IPv6Address_AsIPv4Int_m844941024
rSd:_Random__ctor_m3209279193
Mee:_RecordProtocol__cctor_m1280873827
I6f:_StringBuilder__ctor_m3504405255
U4d:_Marshal__cctor_m4007734770
Pmj:_GC_new_free_list_inner
A6e:_SymmetricTransform_Random_m2004892672
umj:_GC_err_printf
d9d:_RSAManaged_DecryptValue_m1804388365
Eie:_InternalEnumerator_1_System_Collections_IEnumerator_get_Current_m2980550840_AdjustorThunk
Puc:__ZN8JSONRead8TransferI10RectOffsetEEvRT_PKc17TransferMetaFlagsb
IS:__ZN9JSONWrite8TransferIN11UnityEngine15CloudWebService14DataErrorEvent15FileErrorDetailEEEvRT_PKc17TransferMetaFlags
LFd:_Int32_Parse_m2087562008
xLf:_Array_compare_TisVector4_t3319028937_m1974066282_gshared
T1d:_MonoProperty_GetAccessors_m412928203
Hii:_TweenRunner_1_Start_m3757154622_gshared
yJ:__ZN12SoundManager20RegisterModifiedClipEP10SampleClip
eEe:_RemotingServices_GetClientChannelSinkChain_m1499550585
RSd:_Assembly_FillName_m1660001542
lth:__ZL56_EventBuilder_t2558055199_CustomAttributesCacheGeneratorP21CustomAttributesCache
fkf:_SHA384Managed_processBlock_m1272529332
cM:__ZN11AudioSource4PlayEd
Esd:_Char_ToString_m278452217_AdjustorThunk
wOi:__ZN15dense_hashtableI10KeyWrapperIPK17Il2CppGenericInstES4_N6il2cpp8metadata21Il2CppGenericInstHashEN14dense_hash_setIS4_S7_NS4_14EqualsComparerINS6_24Il2CppGenericInstCompareEEENSt3__29allocatorIS4_EEE8IdentityESB_SE_E13set_empty_keyERKS4_
VBg:__Z63RuntimeInvoker_Char_t3634460470_Int16_t2552820387_RuntimeObjectPFvvEPK10MethodInfoPvPS4_
xAd:_Convert_ToDouble_m2924063577
tUd:_CustomAttributeNamedArgument_ToString_m1488801416_AdjustorThunk
gBe:_ValueCollection_System_Collections_Generic_ICollectionU3CTValueU3E_Remove_m3673494156_gshared
H2a:__ZN7Cubemap23VirtualRedirectTransferER18StreamedBinaryReadILb0EE
Qhc:__ZNSt3__27__sort4IRNS_6__lessI11KeyframeTplIfES3_EEPS3_EEjT0_S7_S7_S7_T_
OFc:_Read_CVT
SL:__ZN11AudioSource23VirtualRedirectTransferER19StreamedBinaryWriteILb0EE
K0e:_SimpleCollator_GetTailContraction_m2107754083
rub:__ZL26Transfer_SimpleNativeClassI24GenerateTypeTreeTransfer17AnimationCurveTplIfELb0EEvRK29SerializationCommandArgumentsR31RuntimeSerializationCommandInfo
Pvc:__ZN8JSONRead21TransferSTLStyleArrayI13dynamic_arrayI9BoundsIntLj4EEEEvRT_17TransferMetaFlags
O4a:__ZN24GenerateTypeTreeTransfer8TransferI13dynamic_arrayI33EnlightenTerrainChunksInformationLj4EEEEvRT_PKc17TransferMetaFlags
$tf:_DateTimeFormatInfo__ctor_m3106345035
Ibe:_TlsServerKeyExchange_verifySignature_m3412856769
HVf:_EqualityComparer_1_System_Collections_IEqualityComparer_GetHashCode_m4137147946_gshared
Wca:__ZN16LightmapSettings20DidChangeActiveSceneEP10UnitySceneS1_
SZh:__ZL59g_AssemblyU2DCSharp_Assembly_CustomAttributesCacheGeneratorP21CustomAttributesCache
hVi:__ZN6il2cpp5utils9PathUtils8BasenameIcEENSt3__212basic_stringIT_NS3_11char_traitsIS5_EENS3_9allocatorIS5_EEEERKSA_
SLe:_RemotingProxy__cctor_m4096951805
Unc:__Z35Register_UnityEngine_Event_get_typev
J9i:__ZN6il2cpp2vm9Exception23GetInvalidCastExceptionERKNS_5utils10StringViewIDsEE
ez:__ZN8Animator28BuildControllerPlayableCacheEv
$Y:__Z63ThreadAndSerializationSafeCheckGetMonoBehaviourBeingTransferredv
_zf:_StackTrace__ctor_m206492268
q1g:_List_1_set_Item_m4224739467_gshared
r6c:_ColorTween_set_startColor_m2562993758_AdjustorThunk
jVd:_ConstructorBuilder_get_Name_m2426555260
whc:__Z37Register_UnityEngine_Input_GetAxisRawv
Iqi:_Parser_ParseCharacterClass_m4285351396
uBd:_Convert_ToSByte_m2653418303
Jxd:_SyncHashtable__ctor_m2449935938
QL:__ZN11AudioSource5ResetEv
rjf:_RSAPKCS1SignatureFormatter_SetKey_m2935054088
ENb:__ZN12ImageFilters27SetSurfaceUseResolvedBufferEP13RenderTextureb
f8a:__ZN14Texture2DArray23VirtualRedirectTransferER18StreamedBinaryReadILb0EE
q8f:_UTF7Encoding_GetByteCount_m209415911
vjb:__ZN2UI13RectTransform13AwakeFromLoadE17AwakeFromLoadMode
oti:_RegularExpression_Compile_m2385682508
uDf:_CompareInfo__cctor_m1837489679
ASb:__ZN14qsort_internal30FindAndMovePivotToLastPositionIP20ShadowCasterSortDatai26ShadowCasterSortDataSorterEEvT_S4_T0_T1_
Pnb:__Z18Transfer_BlittableI14SafeBinaryReadLb1EiEvRK29SerializationCommandArgumentsR31RuntimeSerializationCommandInfo
vdf:_X509ExtensionEnumerator_get_Current_m256207749
_7:__GLOBAL__sub_I_modules_profiler_public_0_cpp
Xhb:__ZN17PersistentManager13GetAllFileIDsERKN4core12basic_stringIcNS0_20StringStorageDefaultIcEEEER13dynamic_arrayIxLj8EE
cod:_Array_Sort_m182264525
BSe:_LayoutGroup_set_padding_m282562135
NTd:_Default_IsArrayAssignable_m953489228
Peg:_UInt16_ToString_m355311020_AdjustorThunk
eid:_RC2__ctor_m1146135664
Ek:_glGetStringi
esf:_DecoderExceptionFallback_CreateFallbackBuffer_m1133375601
Adj:__ZNK15dense_hashtableI10KeyWrapperIP18Il2CppGenericClassES3_N6il2cpp8metadata22Il2CppGenericClassHashEN14dense_hash_setIS3_S6_NS3_14EqualsComparerINS5_25Il2CppGenericClassCompareEEENSt3__29allocatorIS3_EEE8IdentityESA_SD_E10test_emptyERK30dense_hashtable_const_iteratorIS3_S3_S6_SF_SA_SD_E
nxe:_Enumerator_get_CurrentKey_m889650866_gshared
xA:__ZN8Animator9WriteStepEy
Gwe:_Enumerator_VerifyCurrent_m829026141_gshared
Y8b:__ZN16PropertyAccessorC2Ev
S5a:__ZNSt3__23mapIN4core12basic_stringIcNS1_20StringStorageDefaultIcEEEE9PrefValueNS_4lessIS5_EENS_9allocatorINS_4pairIKS5_S6_EEEEEixERSB_
s8b:__ZN15DirectorManager22ConstructPlayableGraphEv
qch:_Collection_1_ConvertItem_m1743542180_gshared
FMc:__Z38Register_UnityEngine_Font_HasCharacterv
xWb:__Z35IntersectSpherePlaneBoundsOptimizedRKN4math7_float4EPS1_i
yif:_RNGCryptoServiceProvider__cctor_m3587754670
ogj:__ZN6il2cpp2os5posix15PosixWaitObject13InterruptWaitEv
tca:__Z22CleanupLODGroupManagerPv
Qnc:__Z21Event_CUSTOM_PopEventP12Il2CppObject
ol:_glUniform3fv
Jsj:__ZNK6il2cpp8metadata24Il2CppGenericInstCompareclERK10KeyWrapperIPK17Il2CppGenericInstES8_
Veb:__ZNSt3__218__insertion_sort_3IRN15ResourceManager10Dependency6SorterEPS2_EEvT0_S6_T_
Qdf:_X509ChainElement_Set_m655180762
Nqg:_MonoBehaviour_StopCoroutine_m615723318
lRb:__ZNK16LightmapSettings31GetRealtimeLightmapDecodeValuesEv
SK:__ZN5audio5mixer12SetSuspendedERNS0_16AudioMixerMemoryEb
Pib:__ZN17PersistentManager21UnloadNonDirtyStreamsEv
YIg:__Z96RuntimeInvoker_Int32_t2950945753_RuntimeObject_Int32_t2950945753_RuntimeObject_Int32_t2950945753PFvvEPK10MethodInfoPvPS4_
Qti:_Uri_get_Parser_m3737125102
SHi:_Canvas_get_overrideSorting_m2740418462
Oag:_Scheduler__ctor_m3313141270
g9a:__ZN12ImageFilters4BlitER17ShaderPassContextP7TextureP13RenderTextureiPK18SharedMaterialDataPKcP6ShaderiNS_9BlitFlagsE11CubemapFaceRK8Vector2fSH_
Eqf:_String_LastIndexOf_m3451222878
Eoi:_Mark_get_Index_m3048692661
iYh:__ZL69CanvasScaler_t2767979955_CustomAttributesCacheGenerator_m_ScaleFactorP21CustomAttributesCache
nFe:_ConfigHandler_CheckPath_m3079311646
hT:__ZN11UnityEngine15CloudWebService10RestClientINS0_23WebRequestRestHeaderMapEED2Ev
Kl:_emscripten_glDepthMask
XDe:_RemotingServices_CreateClientProxy_m3886727610
Lxa:__ZN4crnd25static_huffman_data_model22prepare_decoder_tablesEv
Ree:_RecordProtocol_GetMessage_m2086135164
Pmc:__Z23GUIStatePopDisplayIndexv
$ca:__Znaj
VIj:_emscripten_glEnableClientState__wrapper
J9:__ZN17MessageIdentifierC2EPKcNS_7OptionsEPKN5Unity4TypeES1_
Fqg:_Mesh_SetTriangles_m1523451247
Hof:_Single_System_IConvertible_ToSByte_m1208276900
F_h:_Array_InternalArray__set_Item_TisVector4_t3319028937_m757305038_gshared
pHg:__Z105RuntimeInvoker_Void_t1185182177_RuntimeObject_RuntimeObject_RuntimeObject_RuntimeObject_Int32_t2950945753PFvvEPK10MethodInfoPvPS4_
RAe:_ValueCollection_System_Collections_Generic_ICollectionU3CTValueU3E_Add_m3298059628_gshared
qCg:__Z64RuntimeInvoker_RuntimeObject_Int16_t2552820387_Int16_t2552820387PFvvEPK10MethodInfoPvPS4_
xQ:__Z55Register_UnityEngine_AudioSource_get_spatializeInternalv
aLa:__ZN14SafeBinaryRead8TransferI14ConstantStringEEvRT_PKc17TransferMetaFlags
RLb:__ZNK6Camera16GetStereoEnabledEv
ZLg:__Z72RuntimeInvoker_Int32_t2950945753_TimeSpan_t881159249_TimeSpan_t881159249PFvvEPK10MethodInfoPvPS4_
qfe:_SendRecordAsyncResult_SetComplete_m153213906
Ena:__ZL24FindBelongingStructParamRPKcRNSt3__26vectorIN9ShaderLab20SerializedSubProgram14ConstantBufferENS2_9allocatorIS6_EEEE
v5b:__ZN12LightManager15InitializeClassEv
$ag:_WaitHandle__cctor_m4242752477
e$a:__ZN9ShaderLab11shaderprops16GetComputeBufferEPK19ShaderPropertySheetS3_NS_16FastPropertyNameE
Mkj:__ZN6il2cpp6icalls8mscorlib6System10Reflection10MethodBase31GetMethodFromHandleInternalTypeEii
I_:__ZN18ScriptingArgumentsC2Ev
mjg:_Vector3_op_Equality_m4231250055
qEj:_emscripten_glBlendFuncSeparate__wrapper
WId:_FileSystemInfo__ctor_m3769019897
h3h:_Array_InternalArray__get_Item_TisContentType_t1787303396_m421427711_gshared
Oua:__Z17HasSampledTexture14GraphicsFormat13formatSupport
eNb:__ZNK25CameraStackRenderingState27GetStereoImageEffectTextureEb
yhd:_HMACSHA384__ctor_m1677515580
uif:_RIPEMD160Managed_J_m1336489154
sp:__ZN8Vector3f8TransferI14SafeBinaryReadEEvRT_
FSi:__ZN6il2cpp6icalls6System6System3Net7Sockets6Socket7ReceiveEiP11Il2CppArrayiiNS4_11SocketFlagsEPi
wo:FUNCTION_TABLE_ii
TRa:__ZN10TagManager8TransferI18StreamedBinaryReadILb0EEEEvRT_
prc:__Z18Transfer_BlittableI9JSONWriteLb0E8BitFieldEvRK29SerializationCommandArgumentsR31RuntimeSerializationCommandInfo
VKd:_MemoryStream_set_Capacity_m1773624579
s5i:__ZNK15dense_hashtableINSt3__24pairIK10KeyWrapperINS1_IP11Il2CppClassjEEES4_EES6_N6il2cpp8metadata14ArrayClassHashEN14dense_hash_mapIS6_S4_SB_NS6_14EqualsComparerINSA_17ArrayClassCompareEEENS0_9allocatorIS8_EEE9SelectKeyESF_SH_E10test_emptyEj
Oia:__ZNSt3__26vectorIN9ShaderLab20SerializedSubProgram15StructParameterENS_9allocatorIS3_EEE8__appendEj
tb:invoke_diiii
YCj:b47
cOg:__Z95RuntimeInvoker_Void_t1185182177_RuntimeObject_RuntimeObject_SByte_t1669577662_SByte_t1669577662PFvvEPK10MethodInfoPvPS4_
zMa:__Z24CreateDirectoryRecursiveRKN4core12basic_stringIcNS_20StringStorageDefaultIcEEEE
KCj:b41
ila:__ZN9ShaderLab20SerializedSubProgram8TransferI18StreamedBinaryReadILb0EEEEvRT_
JCj:b40
iKh:__ZL54ContextMenu_t1295656858_CustomAttributesCacheGeneratorP21CustomAttributesCache
j9:__ZN13RuntimeStaticI21ScalableBufferManagerLb0EE13StaticDestroyEPv
lNc:__ZN2UI13CanvasManager9AddCanvasEPNS_6CanvasE
Z8a:__ZN9Texture3D8TransferI19StreamedBinaryWriteILb0EEEEvRT_
JNb:__ZNK6Camera22CalculateRenderingPathEv
eBd:_Convert_ToInt64_m3758262873
gC:__ZN11UnityEngine9Animation37SetGenericRootTransformPropertyValuesERKNS0_30AnimatorGenericBindingConstantERKN7mecanim10ValueArrayER9Transformbb
YDa:__Z13ConvertMipmap14GraphicsFormatPKvS_Pviiii
Zsb:__ZL12InvokeMethodI17RemapPPtrTransferEvRK29SerializationCommandArgumentsR31RuntimeSerializationCommandInfo
x9e:_RemoteCertificateValidationCallback_Invoke_m3086073466
Erf:_StringComparer_Compare_m991165676
vDc:_tt_sbit_decoder_load_image
tii:_U3CStartU3Ec__Iterator0_Dispose_m261027331_gshared
XEa:__ZN4core8hash_mapIPK17RenderSurfaceBaseP13RenderTexture19PointerHashFunctionIS3_ENSt3__28equal_toIS3_EEE6insertERKNS8_4pairIKS3_S5_EE
Jmc:__ZNSt3__24listIN10GUIManager12SortedScriptE11memory_poolIS2_EE6__sortI13OldSortScriptEENS_15__list_iteratorIS2_PvEESA_SA_jRT_
qfh:_Collection_1_System_Collections_IList_Add_m3364892189_gshared
N1g:_List_1_AddEnumerable_m3500350831_gshared
Q8d:_PrivateKeyInfo_get_PrivateKey_m3647771102
p8i:__ZN6il2cpp6icalls8mscorlib6System9ThreadingL11ThreadStartEPv
Tea:__ZN15DirectorManager12OnSampleTimeEv
sZd:_TypeBuilder_check_not_created_m3652863637
B2c:_StandaloneInputModule_UpdateModule_m450861257
IGi:_Font_add_textureRebuilt_m2164317336
bbi:_ReadOnlyCollection_1_System_Collections_IList_Insert_m2928873627_gshared
oXf:_EqualityComparer_1__cctor_m314889309_gshared
f6:__ZN12CachedReader10Align4ReadEv
Cmi:_X501__cctor_m2428304915
RHi:_Canvas_get_renderOrder_m1489855841
PCg:__Z50RuntimeInvoker_Void_t1185182177_Single_t1397266774PFvvEPK10MethodInfoPvPS4_
hvi:_Event_ToString_m1688862299
bKa:__ZNK9Behaviour22GetTypeVirtualInternalEv
jDf:_CCGregorianCalendar_month_from_fixed_m4268992710
oLf:_Array_compare_TisUICharInfo_t75501106_m1310495481_gshared
hXb:__Z21GetScriptingArraySize17ScriptingArrayPtr
JIc:__ZN20TextRenderingPrivate8FontImpl8TransferI14SafeBinaryReadEEvRT_
q9h:_ReadOnlyCollection_1_System_Collections_IList_Clear_m4022532825_gshared
S5f:_Encoding_get_ASCII_m3595602635
Dra:__ZN9GfxDevice17ImmediateTexCoordEifff
hWd:_DerivedType_GetCustomAttributes_m3536779709
wyh:__ZL93Interlocked_t2273387594_CustomAttributesCacheGenerator_Interlocked_CompareExchange_m388540288P21CustomAttributesCache
u_d:_MethodBase_get_IsAbstract_m428833029
Atb:__Z35Transfer_Blittable_FixedBufferFieldI24GenerateTypeTreeTransferhEvRK29SerializationCommandArgumentsR31RuntimeSerializationCommandInfo
kCj:_emscripten_glUniform4f__wrapper
G1f:_Enumerator_MoveNext_m2595190390_AdjustorThunk
MMf:_Array_InternalArray__IndexOf_TisColor32_t2600501292_m3783551884_gshared
mY:__ZNK6Camera16GetProjectionFarEv
Nq:__Z24InverseTransformRotationRK23TransformAccessReadOnlyRKN4math7_float4E
Cni:_X509Chain_Build_m2469702749
XL:__ZN11AudioSource6UpdateEv
h1a:__ZNK14PlayableOutput11DerivesFromE17ScriptingClassPtr
u2a:__ZN7Texture34CreateFileTextureUploadInstructionE18TextureUploadFlagsj
_3e:_BitConverterLE_ULongFromBytes_m1677445591
qZd:_TypeBuilder_DefineConstructor_m2989882735
ePa:__ZN25SingleBlockMemoryFileDataC2E10MemLabelIdPvjb
pD:__ZN8Animator8TransferI14SafeBinaryReadEEvRT_
WVb:__ZN27IntermediateRendererManager24GetIntermediateRenderersEi
A1:__Z23AsyncReadForceCloseFileRKN4core12basic_stringIcNS_20StringStorageDefaultIcEEEE
Ut:__ZN17AnimationPlayable34CollectAnimatorControllerPlayablesER13dynamic_arrayIP26AnimatorControllerPlayableLj4EE
RO:__ZN16BaseVideoTexture19UpdateVideoTexturesEv
S0d:_MonoField_GetValue_m3124733531
dWa:__Z28BuildSingleStreamChannelInfo17ShaderChannelMaskRK20VertexChannelsLayoutS_S2_P11ChannelInfo
D6a:__ZN6Sprite23VirtualRedirectTransferER19StreamedBinaryWriteILb0EE
m$c:_EventTrigger_Execute_m2453060771
fci:_Comparison_1_Invoke_m517083441_gshared
pJg:__Z253RuntimeInvoker_Int32_t2950945753_RuntimeObject_Int32_t2950945753_Int32_t2950945753_RuntimeObject_Int32_t2950945753_UInt32U26_t3735378166_UInt32U26_t3735378166_RuntimeObject_DecoderFallbackBufferU26_t3866396827_ByteU5BU5DU26_t4057885439_SByte_t1669577662PFvvEPK10MethodInfoPvPS4_
sZi:__ZNK15dense_hashtableINSt3__24pairIK10KeyWrapperINS1_IPK9FieldInfoP11Il2CppClassEEEjEES9_17ReflectionMapHashIS8_EN14dense_hash_mapIS9_jSD_NS9_14EqualsComparerINS0_8equal_toIS8_EEEENS0_9allocatorISB_EEE9SelectKeyESI_SK_E5beginEv
Rna:__ZNK9ShaderLab7Program19HasMatchingVariantsERK13dynamic_arrayI16ShaderKeywordSetLj4EE
kB:__ZN15SerializeTraitsIN4math4trsXEE8TransferI8BlobSizeEEvRS1_RT_
xva:__ZN14DataBufferGLES11CopySubDataEPKS_jjj
fe:_emscripten_glVertexPointer
nPc:__ZN2UI13PrepareOutputERNS_7BatchesEjjNS_30AdditionalCanvasShaderChannelsE
uVi:__ZN6il2cpp2vm7Runtime47RaiseExecutionEngineExceptionIfMethodIsNotFoundEPK10MethodInfo
kpi:_PatternCompiler_GetMachineFactory_m3758869886
dTb:__Z17GetFrustumPortionPK8Vector3fffPS_
$aj:__ZN15dense_hashtableINSt3__24pairIK10KeyWrapperIP14Il2CppIUnknownEjEES5_N6il2cpp5utils11PointerHashIS3_EEN14dense_hash_mapIS5_jSB_NS5_14EqualsComparerINS0_8equal_toIS4_EEEENS0_9allocatorIS7_EEE9SelectKeyESG_SI_E14squash_deletedEv
D$c:_EventTrigger_OnCancel_m585099428
twi:_GUILayoutEntry_ApplyOptions_m1741659338
bed:_RuntimeTypeHandle_Equals_m2857439487_AdjustorThunk
upa:__ZNK9GfxDevice27GetPlatformAdjustedViewportEv
x6h:_ReadOnlyCollection_1_System_Collections_Generic_IListU3CTU3E_set_Item_m88350439_gshared
pdi:_Func_3_Invoke_m1194147890_gshared
Vri:_Reference_Compile_m4195878675
oGi:_InputBuffer_remove_onCommandSent_m3139499669
L8h:_ReadOnlyCollection_1_System_Collections_ICollection_CopyTo_m2672196987_gshared
a9b:__ZN16StreamedResource8TransferI24GenerateTypeTreeTransferEEvRT_
Pug:_RectTransform_get_anchorMin_m2928307238
Psd:_ArrayList__ctor_m3828927650
Fta:__ZThn9568_N13GfxDeviceGLES26EnableScissorRectsPlatformEv
HGa:__ZN10Matrix3x3f15InvertTransposeEv
Fwi:_GUILayoutGroup_SetHorizontal_m996475327
wwi:_GUILayoutEntry__cctor_m663865902
lLb:__Z11IsBatchmodev
j0f:_Enumerator_System_Collections_IEnumerator_get_Current_m713684915_gshared
zrb:__Z29Transfer_Blittable_ArrayFieldI14SafeBinaryRead8Vector3fEvRT_R9ArrayInfoRK23StaticTransferFieldInfo
yJc:__ZN20TextRenderingPrivate8FontImpl18ResetCachedTextureEv
YTi:__ZN6il2cpp6icalls8mscorlib6SystemL16GetFieldFromTypeINS_5utils10functional6FilterINSt3__212basic_stringIcNS7_11char_traitsIcEENS7_9allocatorIcEEEENS4_13VmStringUtils21CaseSensitiveComparerEEEEEP21Il2CppReflectionFieldP11Il2CppClassSK_iRKT_
Mkc:__Z27Screen_Get_Custom_PropWidthv
xnj:_GC_print_finalization_stats
kxi:_GUITargetAttribute_GetGUITargetAttrValue_m2954410352
Xec:__Z53Register_UnityEngine_Behaviour_get_isActiveAndEnabledv
kod:_SimpleEnumerator_get_Current_m72361444
hq:__ZNSt3__26vectorIN4core12basic_stringIcNS1_20StringStorageDefaultIcEEEENS_9allocatorIS5_EEE8__appendEj
eP:__ZN13ProduceHelperI10SampleClipLb0EE7ProduceE10MemLabelId18ObjectCreationMode
ieb:__ZN26PlayerSettingsSplashScreen8TransferI17RemapPPtrTransferEEvRT_
K3e:_ASN1_set_Value_m2803403806
dUi:__ZN6il2cpp6icalls8mscorlib6SystemL17CollectTypeFieldsINS_5utils10functional10TrueFilterEEEvP11Il2CppClassPKS7_iRNSt3__26vectorIP9FieldInfoNSB_9allocatorISE_EEEERKT_
I1b:__Z13GetTagManagerv
Pld:_Hashtable__ctor_m1815022027
N8f:_UTF8Encoding_GetChars_m1433288684
gKi:__ZL10roundUp128PyS_
qR:__ZN11UnityEngine15CloudWebService17CloudJobSchedulerD0Ev
Nhe:_ArrayReadOnlyList_1_Contains_m381552673_gshared
vcg:_TimeZone_ToUniversalTime_m2789507578
LCg:__Z96RuntimeInvoker_Boolean_t97287965_RuntimeObject_RuntimeObject_Int32_t2950945753_Int32_t2950945753PFvvEPK10MethodInfoPvPS4_
QLf:_Array_IndexOf_TisUICharInfo_t75501106_m3198896198_gshared
JNc:__ZNK2UI11CanvasGroup22GetTypeVirtualInternalEv
ide:_Context_get_Current_m2853615040
zGi:_Keyboard_WarnIfTerminalNotConneced_m1063217717
bnc:__Z21CleanupGlobalGUIStatev
xdg:_Type_IsContextfulImpl_m3693603908
b1f:_Enumerator_VerifyState_m2873941769_gshared
OAb:__Z18Transfer_BlittableI18StreamedBinaryReadILb0EELb1EN4math12int3_storageEEvRK29SerializationCommandArgumentsR31RuntimeSerializationCommandInfo
eIa:__ZN22VertexDeclarationCache5ClearEv
Jfd:_CspParameters__ctor_m3852972821
i_b:__ZN17PersistentManager12SetPathRemapERKN4core12basic_stringIcNS0_20StringStorageDefaultIcEEEES6_
xw:__Z27ProcessRootMotionEmptyMixerP35AnimationPlayableEvaluationConstantP32AnimationPlayableEvaluationInputP33AnimationPlayableEvaluationOutput
GUb:__ZN6Camera24PrepareCullingParametersERK23CameraCullingParameters13RenderingPathR11CullResults
ubc:__Z12SetIUISystemP9IUISystem
Bgb:__ZN19RuntimeSceneManager22EndIntegrateMainThreadEP10UnitySceneNS_11LoadingModeE
i0h:_Array_Sort_TisUICharInfo_t75501106_m3474449559_gshared
$sb:__Z26Transfer_UnityEngineObjectI17RemapPPtrTransferLb0EEvRK29SerializationCommandArgumentsR31RuntimeSerializationCommandInfo
hqi:_QuickSearch_GetShiftDistance_m2542665852
I2h:_Array_InternalArray__get_Item_TisCustomAttributeTypedArgument_t2723150157_m2639399822_gshared
$1e:_BigInteger_GenerateRandom_m3141592944
uvb:__Z29Transfer_Blittable_ArrayFieldI24GenerateTypeTreeTransfer4AABBEvRT_R9ArrayInfoRK23StaticTransferFieldInfo
Ehf:_Interval_Contains_m1454846757
U9c:_Graphic_CacheCanvas_m1120385152
nuj:_emscripten_GetProcAddress
Ca:invoke_fiiifii
Jvj:_modff
CYa:__ZN20SphericalHarmonicsL219AddDirectionalLightERKN4math7_float3ERKNS0_7_float4E
Kea:__Z26ScheduleJobForEachInternalR8JobFencePFvPvjES1_iPFvS1_E11JobPriority
YKb:__ZZ23InitPlayerLoopCallbacksvEN41PostLateUpdateProfilerEndFrameRegistrator7ForwardEv
Obc:__ZN9Scripting18RaiseMonoExceptionEPKcz
jNc:__ZN2UI13UIInstruction19ClearSharedMeshDataER8JobFence
Q7b:__ZN10GameObject17WillHandleMessageERK17MessageIdentifier
Bmf:_StrongNamePublicKeyBlob_Equals_m3655422942
ynf:_SecurityContext__ctor_m1730177197
aJi:_RectTransformUtility_GetTransposed_m3952754222
U5b:__ZN9ShaderLab16FastPropertyName15InitBy28BitHashEj
L0g:_List_1_System_Collections_IList_set_Item_m4182383657_gshared
TFg:__Z96RuntimeInvoker_Void_t1185182177_Int32_t2950945753_Single_t1397266774_RuntimeObject_RuntimeObjectPFvvEPK10MethodInfoPvPS4_
Rve:_Enumerator_System_Collections_IDictionaryEnumerator_get_Key_m195047678_AdjustorThunk
QHi:_Canvas_get_pixelPerfect_m333060872
Z9a:__ZN17PackedFloatVector12UnpackFloatsEPfiiii
Cz:__ZN17AnimationPlayable28UpdateInternalStateRecursiveILi3ELb0EEEvPK35AnimationPlayableEvaluationConstant
Dsa:__ZN13GfxDeviceGLES21DestroyComputeProgramER12ObjectHandleI18ComputeProgram_TagPvE
Gpi:_PatternCompiler_EmitIfDefined_m2075050865
Nxf:_Decimal_System_IConvertible_ToInt64_m1446427516_AdjustorThunk
xca:__ZN17UniqueIDGenerator16DestroyPureIndexEj
WQd:_NotImplementedException__ctor_m3095902440
W$:__ZL21AppendNestedClassName17ScriptingClassPtrRN4core17string_with_labelILi1EEE
via:__ZN14SafeBinaryRead21TransferSTLStyleArrayINSt3__26vectorIN9ShaderLab20SerializedSubProgram12UAVParameterENS1_9allocatorIS5_EEEEEEvRT_17TransferMetaFlags
LGi:_FontTextureRebuildCallback_Invoke_m3604797831
AS:__ZN24TextDOMTransferWriteBaseI9JSONWriteE12PushMetaFlagEi
xth:__ZL59_PropertyBuilder_t1366136710_CustomAttributesCacheGeneratorP21CustomAttributesCache
iBa:__ZN6prcoreL26RemapGenericIntegerToFloatI17TexFormatARGB888815TexFormatRFloatEEvPKNS_9InnerInfoE
xTi:__ZN6il2cpp2vm10ThreadPool10InitializeEv
j4g:_List_1__ctor_m808270210_gshared
rXi:__ZN6il2cpp2vm17TypeNameParseInfoD2Ev
a_f:_PrimeHelper_ToPrime_m3704362632_gshared
YI:__ZN4FMOD7Channel7setModeEj
vxf:_Decimal_System_IConvertible_ToType_m2919262279
izg:_Vector2_get_right_m1027081661
vX:__ZNK8Renderer8GetLayerEv
SLd:_Stream_Close_m771352034
Rte:__ZN21InterfaceFuncInvoker1Ii19TimeSpan_t881159249E6InvokeEjP11Il2CppClassP12Il2CppObjectS0_
qPb:__ZNK6Camera20GetReplacementShaderEv
j7g:_List_1_System_Collections_IList_Remove_m4226673807_gshared
Lrj:__ZNSt3__26__treeINS_12__value_typeINS_12basic_stringIcNS_11char_traitsIcEENS_9allocatorIcEEEEPFvvEEENS_19__map_value_compareIS7_SA_NS_4lessIS7_EELb1EEENS5_ISA_EEE4findIS7_EENS_15__tree_iteratorISA_PNS_11__tree_nodeISA_PvEEiEERKT_
xya:__ZL23stbir__calculate_memoryP11stbir__info
Ogf:_Interpreter_Close_m126356671
s9a:__ZNK6Camera18GetRenderRectangleEv
O7a:__ZN13sorted_vectorIN4core12basic_stringIcNS0_20StringStorageDefaultIcEEEENSt3__24lessIS4_EE13stl_allocatorIS4_L18MemLabelIdentifier81ELi16EEE4findIS4_EENS5_11__wrap_iterIPS4_EERKT_
zqi:_Parser_HandleExplicitNumericGroups_m1412234891
f3h:_Array_InternalArray__get_Item_TisRaycastHit2D_t2279581989_m2440275162_gshared
mUd:_CustomAttributeNamedArgument_Equals_m1414002036
iuc:__ZL26Transfer_SimpleNativeClassI8JSONRead10RectOffsetLb1EEvRK29SerializationCommandArgumentsR31RuntimeSerializationCommandInfo
kpg:_Material_SetInt_m475299667
UQc:__Z44CanvasRenderer_CUSTOM_INTERNAL_CALL_SetColorP12Il2CppObjectRK10ColorRGBAf
CAe:_Enumerator_MoveNext_m3045873697_AdjustorThunk
z$f:_Enumerator_System_Collections_IEnumerator_Reset_m959124362_AdjustorThunk
YBf:_Enum_ToObject_m121831801
hcd:_Image_get_hasBorder_m3423344180
Zqc:__Z18Transfer_BlittableI9JSONWriteLb1EsEvRK29SerializationCommandArgumentsR31RuntimeSerializationCommandInfo
vcc:__ZN9Transform16SetLocalRotationERK11Quaternionf
o9c:_FontData_set_richText_m993590067
HLb:__ZN13RenderManager37RenderCamerasWithScriptableRenderLoopEi
lbg:_TimeSpan__ctor_m3689759052
tB:__ZN7mecanim8skeleton25SkeletonPoseComputeLocalQEPKNS0_8SkeletonEPKNS0_13SkeletonPoseTIN4math4trsXEEEPS7_ii
J$g:__Z37RuntimeInvoker_Enumerator_t3123848928PFvvEPK10MethodInfoPvPS4_
gej:__ZN6il2cpp2os19ReleaseSocketHandleEj
cO:__ZN11AudioModule16GetDSPSampleRateEv
xIb:__ZN15InstancingProps11NewConstantERKN9ShaderLab16FastPropertyNameEj15ShaderParamTypehhjjP6Object
XOe:_InputField_get_characterValidation_m4196664041
Dcg:_Type_get_Attributes_m58528356
zjd:_Array_GetUpperBound_m4018715963
joi:_X509Store__ctor_m2736551756
hgj:__ZN6il2cpp2os5posix15PosixWaitObjectC2ENS2_4TypeE
DNb:__ZN6Camera21PostMultiCustomRenderENS_10RenderFlagEb
XPf:_Array_InternalArray__Insert_TisMonoResource_t4103430009_m1997865927_gshared
xkf:_SHA512Managed_HashFinal_m2173184560
lIb:__ZN23ShaderVariantCollection13WarmupShadersEv
X3b:__ZN13ProduceHelperI9TransformLb0EE7ProduceE10MemLabelId18ObjectCreationMode
E$:__Z25GetCommonScriptingClassesv
Zgb:__Z27scripting_gc_collect_unsafei
q8d:_MD5SHA1_HashFinal_m4115488658
hO:__ZN11AudioModule20SuspendVideoTexturesEv
sNf:_Array_InternalArray__ICollection_Add_TisKeyValuePair_2_t71524366_m3468275433_gshared
TAi:_AudioSettings_InvokeOnAudioManagerUpdate_m4044425648
mQ:__Z59Register_UnityEngine_AudioExtensionManager_GetAudioListenerv
Nub:__Z26Transfer_UnityEngineObjectI24GenerateTypeTreeTransferLb0EEvRK29SerializationCommandArgumentsR31RuntimeSerializationCommandInfo
vAd:_Convert_ToDouble_m278900635
kAc:_UNITY_FT_GlyphLoader_CheckPoints
Klg:_DebugLogHandler_LogException_m302830419
SQe:_InputField_LineDownCharacterPosition_m2798128425
rxe:_Enumerator_System_Collections_IDictionaryEnumerator_get_Value_m684446183_AdjustorThunk
xUa:__ZN15SharedLightData7PrecalcEv
N1:__ZN10Matrix4x4fmLERKS_
Btg:_Vector2__ctor_m3970636864
jyb:__Z35Transfer_Blittable_FixedBufferFieldI18StreamedBinaryReadILb1EEsEvRK29SerializationCommandArgumentsR31RuntimeSerializationCommandInfo
uCf:_Environment_InternalGetFolderPath_m468390978
YNa:__ZN15ArchiveReadFileD0Ev
jUc:__ZN11UnityEngine15PlatformWrapper18GetOperatingSystemEv
gof:_SecurityFrame_ToString_m339310712
Muc:__ZN8GUIStyle8TransferI8JSONReadEEvRT_
c3c:_TouchInputModule_ProcessTouchPress_m3504077560
BZe:_Selectable_IsInteractable_m2611421038
Pzc:_FT_MSB
wGj:_emscripten_glReadPixels__wrapper
r_f:_HashSet_1_Add_m1971460364_gshared
$rj:__ZN6il2cpp6icalls8mscorlib4Mono8Security12Cryptography18KeyPairPersistence10_CanSecureEP12Il2CppString
BHf:_Array_InternalArray__ICollection_Contains_TisParameterModifier_t1461694466_m1000453323_gshared
hSf:_Dictionary_2_System_Collections_ICollection_CopyTo_m4047192178_gshared
_Vi:__ZN6il2cpp2os4File11GetFileStatERKNSt3__212basic_stringIcNS2_11char_traitsIcEENS2_9allocatorIcEEEEPNS0_8FileStatEPi
_hf:_RIPEMD160Managed_Initialize_m2173168986
H5b:__ZN9TransformC2E10MemLabelId18ObjectCreationMode
Poa:__ZN13GfxDeviceGLES14SetRasterStateEPK17DeviceRasterState
WSd:_Assembly_ToString_m2053237013
Ppg:_Vector4_Equals_m1779210055
eCc:_otv_Coverage_get_count
H2d:_ParameterModifier_t1461694466_marshal_pinvoke_back
E2:__ZN14SafeBinaryRead11EndTransferEv
zYf:_EqualityComparer_1__cctor_m2741186979_gshared
zpb:__ZN14SafeBinaryRead8TransferI8MonoPPtrEEvRT_PKc17TransferMetaFlags
OBf:_Enum_System_IConvertible_ToUInt16_m4216751959
oGa:__ZN21UniformBufferTFMethod13MapBoneBufferEj
hGi:_StringExtension_Anagram_m968226828
OPf:_Array_InternalArray__Insert_TisInt32_t2950945753_m4073217122_gshared
Bif:_RNGCryptoServiceProvider_RngClose_m3915778345
xyd:_SortedList_Remove_m2784369438
vxa:__ZN4crnd12crn_unpacker10unpack_dxnEPPhjjj
m0:__ZN14SerializedFileD2Ev
Knc:__Z30Event_Get_Custom_PropModifiersP12Il2CppObject
hu:__ZN7mecanim9animation16CreateClipOutputEPKNS0_4ClipERNS_6memory9AllocatorE
xVe:_RawImage_get_mainTexture_m2396337033
nYi:__ZN6il2cpp2vm10Reflection17GetAssemblyObjectEPK14Il2CppAssembly
ZCb:__ZNSt3__218__stable_sort_moveIRN10vector_mapI17ScriptingClassPtrPKN5Unity4TypeENS_4lessIS2_EENS_9allocatorINS_4pairIS2_S6_EEEEE13value_compareENS_11__wrap_iterIPSB_EEEEvT0_SJ_T_NS_15iterator_traitsISJ_E15difference_typeEPNSM_10value_typeE
Zga:__ZN6Shader21AwakeFromLoadThreadedEv
kAa:__ZN6prcoreL17RemapGenericFloatI17TexFormatRGBFloat17TexFormatRGBAHalfEEvPKNS_9InnerInfoE
W1e:_BigInteger__ctor_m3991350270
Xyg:_Vector2_GetHashCode_m3916089713_AdjustorThunk
ltj:__ZN6il2cpp2os9SemaphoreC2Eii
Bpb:__ZNSt3__26vectorI8MonoPPtr13stl_allocatorIS1_L18MemLabelIdentifier1ELi16EEE8__appendEj
gOb:__ZN14qsort_internal30FindAndMovePivotToLastPositionIP17RODataReplacementi19ROSorterReplacementEEvT_S4_T0_T1_
zGa:__ZN15UniformTFMethod20IsBoneCountSupportedEi
Qgg:_UnauthorizedAccessException__ctor_m246605039
a5b:__Z12BuildTextureIA4_tPFvP9Texture2DPS0_iiiiEES2_PKcii13TextureFormatRKT0_17TextureColorSpaceb
_zj:dynCall_viidi
U_:__ZN24ScriptingMethodFiltering17FilterOnSignatureENS_18MethodSearchFilterE
IZb:__ZN18ScreenManagerWebGL13SetLockCursorE14CursorLockMode
xae:_CipherSuite_DecryptRecord_m1495386860
_mi:_X509Certificate_VerifySignature_m3538124832
WLd:_StreamAsyncResult_SetComplete_m1102187093
Esi:_CharacterClass_GetIntervalCost_m4036989868
v3b:__ZN13MonoBehaviour19HandleNotificationsEPviR11MessageData
yug:_RectOffset_Init_m2028508611
Otj:__ZN6il2cpp2os9EventImpl5ResetEv
B9d:_Alert__ctor_m3135936936
kGd:_Int64_System_IConvertible_ToInt32_m772105781
Rji:_TlsClientSettings__ctor_m3220697265
o0i:__ZNK15dense_hashtableINSt3__24pairIK10KeyWrapperINS1_IPK9EventInfoP11Il2CppClassEEEjEES9_17ReflectionMapHashIS8_EN14dense_hash_mapIS9_jSD_NS9_14EqualsComparerINS0_8equal_toIS8_EEEENS0_9allocatorISB_EEE9SelectKeyESI_SK_E23find_position_with_hashERSA_j
tDj:b58
zRf:_Dictionary_2_make_pair_m2250450206_gshared
u6f:_ForwardingDecoder_GetChars_m4228908854
hhf:_InterpreterFactory_get_GroupCount_m2226373271
mDj:b53
$Cj:b50
aDj:b51
rDj:b56
sDj:b57
pDj:b54
qDj:b55
Q0e:_SimpleCollator_IsSafe_m310268646
Kjd:_X509Certificate_get_RawData_m2387471414
YEj:_glDetachShader__wrapper
rod:_ArrayTypeMismatchException__ctor_m3375008173
Kye:_Transform_1_BeginInvoke_m1757796657_gshared
sWg:__Z88RuntimeInvoker_Int32_t2950945753_UIVertex_t4057497605_UIVertex_t4057497605_RuntimeObjectPFvvEPK10MethodInfoPvPS4_
j7b:__ZN10GameObject12CleanupClassEv
Dpa:__ZN9GfxDevice25SetShaderPropertiesSharedERK19ShaderPropertySheet
X3c:_BaseMeshEffect_get_graphic_m1852367505
Ivd:_CaseInsensitiveHashCodeProvider_GetHashCode_m2168170016
trf:_String_CreateString_m3400201881
D6b:__ZL25InitializeDefaultMaterialv
tRc:__Z53Register_UnityEngine_CanvasRenderer_get_materialCountv
ZZd:_PropertyBuilder_GetCustomAttributes_m3798356764
L2d:_PropertyInfo_get_MemberType_m2794839864
Nue:_Comparer_1_System_Collections_IComparer_Compare_m4179495191_gshared
jMa:__ZN17PersistentManager12UnloadStreamERKN4core12basic_stringIcNS0_20StringStorageDefaultIcEEEEb
XOa:__ZN10MemoryFile4ReadEyyPvPy
tQf:_Array_InternalArray__Insert_TisUICharInfo_t75501106_m2924156520_gshared
iNf:_MonoProperty_GetterAdapterFrame_TisRuntimeObject_TisRuntimeObject_m458718082_gshared
X5a:__ZN13ScreenManager17RequestResolutionEiibi
v4i:_il2cpp_unity_liveness_calculation_from_statics
Qx:__ZNK26AnimatorControllerPlayable11DerivesFromE17ScriptingClassPtr
ise:_InternalEnumerator_1_System_Collections_IEnumerator_get_Current_m2649471526_gshared
_5:__ZN8Renderer8TransferI17RemapPPtrTransferEEvRT_
bpa:__ZN13GfxDeviceGLES26UpdateViewProjectionMatrixEv
Nve:_Enumerator_System_Collections_IDictionaryEnumerator_get_Entry_m522483686_gshared
R5e:_PrivateKeyInfo_RemoveLeadingZero_m3921889925
V9f:_Thread_get_CurrentContext_m1695017876
GXb:__Z24LookRotationToQuaternionRK8Vector3fS1_P11Quaternionf
EXb:__ZN16ReflectionProbes9GetCameraEv
Rma:__ZL18IsGpuProgramUsable20ShaderGpuProgramTypePK6Shader
VPc:__ZN2UI6Canvas17SetSortingLayerIDEi
egj:__ZN6il2cpp2vm11MethodStack23CleanupForCurrentThreadEv
E4h:_Collection_1_ConvertItem_m618594517_gshared
qCd:_Convert_ToUInt64_m388601487
tVa:__ZN20TierGraphicsSettings8TransferI24GenerateTypeTreeTransferEEvRT_
ZPi:__ZN15dense_hashtableINSt3__24pairIK10KeyWrapperIN6il2cpp5utils13dynamic_arrayIPK10Il2CppTypeLj4EEEEPFvvEEESA_NS3_8metadata19Il2CppSignatureHashEN14dense_hash_mapISA_SD_SG_NSA_14EqualsComparerINSF_22Il2CppSignatureCompareEEENS0_9allocatorISE_EEE9SelectKeyESK_SM_E16reset_thresholdsEv
kqg:_Mesh_get_vertices_m3585684815
orb:__ZN14SafeBinaryRead21TransferSTLStyleArrayI13dynamic_arrayI4AABBLj4EEEEvRT_17TransferMetaFlags
Bxg:_TouchScreenKeyboard_get_text_m1797464608
OYb:__ZN26CustomRenderTextureManager25UpdateCustomRenderTextureEP19CustomRenderTexturei
Ofa:__ZNSt3__26__treeINS_12__value_typeIiN11TypeManager18TypeCallbackStructEEENS_19__map_value_compareIiS4_NS_4lessIiEELb1EEENS_9allocatorIS4_EEE7destroyEPNS_11__tree_nodeIS4_PvEE
UEb:__ZN13MonoBehaviour18TransferEngineDataI24GenerateTypeTreeTransferEE4PPtrI10MonoScriptERT_
T8b:__ZNK14PlayableOutput23GetSourcePlayableUnsafeEv
gTc:__ZN11UnityEngine7Connect17XRDeviceInfoEventD0Ev
Cuh:__ZL60SoapTypeAttribute_t1750930817_CustomAttributesCacheGeneratorP21CustomAttributesCache
CTd:_Binder_ConvertArgs_m2124461494
PV:__ZN21UnityDefaultAllocatorI17LowLevelAllocatorE10DeallocateEPv
ts:__ZN15PackedIntVector8TransferI14SafeBinaryReadEEvRT_
kzg:_Vector3__ctor_m3353183577_AdjustorThunk
Yke:_InternalEnumerator_1_System_Collections_IEnumerator_get_Current_m1514266661_gshared
p8d:_MD5SHA1_Initialize_m675470944
dOf:_Array_InternalArray__ICollection_Add_TisKeyframe_t4206410242_m442111799_gshared
M4g:_List_1_CheckMatch_m3263549496_gshared
AH:__ZN13AudioListener8DoUpdateEv
XFd:_Int32_GetTypeCode_m1648562395_AdjustorThunk
Fzd:__Z13bankers_roundd
Zdb:__ZN14SafeBinaryRead8TransferI5RectTIfEEEvRT_PKc17TransferMetaFlags
ri:_emscripten_glGenFramebuffers
Ifa:__ZN17BaseObjectManager16StaticInitializeEPv
H4f:_List_1_CheckCollection_m2602703205_gshared
Frc:__Z18Transfer_BlittableI9JSONWriteLb0EyEvRK29SerializationCommandArgumentsR31RuntimeSerializationCommandInfo
q_a:__ZN13RenderTexture15ThreadedCleanupEv
Acf:_X509BasicConstraintsExtension__ctor_m3721156175
H1a:__ZN12CubemapArray23VirtualRedirectTransferER14SafeBinaryRead
lu:__ZN21AnimationClipPlayable16ProcessHumanPassEPK35AnimationPlayableEvaluationConstantPK32AnimationPlayableEvaluationInputP33AnimationPlayableEvaluationOutput
wId:_Path_GetFileName_m1354558116
c4e:_BitConverterLE_ToDouble_m1601000678
WDj:_emscripten_glUniform3i__wrapper
gug:_Rect_Contains_m1232228501_AdjustorThunk
kic:__Z43RectTransform_CUSTOM_INTERNAL_set_sizeDeltaP12Il2CppObjectRK13Vector2fIcall
tGd:_Int64_System_IConvertible_ToType_m3223988955_AdjustorThunk
Wbj:__ZN15dense_hashtableINSt3__24pairIK10KeyWrapperINS1_IPKcS4_EEEiEES6_24NamespaceAndNamePairHashN14dense_hash_mapIS6_iS9_NS6_14EqualsComparerI26NamespaceAndNamePairEqualsEENS0_9allocatorIS8_EEE9SelectKeyESD_SF_E6insertERKS8_
X5:__ZN24GenerateTypeTreeTransfer18BeginArrayTransferEPKcS1_Ri17TransferMetaFlags
d3h:_Array_InternalArray__get_Item_TisPlayableBinding_t354260709_m3837494573_gshared
om:___syscall51
smc:__Z26BeforeDomainReloadCallbackv
Voi:_MatchCollection_get_FullList_m1829231879
sm:___syscall54
gnd:_Array_GetValue_m2528415604
ovg:_Transform_INTERNAL_CALL_TransformPoint_m4261269221
BGf:_Guid_AppendShort_m791023083
g5g:_List_1__ctor_m4212503576_gshared
_na:__ZN9ShaderLab9SubShader19CreateFromSubShaderERKS0_
lAc:_cff_builder_add_point1
ddj:__ZN6il2cpp2vm5Image21GetCachedResourceDataEPK11Il2CppImageRKNSt3__212basic_stringIcNS5_11char_traitsIcEENS5_9allocatorIcEEEE
iob:__Z18Transfer_BlittableI14SafeBinaryReadLb0E10ColorRGBAfEvRK29SerializationCommandArgumentsR31RuntimeSerializationCommandInfo
za:invoke_iiiiiiiiii
OP:__ZN11AudioSource25GetNumExtensionPropertiesEv
pPf:_Array_InternalArray__ICollection_CopyTo_TisUILineInfo_t4195266810_m104406798_gshared
xsd:_Char_ToLowerInvariant_m1926695830
wlg:_Debug_LogErrorFormat_m3558239521
Q9c:_Graphic_get_canvas_m3320066409
pQe:_InputField_ActivateInputFieldInternal_m3360893886
fG:__ZN4FMOD7SystemI11createSoundEPKcjP22FMOD_CREATESOUNDEXINFOPPNS_5SoundE
Q$b:__ZN10FileSystem19SetCurrentDirectoryERKN4core12basic_stringIcNS0_20StringStorageDefaultIcEEEE
Ekg:_Component_get_gameObject_m442555142
COd:_Math_Log_m2526073084
Pec:__Z47Register_UnityEngine_Coroutine_ReleaseCoroutinev
lI:__ZN15AudioReverbZone13SetFMODValuesEv
GZ:__ZN14SafeBinaryRead4InitERK16TypeTreeIteratorxx24TransferInstructionFlags10MemLabelId
Tga:__ZL19StaticDestroyShaderPv
ae:_glRenderbufferStorageMultisample
C8b:__ZN8Playable4PlayEv
Zxd:_SyncHashtable_Clone_m3726939774
$y:__ZN23AnimationPlayableOutput17SetTargetAnimatorEP8Animator
atc:__ZN9JSONWrite8TransferI13dynamic_arrayIN4math12int3_storageELj4EEEEvRT_PKc17TransferMetaFlags
wQb:__ZN22MotionVectorRenderLoopD2Ev
ylg:_Debug_LogException_m2207318968
mNf:_Array_InternalArray__ICollection_Add_TisClientCertificateType_t1004704908_m2622721177_gshared
Bs:__ZN17PackedFloatVector8TransferI18StreamedBinaryReadILb0EEEEvRT_
I2a:__ZN7Cubemap23VirtualRedirectTransferER17RemapPPtrTransfer
Pkc:__Z37Register_UnityEngine_Screen_get_widthv
jui:_Uri_get_Authority_m3816772302
R9b:__ZN22BlockMemoryCacheWriter11GetPathNameEv
Vbf:_X509BasicConstraintsExtension__ctor_m1244152959
sxg:_Touch_get_position_m3109777936
W1d:_ParameterInfo__ctor_m3269320476
Bff:_X509SubjectKeyIdentifierExtension_FromHexChars_m3244835916
Tof:_Single_CompareTo_m2785801815
Jli:_PKCS12_MAC_m3355614022
_o:stackAlloc
hfc:__Z44Camera_CUSTOM_INTERNAL_CALL_ScreenPointToRayP12Il2CppObjectRK8Vector3fR3Ray
hPa:__ZN25SingleBlockMemoryFileData4LockEPPv
BHj:_glProgramParameteri__wrapper
BZ:__ZN17PersistentManager23PostReadActivationQueueEiPK8TypeTreeb
Mgc:__Z32RectOffset_Get_Custom_PropBottomP12Il2CppObject
slg:_Debug_LogError_m2850623458
qhh:_Collection_1_CheckWritable_m3225530705_gshared
$Hj:_emscripten_glGetObjectParameterivARB__wrapper
Vvj:_stat
q4:__ZN9ShaderLab10SubProgram7CompileEv
zIb:__ZN15InstancingProps14CombineBuiltinEN10Instancing11BuiltinPropES1_S1_
SZd:_PropertyBuilder_get_CanRead_m3783190070
p0:__ZN14SerializedFile14SerializedTypeD2Ev
tNf:_Array_InternalArray__ICollection_Add_TisKeyValuePair_2_t3699644050_m4052349323_gshared
Kae:_CipherSuiteCollection_System_Collections_IList_get_Item_m2175128671
dSa:__ZN6CameraD2Ev
la:invoke_iiiiiiiiiiii
huf:_DateTime_System_IConvertible_ToType_m1242864300_AdjustorThunk
sre:_InternalEnumerator_1_get_Current_m2446410893_AdjustorThunk
cWa:__Z29CalculateDefaultChannelsToAdd17ShaderChannelMaskS_
IRa:__ZN10TagManager13RegisterLayerEjRKN4core12basic_stringIcNS0_20StringStorageDefaultIcEEEE
lIa:__ZNSt3__26__treeI20DeviceBlendStateGLES14MemoryCompLessI16DeviceBlendStateENS_9allocatorIS1_EEE7destroyEPNS_11__tree_nodeIS1_PvEE
AIi:_CanvasRenderer_SetMaterial_m633746949
hL:__ZN10AudioMixer12RebindOutputEv
Q5i:__ZNK15dense_hashtableINSt3__24pairIK10KeyWrapperIP11Il2CppClassES4_EES5_N6il2cpp8metadata16SZArrayClassHashEN14dense_hash_mapIS5_S4_SA_NS5_14EqualsComparerINS9_19SZArrayClassCompareEEENS0_9allocatorIS7_EEE9SelectKeyESE_SG_E5beginEv
tTe:_LayoutRebuilder_PerformLayoutControl_m4241054021
BLi:__ZN6il2cpp2vm17SetupFieldsLockedEP11Il2CppClassRKNS_2os12FastAutoLockE
lHb:__ZNK9GfxDevice20IsViewportFullscreenEv
ZCa:__ZN18GlslGpuProgramGLES13SwitchProgramEj
VPa:__ZN20ArchiveStorageReaderC2E10MemLabelId
jCg:__Z132RuntimeInvoker_Int32_t2950945753_RuntimeObject_Int32_t2950945753_Int32_t2950945753_RuntimeObject_Int32_t2950945753_Int32_t2950945753PFvvEPK10MethodInfoPvPS4_
Bmb:__ZN16MemoryFileSystem4NameEv
qof:_Single_System_IConvertible_ToBoolean_m1716619219_AdjustorThunk
Kkc:__Z13SetCopyBufferRKN4core12basic_stringIcNS_20StringStorageDefaultIcEEEE
hki:_TlsException__ctor_m818940807
Yjd:_X509CertificateEnumerator_System_Collections_IEnumerator_get_Current_m418791713
KKc:_UNITY_FT_New_Size
ddc:__Z42ScriptingGetComponentsOfTypeFromGameObjectRK26ScriptingGetComponentsArgs
oLh:__ZL73ArgumentCache_t2187958399_CustomAttributesCacheGenerator_m_ObjectArgumentP21CustomAttributesCache
L0h:_Array_swap_TisRaycastResult_t3360306849_TisRaycastResult_t3360306849_m3400922624_gshared
wAi:_AudioListener_ReadExtensionName_m929423100
Ifd:_CspParameters__ctor_m2741097571
Q0a:__ZNSt3__27__sort4IRPFbRKNS_4pairIN9ShaderLab16FastPropertyNameEN18UnityPropertySheet11UnityTexEnvEEES8_EPS6_EEjT0_SD_SD_SD_T_
jzc:_cf2_hintmap_build
cxg:_Texture_get_width_m888163864
sIc:_Line_Up
Yzb:__Z29Transfer_Blittable_ArrayFieldI18StreamedBinaryReadILb1EExEvRT_R9ArrayInfoRK23StaticTransferFieldInfo
he:_emscripten_glBufferSubData
Rqf:_String_ReplaceUnchecked_m1381393810
Wte:_DefaultComparer_Compare_m3278268937_gshared
Rp:__Z17CalculateGlobalRS23TransformAccessReadOnly
yqj:__ZNSt3__210__list_impIPN6il2cpp5utils10MemoryPool6RegionENS_9allocatorIS5_EEE5clearEv
krb:__ZN14SafeBinaryRead21TransferSTLStyleArrayI13dynamic_arrayI9BoundsIntLj4EEEEvRT_17TransferMetaFlags
Tib:__ZN22MemoryCacherReadBlocks14LockCacheBlockEjPPhS1_
aXi:__ZN6il2cpp2vm14TypeNameParser17ParseAssemblyNameEv
n9a:__ZNK9GfxDevice26GetSinglePassStereoEyeMaskEv
Hlg:_DebugLogHandler_Internal_Log_m4175774469
Gkj:__ZN4utf88internal15increase_safelyIPKcEENS0_9utf_errorERT_S5_
CLi:__ZN6il2cpp2vmL21SetupPropertiesLockedEP11Il2CppClassRKNS_2os12FastAutoLockE
ZJc:__ZN20TextRenderingPrivate8FontImpl16CacheFontForTextEPtiifjPK13dynamic_arrayINS_16TextFormatChangeELj4EE
Isd:_CharEnumerator_get_Current_m525608209
F_c:__Z21ArrayElementTypeCheckP11Il2CppArrayPv
GGj:_emscripten_glTexSubImage2D__wrapper
$zf:_StackTrace_init_frames_m641783388
ncf:_PublicKey_DecodeRSA_m1824703659
Nxj:__ZNSt3__212basic_stringIcNS_11char_traitsIcEENS_9allocatorIcEEE6appendEjc
PCb:__Z13TransferFieldI18StreamedBinaryReadILb0EELb0E16Converter_StringEvRK23StaticTransferFieldInfoR31RuntimeSerializationCommandInfoRT1_
zSc:__Z42Register_UnityEngine_Canvas_get_rootCanvasv
Etd:_ArrayListWrapper_set_Item_m3849584877
Qe:_TTF_RenderText_Solid
b3f:_List_1__ctor_m3947764094_gshared
ati:_Parser_IsIgnorePatternWhitespace_m2107132682
z9e:_HttpRequestCreator_Create_m400548686
SWc:__ZN11UnityEngine7Connect16PersistentValuesC2Ev
zai:_ReadOnlyCollection_1_System_Collections_IList_Insert_m134149130_gshared
jrc:__Z18Transfer_BlittableI9JSONWriteLb0E5RectTIiEEvRK29SerializationCommandArgumentsR31RuntimeSerializationCommandInfo
_1e:_BigInteger_get_Rng_m4216817480
syc:_cf2_getStdVW
rIf:_Array_InternalArray__ICollection_Remove_TisDateTime_t3738529785_m2250893026_gshared
pDa:__Z15IsIEEE754Format14GraphicsFormat
etb:__Z19TransferField_ArrayI17RemapPPtrTransfer27Converter_UnityEngineObjectEvRK23StaticTransferFieldInfoR31RuntimeSerializationCommandInfoRT0_
Za:invoke_iifiii
vwd:_KeyNotFoundException__ctor_m541499307
NJf:_SetPropertyUtility_SetStruct_TisSpriteState_t1362986479_m665096788_gshared
FCg:__Z61RuntimeInvoker_Single_t1397266774_RuntimeObject_RuntimeObjectPFvvEPK10MethodInfoPvPS4_
xIf:_Array_InternalArray__ICollection_Remove_TisIntPtr_t_m3807208150_gshared
oPg:__Z71RuntimeInvoker_Void_t1185182177_Vector3_t3722313464_Vector3_t3722313464PFvvEPK10MethodInfoPvPS4_
aoe:_InternalEnumerator_1_get_Current_m2316281569_AdjustorThunk
ktf:_DateTime__ctor_m1095105629
Yqa:__ZN13GfxDeviceGLES15UploadTexture2DE9TextureID16TextureDimensionPKhiii14GraphicsFormati18TextureUploadFlags16TextureUsageMode
Qui:_Event_Cleanup_m2477919477
dK:__ZN4FMOD6System9createDSPEP20FMOD_DSP_DESCRIPTIONPPNS_3DSPE
Nyh:__ZL87Thread_t2300836069_CustomAttributesCacheGenerator_Thread_GetCompressedStack_m2923422412P21CustomAttributesCache
Tfe:_SslClientStream_get_ClientCertificates_m998716871
dG:__ZN4FMOD8ChannelI11EndCallbackEv
nnc:__ZN8GUIStyle14SetDefaultFontEPN13TextRendering4FontE
p5a:__ZN15QualitySettings23VirtualRedirectTransferER24GenerateTypeTreeTransfer
vNe:_ObjectReader_ReadValue_m3145979203
M4c:_CanvasScaler_OnDisable_m3424669401
IWh:__ZL68Scrollbar_t1494447233_CustomAttributesCacheGenerator_m_NumberOfStepsP21CustomAttributesCache
mOi:__ZN30dense_hashtable_const_iteratorINSt3__24pairIK10KeyWrapperIPK19Il2CppGenericMethodEPK26Il2CppGenericMethodIndicesEES6_N6il2cpp8metadata23Il2CppGenericMethodHashEN14dense_hash_mapIS6_SA_SE_NS6_14EqualsComparerINSD_26Il2CppGenericMethodCompareEEENS0_9allocatorISB_EEE9SelectKeyESI_SK_EppEv
Yxc:_UNITY_FT_Request_Metrics
Raj:__ZN6il2cpp6icalls8mscorlib6System10Reflection10MonoMethod29get_IsGenericMethodDefinitionEP22Il2CppReflectionMethod
k7i:__ZN6il2cpp2vm6Thread21AllocThreadStaticDataEi
HTd:_Default_SelectMethod_m469311730
log:_Input_get_mousePosition_m1616496925
Qn:FUNCTION_TABLE_difi
Cjj:__ZN30dense_hashtable_const_iteratorINSt3__24pairIK10KeyWrapperIPK19Il2CppGenericMethodEP10MethodInfoEES6_N6il2cpp8metadata23Il2CppGenericMethodHashEN14dense_hash_mapIS6_S9_SD_NS6_14EqualsComparerINSC_26Il2CppGenericMethodCompareEEENS0_9allocatorISA_EEE9SelectKeyESH_SJ_EppEv
Nfg:_UInt32_ToString_m2066897296_AdjustorThunk
$O:__Z13RegisterClassI13AudioListenerEvv
pjb:__ZN24GenerateTypeTreeTransfer19TransferSTLStyleMapINSt3__23mapI4PPtrI6ShaderEN4core12basic_stringIcNS6_20StringStorageDefaultIcEEEENS1_4lessIS5_EENS1_9allocatorINS1_4pairIKS5_SA_EEEEEEEEvRT_17TransferMetaFlags
Mwd:_Enumerator_Reset_m4274366540
Iqc:__Z18Transfer_BlittableI9JSONWriteLb0E8Vector3fEvRK29SerializationCommandArgumentsR31RuntimeSerializationCommandInfo
Pf:_emscripten_glUniform4i
gCc:_otv_FeatureList_validate
$e:_emscripten_glUniform4f
yj:___unlock
oBc:_otv_validate
k_b:__ZN13sorted_vectorINSt3__24pairIN4core12basic_stringIcNS2_20StringStorageDefaultIcEEEES6_EEN10vector_mapIS6_S6_27compare_tstring_insensitiveIS6_E13stl_allocatorIS7_L18MemLabelIdentifier38ELi16EEE13value_compareESD_E9erase_oneIS6_EEjRKT_
Slf:_X509Certificate_Equals_m3784196370
W8g:_List_1__ctor_m3376067838_gshared
xM:__ZN20SoundChannelInstance19setReverbPropertiesEP29FMOD_REVERB_CHANNELPROPERTIES
h1f:_Enumerator_MoveNext_m1446151600_gshared
Gjf:_SHA1Internal_ProcessFinalBlock_m1403775421
rkc:__Z40Register_UnityEngine_Transform_IsChildOfv
FLe:_RemotingServices_GetOrCreateClientIdentity_m648299611
ute:_InternalEnumerator_1_get_Current_m2356858238_AdjustorThunk
Xfc:__Z45Register_UnityEngine_Display_GetSystemExtImplv
f6e:_RSAManaged_ImportParameters_m1844641996
Uve:_Enumerator_System_Collections_IDictionaryEnumerator_get_Value_m3325938730_AdjustorThunk
lv:__ZN7mecanim9animation23TransformValuesFromClipEiiiRKNS_10ValueArrayERKNS0_10ClipOutputERKNS0_12ClipBindingsERS1_RNS_14ValueArrayMaskEb
ABe:_ValueCollection_System_Collections_ICollection_get_SyncRoot_m1114275063_gshared
mKi:__ZL17log2withScale_128yyi
rGf:_Guid_Equals_m1866984197
EOc:__ZNSt3__218__insertion_sort_3IRNS_6__lessIN2UI14DepthSortEntryES3_EEPS3_EEvT0_S7_T_
oSd:_PlatformNotSupportedException__ctor_m1787918017
Gda:__ZN13RuntimeStaticI15DirectorManagerLb0EE16StaticInitializeEPv
F7h:_ReadOnlyCollection_1_System_Collections_ICollection_CopyTo_m2643246984_gshared
Lcb:__ZN11TimeManager6UpdateEv
Z1f:_Enumerator_System_Collections_IEnumerator_get_Current_m209407522_gshared
F4c:_CanvasScaler_get_fallbackScreenDPI_m2811935689
auf:_DateTimeFormatInfo_ReadOnly_m890935083
Glj:__ZN6il2cpp2vm3CCW9CreateCCWEP12Il2CppObject
awj:_fflush
G3:__ZN17LightProbeContext4InitERK16LightmapSettingsRK14RenderSettings
DTb:__ZN18DeferredRenderLoop14RenderLightingER21ActiveLightingContextP13RenderTexture9TextureIDPS3_iRK8Vector4fRK14LightingLayersR10MinMaxAABBb12ObjectHandleI17RenderSurface_TagP17RenderSurfaceBaseE
_vg:_SceneManager_Internal_ActiveSceneChanged_m3676176255
zAf:_Double_System_IConvertible_ToInt16_m3591921965
y8a:__ZN9Texture3DD2Ev
Yhh:_Collection_1_set_Item_m4280581817_gshared
Xzd:_Convert_ToChar_m2796006345
sQf:_Array_InternalArray__Insert_TisContentType_t1787303396_m3566390691_gshared
Ztd:_ArrayListWrapper_GetEnumerator_m2336495952
VVb:__Z34ProcessIndexListIsNodeVisibleStep2RK22SceneCullingParametersPK9SceneNodePK4AABBR9IndexList
cFb:__ZN10MonoScriptD2Ev
mHa:__ZN19ConstantBuffersGLES8UpdateCBE5CbKeyPKvj
aAi:_AudioSource_get_spatializeInternal_m2117549793
hhc:__Z39Input_CUSTOM_INTERNAL_get_mousePositionP8Vector3f
cnd:_SimpleEnumerator__ctor_m353509656
VDc:_tt_cmap13_char_next
QRh:__ZL117EventSystem_t1003666588_CustomAttributesCacheGenerator_EventSystem_t1003666588____lastSelectedGameObject_PropertyInfoP21CustomAttributesCache
Xna:__ZN9ShaderLab4Pass16SetupPassOptionsEv
dh:_JS_Sound_ReleaseInstance
Vpa:__ZN13GfxDeviceGLES19DrawBuffersIndirectEP9GfxBufferPK18VertexStreamSourceiP17VertexDeclaration17ShaderChannelMask16GfxPrimitiveType15ComputeBufferIDj
dGf:_Guid_CheckArray_m921056615
wFe:_ConfigHandler_ReadLifetine_m208994800
aeg:_UInt16_System_IConvertible_ToByte_m3185614807_AdjustorThunk
Mtg:_Rect_get_max_m350137314_AdjustorThunk
Cm:FUNCTION_TABLE_diddi
x7i:__ZN6il2cpp6icalls8mscorlib6System5Array8FastCopyEP11Il2CppArrayiS5_ii
Bic:__Z26Material_CUSTOM_SetIntImplP12Il2CppObjectii
Zgc:__Z42Register_UnityEngine_RectOffset_get_bottomv
Dvj:_newlocale
lrb:__ZN9BoundsInt8TransferI14SafeBinaryReadEEvRT_
KEj:_emscripten_glUniform1f__wrapper
Jzj:dynCall_di
smg:_BaseInvokableCall_AllowInvoke_m878393606
pqc:__Z28RegisterModule_JSONSerializev
Jjb:__ZN2UI13RectTransform8TransferI14SafeBinaryReadEEvRT_
Brc:__Z35Transfer_Blittable_FixedBufferFieldI9JSONWriteaEvRK29SerializationCommandArgumentsR31RuntimeSerializationCommandInfo
Lig:_Behaviour_get_enabled_m753527255
obc:__Z20IsHumanControllingUsv
MAe:_Enumerator_MoveNext_m181298207_gshared
EW:__ZNK20DynamicHeapAllocatorI17LowLevelAllocatorE10GetPtrSizeEPKv
Dph:__ZL51TextInfo_t3810425522_CustomAttributesCacheGeneratorP21CustomAttributesCache
yMa:__ZN10systeminfo21GetPersistentDataPathEv
Ipa:__ZN13GfxDeviceGLES17DestroyGpuProgramEPK10GpuProgram
s_h:_Array_InternalArray__set_Item_TisRaycastResult_t3360306849_m730888808_gshared
Hnb:__Z44InitializeTransferFunctionScriptingTraitsForI18StreamedBinaryReadILb0EEEvR31TransferFunctionScriptingTraits
nAe:_Enumerator_System_Collections_IEnumerator_Reset_m53411943_gshared
ZRb:__ZNSt3__218__insertion_sort_3IR23CompareReflectionProbesP31RuntimeReflectionProbeBlendInfoEEvT0_S5_T_
otb:__ZN12NativeBufferI27Converter_SimpleNativeClassI8GradientEE15SetupForWritingER9ArrayInfo
G2e:_Kernel_RightShift_m2207393597
oga:__ZNSt3__213__stable_sortIRNS_4lessIN4core12basic_stringIcNS2_20StringStorageDefaultIcEEEEEENS_11__wrap_iterIPS6_EEEEvT0_SC_T_NS_15iterator_traitsISC_E15difference_typeEPNSF_10value_typeEi
NZh:__ZL48Shadow_t773074319_CustomAttributesCacheGeneratorP21CustomAttributesCache
i8:__ZN12_GLOBAL__N_113StaticDestroyEPv
vJj:_glUnmapBuffer__wrapper
hvc:__ZN8JSONRead21TransferSTLStyleArrayINSt3__26vectorI8Gradient13stl_allocatorIS3_L18MemLabelIdentifier1ELi16EEEEEEvRT_17TransferMetaFlags
gdb:__ZNSt3__218__insertion_sort_3IRNS_6__lessINS_4pairIPKN5Unity4TypeE7Hash128EES8_EEPS8_EEvT0_SC_T_
tPe:_InputField_set_onValueChanged_m3658917578
Yub:__ZN10RectOffset8TransferI24GenerateTypeTreeTransferEEvRT_
IHd:_BinaryReader__ctor_m2266204403
wae:__ZN21InterfaceFuncInvoker5IiP22ByteU5BU5D_t4116647657iiS1_iE6InvokeEjP11Il2CppClassP12Il2CppObjectS1_iiS1_i
Q$f:_Enumerator_VerifyState_m3047769867_AdjustorThunk
iub:__Z18Transfer_BlittableI24GenerateTypeTreeTransferLb1E5RectTIiEEvRK29SerializationCommandArgumentsR31RuntimeSerializationCommandInfo
cnc:__ZN16GUIKeyboardStateD2Ev
oOc:__ZN2UI13CanvasManager19RemoveDirtyRendererEPNS_6CanvasEPNS_14CanvasRendererE
Fuj:_isspace
cMe:_BinaryFormatter__ctor_m2620705134
XTc:__ZN11UnityEngine15PlatformWrapper25GetGraphicsRendererStringEv
g8f:_UTF7Encoding_InternalGetBytes_m797138468
lV:__ZN11UnityEngine15CloudWebService17WebFileDownloaderINS0_20WebRequestRestClientENS0_23WebRequestRestHeaderMapEED2Ev
Qb:invoke_vi
Akd:_SmallXmlParser_HandleWhitespaces_m549588711
Qsc:__ZN9JSONWrite8TransferI13dynamic_arrayI9BoundsIntLj4EEEEvRT_PKc17TransferMetaFlags
Ob:invoke_vd
pb:invoke_vf
Roi:_Regex_get_RightToLeft_m2317867572
p3:__ZNK10GameObject8IsActiveEv
Efc:__Z34Component_Get_Custom_PropTransformP12Il2CppObject
vQh:__ZL67g_UnityEngine_PhysicsModule_Assembly_CustomAttributesCacheGeneratorP21CustomAttributesCache
OCa:__ZN18GfxFramebufferGLES23SetupDefaultFramebufferEPP17RenderSurfaceBaseS2_N2gl6HandleILNS3_10ObjectTypeE9EEE
w7c:_DefaultControls_CreateDropdown_m3286664171
t6a:__ZN13ScreenManager18RequestOrientationE17ScreenOrientation
_Li:__ZN6il2cpp2vm5Class12SetupMethodsEP11Il2CppClass
Ecc:__Z39DeleteLastPathNameComponentWithAnySlashRKN4core12basic_stringIcNS_20StringStorageDefaultIcEEEE
nmc:__ZN10GUIManager14InitGUIManagerEv
Ceg:_UInt16_Equals_m642257745
Imd:_Array_System_Collections_IList_IndexOf_m3301661616
eTd:_AssemblyFileVersionAttribute__ctor_m3720707642
_3d:_RuntimeResourceSet_CloneDisposableObjectIfPossible_m2725520898
woc:__Z37Register_UnityEngine_GUIStyle_Cleanupv
Ma:invoke_iiifii
RZe:_SliderEvent__ctor_m3149452941
Uid:_DeriveBytes__cctor_m1212925033
ead:_Graphic_OnDisable_m1097930217
PUi:__ZN6il2cpp6icalls8mscorlib6System8MonoType13IsPointerImplEP20Il2CppReflectionType
Qi:_emscripten_glFramebufferRenderbuffer
IUb:__ZN19CullingGroupManager17CullAndSendEventsERK22SceneCullingParametersiRK13CullingOutputRK8JobFence
fRa:__ZN9Transform30EnsureTransformHierarchyExistsEv
Acg:_Type_FilterName_impl_m2651733559
wnd:_Array_GetValue_m116098292
yec:__Z46Register_UnityEngine_Application_get_isPlayingv
_Zb:__ZNSt3__26vectorINS_4pairIN4core12basic_stringIcNS2_20StringStorageDefaultIcEEEEPK17MessageIdentifierEENS_9allocatorISA_EEE12__move_rangeEPSA_SE_SE_
hOb:__ZN14qsort_internal17MedianOfThreeSwapIP17RODataReplacement19ROSorterReplacementEEvT_S4_S4_T0_
Spf:_String_Split_m3646115398
Mug:_RectOffset_ToString_m2007443979
QKi:__ZNK15dense_hashtableINSt3__24pairIK10KeyWrapperIPK22Il2CppGenericParameterEP11Il2CppClassEES6_N6il2cpp5utils11PointerHashIS4_EEN14dense_hash_mapIS6_S9_SE_NS6_14EqualsComparerINS0_8equal_toIS5_EEEENS0_9allocatorISA_EEE9SelectKeyESJ_SL_E3endEv
Acc:__ZN17TransformInternal36OnScaleChangedCalculateTransformTypeE15TransformAccess
kNa:__ZN17ArchiveFileSystem10ToAbsoluteEPKc
JUc:__ZN19UnityConnectService15GetPlayerUserIdEv
CMf:_Array_InternalArray__IndexOf_TisSByte_t1669577662_m4156538463_gshared
ir:__ZN7mecanim6CRCKeyENS_7eStringE
iac:__ZL12SetPrefValueRKN4core12basic_stringIcNS_20StringStorageDefaultIcEEEERK9PrefValue
a9a:__ZN19ShaderPropertySheet20ReservePropertyCountEj
mkj:__ZN6il2cpp5utils11StringUtils6PrintfEPKcz
e6i:__ZNSt3__26vectorIN6il2cpp8metadata18GenericArrayMethodENS_9allocatorIS3_EEE7reserveEj
Bma:__ZN15NameToObjectMapI6ShaderNSt3__23mapI4PPtrIS0_EN4core12basic_stringIcNS5_20StringStorageDefaultIcEEEENS1_4lessIS4_EENS1_9allocatorINS1_4pairIKS4_S9_EEEEEENS1_8multimapIS9_S4_NSA_IS9_EENSC_INSD_IKS9_S4_EEEEEEE4FindERSK_
f2a:__ZN24GenerateTypeTreeTransfer21TransferResourceImageE19ActiveResourceImagePKcR13StreamingInfoPvjiPKN5Unity4TypeE
v0h:_Array_Sort_TisVector3_t3722313464_m1030213405_gshared
Gfj:__ZN6il2cpp2vm6Object5CloneEP12Il2CppObject
Zrj:__ZN6il2cpp6icalls8mscorlib6System9Threading5Mutex20CreateMutex_internalEbP12Il2CppStringPb
RIj:_emscripten_glLinkProgram__wrapper
Tkg:_Coroutine_Finalize_m1957108547
Gxi:_KeyBuilder_Key_m2503211157
IXa:__ZNSt3__212__deque_baseI18ReflectionProbeJobNS_9allocatorIS1_EEED2Ev
Ez:__ZN11UnityEngine9Animation27DestroyAnimationSetBindingsEPNS0_20AnimationSetBindingsERN7mecanim6memory9AllocatorE
kia:__ZN15dense_hashtableINSt3__24pairIKiN4core17string_with_labelILi1EEEEEi18SInt32HashFunctionN14dense_hash_mapIiS5_S7_NS0_8equal_toIiEE13stl_allocatorIS6_L18MemLabelIdentifier1ELi16EEE9SelectKeyESA_SD_E13set_empty_keyERKS6_
Hkg:_Component_GetComponentInChildren_m388868270
CZf:_GenericEqualityComparer_1_Equals_m1705889345_gshared
oE:__ZN8Animator12CleanupClassEv
fvc:__Z13TransferFieldI8JSONReadLb0E27Converter_SimpleNativeClassI10RectOffsetEEvRK23StaticTransferFieldInfoR31RuntimeSerializationCommandInfoRT1_
v9e:_FtpWebRequest__cctor_m699542155
gdj:__GLOBAL__sub_I_GenericMetadata_cpp
u8e:_NameObjectCollectionBase_GetEnumerator_m3677320185
wVb:__Z24CalculateSpotLightBoundsffRK10Matrix4x4fR15SpotLightBounds
CDe:_Dictionary_2_TryGetValue_m3495031886_gshared
zZa:__ZNK13RenderTexture21GetShadowSamplingModeEv
yR:__ZN23CloudWebServicesManager23VirtualRedirectTransferER14SafeBinaryRead
w7e:_PKCS12_AddCertificate_m3857004455
KEb:__Z19ShouldTransferFieldR32SerializationCommandQueueBuilder17ScriptingClassPtriR18TransferField_InfoRK20CoreScriptingClasses
inf:_SecurityElement_IsValidText_m1346599242
MHa:__ZN26SinglePassStereoSupportExt21SetStereoMatrixCommonE21MonoOrStereoscopicEye24BuiltinShaderMatrixParamRK10Matrix4x4f
NK:__ZN5audio5mixer22UpdateAudioMixerMemoryERKNS0_18AudioMixerConstantERNS0_16AudioMixerMemoryEfPN4FMOD6SystemEf
jxc:__ZL21InitializeCachedStripPv
jRf:_Dictionary_2_System_Collections_Generic_ICollectionU3CSystem_Collections_Generic_KeyValuePairU3CTKeyU2CTValueU3EU3E_Add_m3652125112_gshared
s8i:__ZN6il2cpp6icalls8mscorlib6System9Threading6Thread23GetCachedCurrentCultureEP12Il2CppThread
gY:__ZNK6Camera22GetWorldToCameraMatrixEv
Uyj:runPostSets
Wfj:__ZN6il2cpp2vm12GenericClass11IsValueTypeEP18Il2CppGenericClass
FDb:__ZN13MonoBehaviour7SetNameEPKc
LJe:_MethodDictionary_IsOverridenKey_m946843558
XJd:_FileStream_BeginRead_m2419864669
wii:_U3CStartU3Ec__Iterator0_MoveNext_m4270440387_gshared
IPi:__ZN10KeyWrapperIN6il2cpp5utils13dynamic_arrayIPK10Il2CppTypeLj4EEEEC2ERKS7_
AIb:__ZN17InstancingBatcher22FindCBUpperBoundKonstsEv
W7:__GLOBAL__sub_I_runtime_shaders_shaderimpl_0_cpp
Egb:__ZN18AwakeFromLoadQueue5ClearEv
tKd:_FileStream_SetLength_m99749826
ZTb:__ZNSt3__27__sort5IR15ReflProbeSorterPP15ReflectionProbeEEjT0_S6_S6_S6_S6_T_
tea:__ZN8Playable10DisconnectEPS_i
uk:_glGenTransformFeedbacks
aMa:__ZN13LoadOperationD2Ev
fDd:_Int16_System_IConvertible_ToType_m3672347013
rdg:_Type_GetProperty_m4206634422
hld:_AttrListImpl_GetValue_m3657391095
vHb:__Z21PlayerStartFirstSceneb
C9g:_List_1_CheckIndex_m3933537097_gshared
R0a:__ZNSt3__27__sort5IRPFbRKNS_4pairIN9ShaderLab16FastPropertyNameEN18UnityPropertySheet11UnityTexEnvEEES8_EPS6_EEjT0_SD_SD_SD_SD_T_
$ua:__ZNK7ApiGLES18GetExtensionStringEv
b9g:_List_1_System_Collections_IList_IndexOf_m2444653486_gshared
LEj:_emscripten_glVertexAttrib1f__wrapper
Kkb:__ZNK12HandlerChain4SizeERK13FileEntryData
Yo:FUNCTION_TABLE_iiiiiiiii
c8h:_ReadOnlyCollection_1_System_Collections_Generic_ICollectionU3CTU3E_Remove_m4177779688_gshared
nsd:_Char_IsLetter_m3996985877
sah:_Queue_1_Peek_m2302800625_gshared
qlh:__ZL51Delegate_t1188392813_CustomAttributesCacheGeneratorP21CustomAttributesCache
Ymj:_GC_allochblk
Ogb:__Z15UnloadGameScenev
iPf:_Array_InternalArray__ICollection_CopyTo_TisKeyframe_t4206410242_m2132255743_gshared
qJj:_glCheckFramebufferStatus__wrapper
Mbd:_Image__ctor_m2551076292
tCe:_Dictionary_2_System_Collections_ICollection_CopyTo_m3143696177_gshared
EEg:__Z103RuntimeInvoker_Void_t1185182177_Int32_t2950945753_Int32_t2950945753_Int32_t2950945753_SByte_t1669577662PFvvEPK10MethodInfoPvPS4_
Vkc:__Z36Renderer_Get_Custom_PropSortingOrderP12Il2CppObject
KZi:__ZNK15dense_hashtableINSt3__24pairIK10KeyWrapperIPK10Il2CppTypeEjEES6_N6il2cpp8metadata14Il2CppTypeHashEN14dense_hash_mapIS6_jSB_NS6_14EqualsComparerINSA_26Il2CppTypeEqualityComparerEEENS0_9allocatorIS8_EEE9SelectKeyESF_SH_E13find_positionERS7_
pZa:__ZN7Texture5ResetEv
Ktb:__Z18Transfer_BlittableI24GenerateTypeTreeTransferLb0E8Vector2fEvRK29SerializationCommandArgumentsR31RuntimeSerializationCommandInfo
OGe:_Context_get_HasDynamicSinks_m3952434387
w6f:_Latin1Encoding_GetByteCount_m1145650505
ztb:__Z18Transfer_BlittableI24GenerateTypeTreeTransferLb1EhEvRK29SerializationCommandArgumentsR31RuntimeSerializationCommandInfo
Omc:__ZN8GUIState18CycleKeyboardFocusERNSt3__26vectorIP6IDListNS0_9allocatorIS3_EEEEb
tAb:__Z13TransferFieldI18StreamedBinaryReadILb1EELb0E16Converter_StringEvRK23StaticTransferFieldInfoR31RuntimeSerializationCommandInfoRT1_
fec:__ZNK16TypeTreeIterator10ByteOffsetEv
cAj:dynCall_iiifii
pda:__ZnwjRKSt9nothrow_t
PC:__ZN8Animator11ClearObjectEv
Ldi:_Nullable_1_GetHashCode_m4232053575_gshared
bmd:_ApplicationException__ctor_m2557611022
K$a:__ZN14SafeBinaryRead19TransferSTLStyleMapINSt3__23mapI39DeprecatedFastPropertyNameSerializationN18UnityPropertySheet11UnityTexEnvENS1_4lessIS3_EENS1_9allocatorINS1_4pairIKS3_S5_EEEEEEEEvRT_17TransferMetaFlags
G6g:_List_1_CheckMatch_m579516778_gshared
lqd:_Buffer_ByteLengthInternal_m1388208719
KOf:_Array_InternalArray__ICollection_CopyTo_TisInt64_t3736567304_m2845057751_gshared
aec:__Z35UnregisterSerializationCacheBuilderPFv17ScriptingClassPtrR23CachedSerializationDataRbE
xGd:_Int64_System_IConvertible_ToUInt32_m109903525_AdjustorThunk
Z3:__Z30GetBuiltinVectorParamArraySize24BuiltinShaderVectorParam
oPf:_Array_InternalArray__ICollection_CopyTo_TisUICharInfo_t75501106_m4268526610_gshared
iZa:__ZN13RenderTextureC2E10MemLabelId18ObjectCreationMode
vDd:_Int32_GetFormatException_m519586683
Uxh:__ZL46StringBuilder_t_CustomAttributesCacheGeneratorP21CustomAttributesCache
t$f:_Enumerator_MoveNext_m1131351993_gshared
vSd:_RankException__ctor_m2226473861
m3h:_Array_InternalArray__get_Item_TisVector2_t2156229523_m2502961026_gshared
x6:__ZN21RendererUpdateManager11AddRendererER8Renderer
J2b:__Z13RegisterClassI15ResourceManagerEvv
SAi:_AudioConfigurationChangeHandler_Invoke_m1233557945
qob:__Z35Transfer_Blittable_FixedBufferFieldI14SafeBinaryReadsEvRK29SerializationCommandArgumentsR31RuntimeSerializationCommandInfo
dab:__ZN14SafeBinaryRead21TransferSTLStyleArrayI13dynamic_arrayIfLj4EEEEvRT_17TransferMetaFlags
$zd:_Convert_ToDateTime_m3802186295
nkj:__ZN6il2cpp5utils11StringUtils11Utf16ToUtf8EPKDs
nfb:__ZN18StreamedBinaryReadILb0EE21TransferSTLStyleArrayINSt3__26vectorIN15ResourceManager10DependencyE13stl_allocatorIS5_L18MemLabelIdentifier52ELi16EEEEEEvRT_17TransferMetaFlags
vgg:_UInt64_CompareTo_m1614517204_AdjustorThunk
mUc:__ZN11UnityEngine15PlatformWrapper20IsRootedOrJailbrokenEv
eLb:__ZZ23InitPlayerLoopCallbacksvEN52PreLateUpdateScriptRunBehaviourLateUpdateRegistrator7ForwardEv
rVb:__Z33IntersectAABBPlaneBoundsOptimizedRK4AABBPKN4math7_float4Ei
Zpa:__ZN9GfxDevice19EndGeometryJobFrameEv
Cvi:_GUILayoutUtility_Layout_m1159951704
COe:_InputField_get_shouldActivateOnSelect_m3055465770
ttb:__ZN27Converter_SimpleNativeClassI17AnimationCurveTplIfEE17ScriptingToNativeER18ScriptingObjectPtrPS1_
zcg:_Type__cctor_m2371893800
Ksj:__ZN6il2cpp8metadata24Il2CppGenericInstCompare7CompareERK10KeyWrapperIPK17Il2CppGenericInstES8_
jOi:__ZNK15dense_hashtableINSt3__24pairIK10KeyWrapperIPK19Il2CppGenericMethodEPK26Il2CppGenericMethodIndicesEES6_N6il2cpp8metadata23Il2CppGenericMethodHashEN14dense_hash_mapIS6_SA_SE_NS6_14EqualsComparerINSD_26Il2CppGenericMethodCompareEEENS0_9allocatorISB_EEE9SelectKeyESI_SK_E5beginEv
I$c:_ExecuteEvents_Execute_m3049310229
xt:__ZN27AnimationLayerMixerPlayable21UpdateLayerParametersEv
bw:__ZN7mecanim9animation16CopyMotionOutputEPKNS0_18AnimationNodeStateEPS1_bbRKNS_6bitsetILj83EEE
S0b:__ZNK17AnimationCurveTplIfE8EvaluateEfPNS0_5CacheE
iKb:__Z31ManagerContextInitializeClassesv
l8h:_ReadOnlyCollection_1_System_Collections_IList_Contains_m2650112051_gshared
WGf:_Array_get_swapper_TisVector3_t3722313464_m1221246401_gshared
xFc:_UNITY_FT_List_Finalize
kPb:__Z20LightAttenuateApproxRKfS0_
n7:__ZN9Scripting30SetCachedPtrOnScriptingWrapperE18ScriptingObjectPtrP6Object
Wgf:_RepeatContext_get_IsMinimum_m3640286252
eOe:_ObjectRecord_ChainFixup_m1889316362
LUa:__ZN18BlockRangeInternal16PopLastNodeIndexEP10BlockRangeji
Ilj:__ZN6il2cpp2vm13CachedCCWBaseINS0_13ManagedObjectEE6AddRefEv
X2c:_TouchInputModule_UpdateModule_m2582897964
z9a:__ZN4MeshD0Ev
kZc:__ZL42RequestRecreateEyeTexturesBeforeNextUpdatev
FEa:__ZNK6Camera20IsCurrentlyRenderingEv
kv:__ZN21AnimationClipPlayable23ProcessRootMotionNoClipEPK35AnimationPlayableEvaluationConstantPK32AnimationPlayableEvaluationInputP33AnimationPlayableEvaluationOutput
bRc:__Z36CanvasRenderer_CUSTOM_SetPopMaterialP12Il2CppObjectS0_i
Irc:__Z18Transfer_BlittableI9JSONWriteLb0EdEvRK29SerializationCommandArgumentsR31RuntimeSerializationCommandInfo
Apf:_String_System_IConvertible_ToDouble_m3740733360
ESa:__ZN6Camera8TransferI19StreamedBinaryWriteILb0EEEEvRT_
Rwf:_DBNull_System_IConvertible_ToSByte_m3533624679
_uj:_wctomb
dsd:_Char_CompareTo_m42489266
mYg:__Z67RuntimeInvoker_Void_t1185182177_Int32_t2950945753_Double_t594665363PFvvEPK10MethodInfoPvPS4_
kfc:__Z27Camera_CUSTOM_GetAllCamerasP11Il2CppArray
Wc:___cxa_rethrow
A2d:_ParameterInfo_GetCustomAttributes_m2376494592
ltc:__Z18Transfer_BlittableI8JSONReadLb1EhEvRK29SerializationCommandArgumentsR31RuntimeSerializationCommandInfo
Y9c:_Graphic_get_canvasRenderer_m315509948
Geh:_Collection_1_System_Collections_IList_Contains_m3397768605_gshared
XPg:__Z90RuntimeInvoker_Void_t1185182177_Int64_t3736567304_Int32_t2950945753_RuntimeObject_IntPtr_tPFvvEPK10MethodInfoPvPS4_
REj:_glBindRenderbuffer__wrapper
u1h:_Dictionary_2_Do_CopyTo_TisInt32_t2950945753_TisInt32_t2950945753_m3384108308_gshared
JEf:_CultureInfo_construct_internal_locale_from_name_m3254739477
wfe:_RSASslSignatureDeformatter_VerifySignature_m1061897602
X5e:_RSAManaged_remove_KeyGenerated_m2046909903
cid:_RandomNumberGenerator_Create_m4162970280
VPf:_Array_InternalArray__Insert_TisLabelFixup_t858502054_m171542753_gshared
Ose:_InternalEnumerator_1_System_Collections_IEnumerator_get_Current_m3539708496_AdjustorThunk
ylb:__ZN20LocalFileSystemPosix4ReadER13FileEntryDatayyPvPy
ISb:__ZNSt3__211__sift_downIRN23ForwardShaderRenderLoop18RenderObjectSorterILb0EEEP21ForwardRenderPassDataEEvT0_S7_T_NS_15iterator_traitsIS7_E15difference_typeES7_
Vlf:_SecurityPermission__ctor_m1462427327
qBj:dynCall_iiiiiiffiiiiiiiiiffffiiii
VDb:__ZN13MonoBehaviour5DoGUIENS_13GUILayoutTypeEii
CEe:_ChannelData_get_ClientProviders_m594662942
gqi:_QuickSearch_GetChar_m1297698557
SKa:__ZNK12TLSAllocatorI14StackAllocatorE8ContainsEPKv
Ncb:__ZN11TimeManager8TransferI18StreamedBinaryReadILb0EEEEvRT_
WAg:__Z68RuntimeInvoker_Boolean_t97287965_Int16_t2552820387_SByte_t1669577662PFvvEPK10MethodInfoPvPS4_
ovf:_DateTime__ParseEnum_m253019513
dCd:_Convert_ToUInt32_m2194577773
M6:__ZN15dense_hashtableINSt3__24pairIKyP17VertexDeclarationEEy14GfxGenericHashIyEN14GfxDoubleCacheIyS4_S7_NS0_8equal_toIyEEN31GfxDoubleCacheConcurrencyPolicy11LocklessGetE42GfxDoubleCacheDefaultEmptyDeletedGeneratorIyEE9SelectKeyESA_13stl_allocatorIS5_L18MemLabelIdentifier24ELi16EEE12resize_deltaEjj
exd:_Hashtable_Remove_m4032631466
quc:__Z18Transfer_BlittableI8JSONReadLb1EyEvRK29SerializationCommandArgumentsR31RuntimeSerializationCommandInfo
T1a:__ZN7Texture25ReloadFromStorageIfNeededEPvb
YLf:_Array_InternalArray__IndexOf_TisBoolean_t97287965_m1161209222_gshared
Brj:__ZN6il2cpp2os12Cryptography24OpenCryptographyProviderEv
Lud:_SynchronizedArrayListWrapper_Clear_m2191301493
zGc:_Update_Max
G7i:__ZN6il2cpp6icalls8mscorlib6SystemL15ThrowNoWideningEv
b1b:__ZNK23TransformChangeDispatch24GetChangeMaskForInterestENS_12InterestTypeE
D8b:__ZN8Playable5PauseEv
Xjc:__Z45Transform_CUSTOM_INTERNAL_CALL_TransformPointP12Il2CppObjectRK8Vector3fRS1_
VXd:_GenericTypeParameterBuilder_InvokeMember_m1647304778
Jbd:_HorizontalOrVerticalLayoutGroup_set_childControlWidth_m3261460516
$$a:__ZNSt3__26__treeINS_12__value_typeI39DeprecatedFastPropertyNameSerializationfEENS_19__map_value_compareIS2_S3_NS_4lessIS2_EELb1EEENS_9allocatorIS3_EEE7destroyEPNS_11__tree_nodeIS3_PvEE
tEc:_tt_cmap4_char_index
E3c:_AspectRatioFitter_GetParentSize_m3159144324
dof:_SecurityFrame_get_Assembly_m2874566710
T9g:_Enumerator_System_Collections_IEnumerator_Reset_m1487823313_gshared
Ukb:__ZNK12HandlerChain8IsHiddenERK13FileEntryData
Jsb:__ZL26Transfer_SimpleNativeClassI17RemapPPtrTransfer10RectOffsetLb0EEvRK29SerializationCommandArgumentsR31RuntimeSerializationCommandInfo
tLc:__Z14ValidateFormatR13dynamic_arrayIN20TextRenderingPrivate16TextFormatChangeELj4EE
WFd:_Int32_ToString_m2507389746_AdjustorThunk
_yf:_Decimal_op_Explicit_m438967917
IJi:_AnimatorControllerPlayable_SetHandle_m2260644454_AdjustorThunk
Eja:__ZNSt3__26vectorIN9ShaderLab20SerializedSubProgram13BufferBindingENS_9allocatorIS3_EEEC2ERKS6_
nPe:_InputField_set_selectionColor_m2084640295
V3:__ZNK9ShaderLab20ShaderBlendStateDesc15ToGfxBlendStateEPK19ShaderPropertySheetS3_R13GfxBlendState
iz:__ZN11UnityEngine9AnimationL22GenericBindingCallbackEPvS1_i
eGc:_Compute_Point_Displacement
doa:__ZN9ShaderLab9IntShaderC2Ev
WUi:__ZN6il2cpp6icalls8mscorlib6SystemL9IsPrivateEPK9EventInfo
srj:__ZN6il2cpp6icalls8mscorlib6System10Reflection4Emit11TypeBuilder20setup_internal_classEP27Il2CppReflectionTypeBuilderS7_
Tac:__Z18TransformPoints3x4RK10Matrix4x4fPK8Vector3fjPS2_ji
vMf:_Array_InternalArray__IndexOf_TisILTokenInfo_t2325775114_m2602704009_gshared
l7f:_StringBuilder_AppendFormat_m3255666490
kSd:_OverflowException__ctor_m4029085969
K_d:_TypeBuilder_GetGenericArguments_m2872156836
AKi:__ZN13Il2CppHashMapIPK22Il2CppGenericParameterP11Il2CppClassN6il2cpp5utils11PointerHashIS1_EENSt3__28equal_toIS2_EENS9_9allocatorINS9_4pairIK10KeyWrapperIS2_ES4_EEEEEC2EjRKS8_RKSB_
k5e:_KeyPairPersistence_Remove_m1876145547
AMa:__Z15CreateDirectoryRKN4core12basic_stringIcNS_20StringStorageDefaultIcEEEE
xYa:__Z21CalculateGlobalMatrix23TransformAccessReadOnly
L_d:_TypeBuilder_GetGenericTypeDefinition_m1632720438
jHf:_Array_InternalArray__ICollection_Contains_TisLink_t544317964_m163190451_gshared
fwf:_DateTimeOffset_System_IComparable_CompareTo_m176229495_AdjustorThunk
Wog:_ManagedStreamHelpers_ValidateLoadFromStream_m580138133
Scb:__ZNK13BuildSettings22GetTypeVirtualInternalEv
I7g:_List_1_CheckIndex_m2250397830_gshared
H2b:__Z13RegisterClassI14RenderSettingsEvv
z:tempBigIntI
thf:_Interval_get_Empty_m3617514670
SSd:_Assembly_GetName_m981771927
zx:__ZN7mecanim12statemachine24CreateStateMachineOutputEPKNS0_20StateMachineConstantEjRNS_6memory9AllocatorE
Ufj:__ZN6il2cpp2vm12GenericClass8GetClassEP18Il2CppGenericClass
yqa:__ZNK9GfxDevice27GetActiveRenderSurfaceWidthEv
ETh:__ZL114StandaloneInputModule_t2760469101_CustomAttributesCacheGenerator_StandaloneInputModule_ForceAutoSelect_m2837047882P21CustomAttributesCache
ZTc:__ZN11UnityEngine15PlatformWrapper28GetCleanGraphicsFixedVersionEv
OUe:_MaskableGraphic_RecalculateClipping_m1772937317
hOd:_UnmanagedMemoryStream_SetLength_m3752964620
SXi:__ZN6il2cpp2vm4Type7GetTypeEPK10Il2CppType
EKc:_open_face_PS_from_sfnt_stream
Ine:_InternalEnumerator_1_get_Current_m165106323_AdjustorThunk
X7f:_UTF32Encoding_GetByteCount_m3610769032
rAa:__ZN6prcoreL17RemapGenericFloatI18TexFormatRGBAFloat17TexFormatRGBAHalfEEvPKNS_9InnerInfoE
ILb:__Z16FindCameraStacksRKNSt3__24listI4PPtrI6CameraENS_9allocatorIS3_EEEERNS_6vectorI11CameraStackNS4_ISA_EEEE
_oi:_MatchCollection_CopyTo_m3807326147
q4a:__ZN10GISettings8TransferI14SafeBinaryReadEEvRT_
un:FUNCTION_TABLE_vifff
NXh:__ZL54Text_t1901882714_CustomAttributesCacheGenerator_m_TextP21CustomAttributesCache
Thd:_MD5CryptoServiceProvider__ctor_m3271163125
dZb:__ZN19CustomRenderTexture12ClearGPUDataEv
yZa:__ZN13RenderTexture13ApplySettingsEv
fNe:_ObjectReader_RegisterObject_m1853376334
wZd:_ModuleBuilderTokenGenerator_GetToken_m2588853565
xpd:_Boolean_System_IConvertible_ToDecimal_m3176932461_AdjustorThunk
Ue:_JS_Sound_SetListenerPosition
mn:FUNCTION_TABLE_fiffi
zYe:_ScrollRect_OnInitializePotentialDrag_m3139711961
f8h:_ReadOnlyCollection_1_System_Collections_Generic_IListU3CTU3E_set_Item_m711370667_gshared
STd:_Default_check_arguments_with_score_m3467814020
uGj:_glGetActiveUniform__wrapper
LMd:_StreamWriter_LowLevelWrite_m1081676583
Pda:__ZZN15DirectorManager15InitializeClassEvEN45FixedUpdateDirectorFixedSampleTimeRegistrator7ForwardEv
Kib:__ZNK8Material16MarkDependenciesER27GarbageCollectorThreadState
YZe:_Slider_set_handleRect_m1101657556
twf:_DateTimeOffset_ToString_m3985341516_AdjustorThunk
Lrc:__ZL17Transfer_GUIStyleI9JSONWriteLb0EEvRK29SerializationCommandArgumentsR31RuntimeSerializationCommandInfo
cQb:__Z28GetHaloVertexPositionsStereoP8Vector3fRKS_S2_f
gBa:__ZN6prcoreL27StretchGenericFloatBilinearI15TexFormatRGHalfEEvPKNS_9InnerInfoE
S7:__GLOBAL__sub_I_runtime_misc_0_cpp
RFf:_SortKey_GetHashCode_m3547067087
_Ab:__Z18Transfer_BlittableI18StreamedBinaryReadILb0EELb1E9BoundsIntEvRK29SerializationCommandArgumentsR31RuntimeSerializationCommandInfo
JXh:__ZL71SpriteState_t1362986479_CustomAttributesCacheGenerator_m_DisabledSpriteP21CustomAttributesCache
ocf:_PublicKey_DecodeDSA_m3490622362
zic:__Z49Register_UnityEngine_Resources_GetBuiltinResourcev
odg:_Type_GetMethod_m1479779718
gEc:_tt_cmap10_char_index
iki:_TlsException__ctor_m3242533711
j7d:_BitConverterLE_GetUIntBytes_m795219058
cyd:_SortedList__ctor_m3676552745
cLi:__ZN15dense_hashtableINSt3__24pairIK10KeyWrapperIPK22Il2CppGenericParameterEP11Il2CppClassEES6_N6il2cpp5utils11PointerHashIS4_EEN14dense_hash_mapIS6_S9_SE_NS6_14EqualsComparerINS0_8equal_toIS5_EEEENS0_9allocatorISA_EEE9SelectKeyESJ_SL_E3endEv
fqb:__Z35Transfer_Blittable_SingleValueFieldI14SafeBinaryReadjEvRT_R17GeneralMonoObjectRK23StaticTransferFieldInfo
SP:__ZN11AudioSource24ClearExtensionPropertiesE12PropertyName
r_h:_Array_InternalArray__set_Item_TisColor32_t2600501292_m1891325855_gshared
Kla:__ZN9ShaderLab22SerializedBindChannels8TransferI19StreamedBinaryWriteILb0EEEEvRT_
Vqb:__ZN15SerializeTraitsI5RectTIiEE8TransferI14SafeBinaryReadEEvRS1_RT_
qnc:__ZN5IMGUI20MoveWindowFromLayoutER8GUIStateiRK5RectTIfE
MAc:_UNITY_FT_Stream_ReadUShort
bhc:__Z51Register_UnityEngine_GUILayer_INTERNAL_CALL_HitTestv
Pha:__ZNSt3__26__treeINS_12__value_typeIN4core12basic_stringIcNS2_20StringStorageDefaultIcEEEES6_EENS_19__map_value_compareIS6_S7_NS_4lessIS6_EELb1EEE13stl_allocatorIS7_L18MemLabelIdentifier1ELi16EEE7destroyEPNS_11__tree_nodeIS7_PvEE
gwa:__Z13IsDepthFormat14GraphicsFormat
deb:__ZN12AspectRatios8TransferI24GenerateTypeTreeTransferEEvRT_
$Pd:_MonoType_GetFields_m4176012508
Jwc:__Z12FormatBufferPciPKcz
Wsf:_CurrentSystemTimeZone_GetTimeZoneData_m2641861607
NWf:_EqualityComparer_1_System_Collections_IEqualityComparer_GetHashCode_m3423304513_gshared
pLi:__ZN6il2cpp2vm5Class13GetArrayClassEP11Il2CppClassj
p2c:_StandaloneInputModule_set_inputActionsPerSecond_m4057208843
HHb:__ZN19RuntimeSceneManager18LoadSceneAsyncIntoER10UnitySceneRKN4core12basic_stringIcNS2_20StringStorageDefaultIcEEEENS_11LoadingModeEb
erc:__Z35Transfer_Blittable_FixedBufferFieldI9JSONWritetEvRK29SerializationCommandArgumentsR31RuntimeSerializationCommandInfo
xnc:__ZN11IMGUIModule12AddGUIScriptER8ListNodeI13MonoBehaviourE
nb:invoke_difi
zvi:_GUILayoutUtility_BeginWindow_m2240221150
pFj:_glDeleteSamplers__wrapper
J7e:_HybridDictionary_set_Item_m2997363718
YLa:__ZNSt3__26__treeIiNS_4lessIiEE13stl_allocatorIiL18MemLabelIdentifier1ELi16EEE7destroyEPNS_11__tree_nodeIiPvEE
kte:_InternalEnumerator_1_get_Current_m1477715453_AdjustorThunk
ngg:_UInt64_System_IConvertible_ToUInt32_m2784653358
Nva:__ZN21GLESGpuProgramApplier11ApplyVectorERKN20GpuProgramParameters14ValueParameterEPK8Vector4ft
NUb:__Z17PrepareSceneNodesP11CullResults
led:_SByte_System_IConvertible_ToDecimal_m2548745278
Mxc:_cff_size_done
mVb:__ZN29ExtractProjectionPlanesHelperILb1EE5ApplyERK10Matrix4x4fP5Plane
m7b:__ZN13ProduceHelperI7CubemapLb0EE7ProduceE10MemLabelId18ObjectCreationMode
vZb:__ZN6Camera34UpdatePreviousViewProjectionMatrixEv
Ema:__ZN9ShaderLab11ShaderState25RemoveUnsupportedProgramsEPK6Shader
rMc:__Z28Font_Get_Custom_PropMaterialP12Il2CppObject
ppg:_Mathf_Abs_m3281243566
kNd:_SynchronizedWriter_WriteLine_m1552352268
Wbc:__Z26scripting_class_has_parent17ScriptingClassPtrS_
Rba:__ZN13RuntimeStaticI21AssetReferenceStorageLb0EE16StaticInitializeEPv
xVc:__ZNSt3__26__treeINS_12__value_typeIN4core12basic_stringIcNS2_20StringStorageDefaultIcEEEEN11UnityEngine7Connect19RemoteSettingsValueEEENS_19__map_value_compareIS6_SA_NS_4lessIS6_EELb1EEE13stl_allocatorISA_L18MemLabelIdentifier6ELi16EEE16__construct_nodeERKNS_4pairIKS6_S9_EE
aFd:_Int32_System_IConvertible_ToByte_m3832391412_AdjustorThunk
CQ:__Z71Register_UnityEngine_AudioSource_INTERNAL_CALL_ClearExtensionPropertiesv
zC:__ZNK8Animator20IsInMatchTargetStateEv
upe:_InternalEnumerator_1_System_Collections_IEnumerator_get_Current_m4088805473_gshared
coc:__Z36Register_UnityEngine_GUI_set_changedv
XGe:_Context_GetServerContextSinkChain_m3154465897
rwi:_GUIStyle_get_fixedHeight_m2868324709
gBd:_Convert_ToInt64_m2075293963
Trj:__GLOBAL__sub_I_Il2CppCodeRegistration_cpp
Ww:__ZN27AnimationLayerMixerPlayable18SetInputConnectionEP8Playablei
Fw:__ZN7mecanim28TransformValueArrayBlendNodeEiiiRKNS_10ValueArrayERKNS_14ValueArrayMaskERS0_RS3_RNS_16ValueArrayWeightEf
_7c:_Dropdown_set_value_m1048320169
AVa:__ZN20TierGraphicsSettings8TransferI18StreamedBinaryReadILb0EEEEvRT_
zFd:_Int32_System_IConvertible_ToUInt64_m2502338186_AdjustorThunk
yfa:__Z33CleanupCubemapGPUUtilityMaterialsPv
R$a:__ZN14SafeBinaryRead8TransferINSt3__24pairIN9ShaderLab16FastPropertyNameE10ColorRGBAfEEEEvRT_PKc17TransferMetaFlags
cKi:__ZL9rshift128PyS_
K0f:_Enumerator_VerifyState_m169680537_AdjustorThunk
N2i:__ZN14dense_hash_mapI10KeyWrapperINSt3__24pairIPK12PropertyInfoP11Il2CppClassEEEj17ReflectionMapHashIS8_ENS9_14EqualsComparerINS1_8equal_toIS8_EEEENS1_9allocatorINS2_IKS9_jEEEEE13set_empty_keyERSH_
Ng:_glRenderbufferStorage
Zbj:__ZNK15dense_hashtableINSt3__24pairIK10KeyWrapperINS1_IPKcS4_EEEiEES6_24NamespaceAndNamePairHashN14dense_hash_mapIS6_iS9_NS6_14EqualsComparerI26NamespaceAndNamePairEqualsEENS0_9allocatorIS8_EEE9SelectKeyESD_SF_E13find_positionERS7_
Hhc:__Z45Register_UnityEngine_Input_get_touchSupportedv
bUc:__ZN11UnityEngine15PlatformWrapper28GetTextureFormatSupportFlagsEv
NCc:_sfnt_is_postscript
n_b:__ZNSt3__26vectorINS_4pairIN4core12basic_stringIcNS2_20StringStorageDefaultIcEEEES6_EE13stl_allocatorIS7_L18MemLabelIdentifier38ELi16EEE26__swap_out_circular_bufferERNS_14__split_bufferIS7_RSA_EEPS7_
Bti:_Uri_EscapeString_m3864445955
zyc:_cf2_setError
Q9a:__ZN14SafeBinaryRead21TransferSTLStyleArrayI13dynamic_arrayI12BoneWeights4Lj16EEEEvRT_17TransferMetaFlags
vwe:_Enumerator_MoveNext_m465222849_AdjustorThunk
FKb:__ZZ23InitPlayerLoopCallbacksvEN35PreUpdateSendMouseEventsRegistrator7ForwardEv
HEa:__ZNK6Camera25GetNormalizedViewportRectEP13RenderTextureb
$7c:_Dropdown_Awake_m3140021404
_g:_glDisable
VZa:__ZN13RenderTexture8TransferI24GenerateTypeTreeTransferEEvRT_
$yg:_Vector2_get_sqrMagnitude_m837837635
Ikj:__ZN6il2cpp5utils11StringUtils15StringDuplicateEPKDsj
sE:__ZZN8Animator15InitializeClassEvEN37FunctorImpl_417kDidModifyOverrideClip4CallEPviR11MessageData
pri:_Regex_Match_m4145799399
Dv:__ZN17AnimationPlayable17ProcessRootMotionEP35AnimationPlayableEvaluationConstantP32AnimationPlayableEvaluationInputP33AnimationPlayableEvaluationOutput
Kqf:_String_IsNullOrEmpty_m2969720369
Wze:_Enumerator_MoveNext_m2602845255_gshared
CHi:_TextGenerator_GetPreferredHeight_m3514897836
j2e:_BigInteger_LowestSetBit_m3082714978
cKj:b118
dKj:b119
DLb:__ZNK8Material12GetPassCountEv
Zif:_RSAParameters_t1728406613_marshal_pinvoke
Chf:_Interval_IsDisjoint_m1532171337_AdjustorThunk
YJj:b112
Yyj:_bitshift64Ashr
_Jj:b114
$Jj:b115
aKj:b116
bKj:b117
tAj:dynCall_diii
OTe:_LayoutUtility_GetFlexibleWidth_m22831835
RMe:_BinaryFormatter__ctor_m971003555
yie:_ArrayReadOnlyList_1_ReadOnlyError_m865416608_gshared
Uvd:_CollectionBase_System_Collections_IList_get_Item_m3743372945
Gxa:__ZN4crnd12crn_unpacker22decode_alpha_endpointsEv
lah:_Queue_1__ctor_m2068090025_gshared
TVb:__Z23CullDynamicObjectsUmbraPK4AABBPKN5Umbra15OcclusionBufferER9IndexList
uEc:_tt_cmap4_char_next
_Z:__ZN4core8hash_mapIi17ThreadedAwakeDataNS_4hashIiEENSt3__28equal_toIiEEE4growEi
HBg:__Z50RuntimeInvoker_Boolean_t97287965_Int16_t2552820387PFvvEPK10MethodInfoPvPS4_
pAd:_Convert_ToDecimal_m1233667008
ZZ:__ZN4core8hash_mapIi17ThreadedAwakeDataNS_4hashIiEENSt3__28equal_toIiEEE4growEv
w7:__GLOBAL__sub_I_runtime_assetbundles_1_cpp
KI:__ZN4FMOD7Channel11setPositionEjj
Sh:_glBindSampler
Aae:_ClientContext_get_ClientHelloProtocol_m1654639078
Wh:_glGetVertexAttribiv
lAe:_Enumerator_System_Collections_IEnumerator_get_Current_m1975949486_gshared
Hpi:_PatternCompiler_EmitSub_m193323684
LNc:__ZN2UI11CanvasGroup23VirtualRedirectTransferER18StreamedBinaryReadILb0EE
_Fd:_Int64_System_IConvertible_ToByte_m375085029
Quc:__ZN8JSONRead8TransferIbEEvRT_PKc17TransferMetaFlagsb
fcg:_TimeSpan_ToString_m1128692466
pyi:_AesManaged_CreateEncryptor_m2294080233
fvi:_Event_GetHashCode_m3559153592
rma:__ZN9ShaderLab9SubShaderD2Ev
Gmj:_GC_promote_black_lists
_zd:_Convert_ToChar_m3757390865
Evc:__Z29Transfer_Blittable_ArrayFieldI8JSONRead8Vector4fEvRT_R9ArrayInfoRK23StaticTransferFieldInfo
Sn:FUNCTION_TABLE_vf
ETd:_Binder_GetDerivedLevel_m3216810447
qo:FUNCTION_TABLE_vd
Q8:__ZN13RuntimeStaticI37UnityShaderCompilerExtPluginConfigureLb0EE16StaticInitializeEPv
m7f:_StringBuilder_AppendFormat_m2403596038
Fgd:_DSASignatureDeformatter_SetHashAlgorithm_m3186995552
Q5h:_ReadOnlyCollection_1_System_Collections_Generic_ICollectionU3CTU3E_Clear_m2772202961_gshared
Tsc:__ZN9JSONWrite8TransferI13dynamic_arrayI4AABBLj4EEEEvRT_PKc17TransferMetaFlags
TE:__ZNK8Animator17HasBoundPlayablesEv
V3d:_ResourceSet_ReadResources_m3663669011
P9f:_SynchronizationContext_SetSynchronizationContext_m1249070039
v7g:_List_1_AddEnumerable_m1267044261_gshared
UDc:_tt_cmap13_char_index
mVi:__ZN6il2cpp2vm7Runtime9SetConfigEPKc
Fpc:__ZN5Unity9rapidjson12PrettyWriterI16TempBufferWriterNS0_4UTF8IcEES4_13JSONAllocatorE10StartArrayEv
ta:invoke_iiifiii
evg:_RectTransform_INTERNAL_get_pivot_m2970933031
tgi:_UnityAction_1_Invoke_m927447181_gshared
E9i:__ZN6il2cpp2vm9Exception11FromNameMsgEPK11Il2CppImagePKcS6_S6_
cn:FUNCTION_TABLE_fiiifii
Sea:__Z14GetTimeManagerv
zkg:_Color32_op_Implicit_m213813866
Gug:_RectOffset_set_top_m713260669
vXc:__ZN19TransportJavaScript7CleanupEv
HPa:__Z12GUIDToStringRK9UnityGUIDPc
Pba:__ZN15FileSystemEntry4LockE12FileLockModeP12FileAccessor
bIj:_emscripten_glDrawArrays__wrapper
IFd:_Int32_Equals_m2976157357
GOg:__Z110RuntimeInvoker_Int32_t2950945753_Int32_t2950945753_Int32_t2950945753_Int32U26_t1369213839_Int32U26_t1369213839PFvvEPK10MethodInfoPvPS4_
hM:__ZN11AudioSource22UnmuteActiveVideoSinksEv
gki:_TlsException__ctor_m3717683709
Fkj:__ZN4utf88internal20is_overlong_sequenceIiEEbjT_
hPi:__ZN6il2cpp2vm13MetadataCache8RegisterEPK22Il2CppCodeRegistrationPK26Il2CppMetadataRegistrationPK20Il2CppCodeGenOptions
lRa:__Z9SetLocalR15TransformAccessRKN4math7_float4Ey
QRb:__Z30SetupBakedOcclusionForGeometrybRK26SharedLightmapSettingsDataRK15LightmapIndicesR17ShaderPassContext
Pfc:__Z41Register_UnityEngine_Cursor_get_lockStatev
mRb:__Z14SetupLightmapsRK8Vector4fS1_R17ShaderPassContext
l1i:__ZN14dense_hash_mapI10KeyWrapperIPK14Il2CppAssemblyEPK22Il2CppMonoAssemblyNameN6il2cpp5utils11PointerHashIS2_EENS4_14EqualsComparerINSt3__28equal_toIS3_EEEENSD_9allocatorINSD_4pairIKS4_S7_EEEEE13set_empty_keyERSJ_
O_a:__ZL20InitializeGUIShadersv
oGf:_Guid_CompareTo_m243656946
l1b:__Z20DestroyObjectDelayedP6Objectf
yW:__ZN20DynamicHeapAllocatorI17LowLevelAllocatorED0Ev
j4b:__ZN11TimeManagerC2E10MemLabelId18ObjectCreationMode
KOb:__ZN9DepthPassD2Ev
CH:__ZN11AudioFilter6GetDSPEv
Yif:_RSACryptoServiceProvider_OnKeyGenerated_m863837376
TWe:_Scrollbar_OnDrag_m4289602768
Caa:__ZN19RuntimeSceneManager14CanUnloadSceneEP10UnityScene
MOb:__Z22ExtractRenderNodeQueueRK11CullResults15ExtractionFlagsR15RenderNodeQueue
HG:__ZN24AudioScriptBufferManagerC2Ev
dKc:__ZNSt3__26vectorIh13stl_allocatorIhL18MemLabelIdentifier1ELi16EEE8__appendEj
ore:_InternalEnumerator_1_System_Collections_IEnumerator_get_Current_m3854084659_AdjustorThunk
FOe:_OnValidateInput_Invoke_m1009124904
Bhe:_U3CGetEnumeratorU3Ec__Iterator0_System_Collections_IEnumerator_get_Current_m283764921_gshared
fKc:__ZN20TextRenderingPrivate8FontImpl16ResetPackingDataEv
rDf:_CultureInfo_get_IcuName_m2258611679
Dqc:__Z18Transfer_BlittableI9JSONWriteLb0EfEvRK29SerializationCommandArgumentsR31RuntimeSerializationCommandInfo
Twa:__Z21GetAsyncUploadManagerv
Jj:_emscripten_glDetachShader
tvg:_Vector2_op_Subtraction_m73004381
Hwa:__ZN17GenericDynamicVBO20ReleaseChunkInternalERK21DynamicVBOChunkHandlejj
qMc:__ZL27CleanupModule_TextRenderingv
zvj:_fmodl
u6e:_SymmetricTransform_OFB_m3842617151
MHb:__ZN19RuntimeSceneManager11CreateSceneEv
ckg:_Color__ctor_m286683560
opi:_PatternCompiler_Emit_m1540115729
ECc:_ps_get_standard_strings
PRb:__Z27SetupBakedOcclusionForLightbRK15SharedLightDataR17ShaderPassContext
jsj:__ZN6il2cpp2os5Mutex6UnlockEv
Z4f:_EncoderFallbackException__ctor_m1051987327
r2e:_BigInteger_ToString_m3278248272
xxf:_Decimal_System_IConvertible_ToBoolean_m1123794670
pWg:__Z98RuntimeInvoker_Int32_t2950945753_RaycastResult_t3360306849_RaycastResult_t3360306849_RuntimeObjectPFvvEPK10MethodInfoPvPS4_
Taa:__Z17CommitBatchDeleteR11BatchDelete
ZTe:_Mask__ctor_m1269055150
Vyh:__ZL99WaitHandle_t1743403487_CustomAttributesCacheGenerator_WaitHandle_t1743403487____Handle_PropertyInfoP21CustomAttributesCache
nbf:_WebRequest_AddPrefix_m3187775913
gMb:__Z18RenderImageFiltersR10RenderLoopb
ZQc:__Z43CanvasRenderer_Get_Custom_PropMaterialCountP12Il2CppObject
_Rb:__ZNSt3__227__insertion_sort_incompleteIR23CompareReflectionProbesP31RuntimeReflectionProbeBlendInfoEEbT0_S5_T_
X3g:_List_1_Remove_m1457733883_gshared
Zvc:__ZN8JSONRead21TransferSTLStyleArrayI13dynamic_arrayI11QuaternionfLj4EEEEvRT_17TransferMetaFlags
s0d:_MonoEventInfo_GetEventInfo_m873645389
f8d:_MD4Managed_Encode_m386285215
gca:__ZN10InputEventD2Ev
JZ:__ZL23OutOfBoundsReadingErrorPKN5Unity4TypeEiiR6Object
CYc:__ZN22UnityWebRequestManagerD2Ev
Vui:_Event_get_character_m1666742088
evj:_isalpha
Wzd:_Convert_ToChar_m1442101407
pge:_SslClientStream_OnLocalPrivateKeySelection_m1934775249
vwf:_DateTimeOffset_get_Offset_m2040541042_AdjustorThunk
iTi:__ZN6il2cpp2vmL17IsSocketAsyncCallEP14Il2CppDelegate
Hxd:_Slot_t3975888750_marshal_pinvoke_back
dkj:__ZN6il2cpp2vm6String6NewLenEPKcj
_4:__Z25GetBuiltinTexEnvParamNamei
GFb:__ZN17PersistentManager9AddStreamEv
_k:_time
g6c:_ContentSizeFitter_set_verticalFit_m1831566876
ulf:_TripleDESCryptoServiceProvider_CreateDecryptor_m740960117
CSg:__Z122RuntimeInvoker_Void_t1185182177_Color_t2555686324_Single_t1397266774_SByte_t1669577662_SByte_t1669577662_SByte_t1669577662PFvvEPK10MethodInfoPvPS4_
hpg:_Material_EnableKeyword_m329692301
mzc:_cf2_stack_free
qkf:_SHA512Managed_HashCore_m2377807474
IGd:_Int64_Parse_m3309897583
YDf:_CompareInfo_IndexOf_m667936183
rv:__ZN7mecanim9animation19EvaluateFloatValuesEPKNS0_18ClipMuscleConstantEPKNS_18ValueArrayConstantEPKNS0_12ClipBindingsEPKNS0_10ClipOutputEPNS0_18AnimationNodeStateEfbb
dD:__ZN8Animator31ClearInternalControllerPlayableEv
THa:__ZN26SinglePassStereoSupportExt18AfterSetViewMatrixEv
Qig:_Bounds__ctor_m1937678907_AdjustorThunk
xwg:_SetupCoroutine_InvokeMember_m2661944898
c_f:_HashSet_1__ctor_m620629637_gshared
Qbf:_X509EnhancedKeyUsageExtension_ToString_m350388564
ZYi:__ZN15dense_hashtableINSt3__24pairIK10KeyWrapperINS1_IPK9FieldInfoP11Il2CppClassEEEjEES9_17ReflectionMapHashIS8_EN14dense_hash_mapIS9_jSD_NS9_14EqualsComparerINS0_8equal_toIS8_EEEENS0_9allocatorISB_EEE9SelectKeyESI_SK_E4findERSA_
yud:_SimpleEnumerator_MoveNext_m3113120129
LHb:__ZN13LoadOperationC2E10MemLabelId
HOe:_InputField_SendOnValueChanged_m2560301445
uXb:__ZN13RenderTexture19SetAutoGenerateMipsEb
nya:__Z20GetTextureFormatInfo13TextureFormat
$8e:_TypeConverterAttribute_Equals_m1580461255
j9d:_RSAManaged_ToXmlString_m2369501989
cy:__ZN26AnimatorControllerPlayable8GetFloatEiRf
Itf:_DateTime_System_IConvertible_ToSingle_m2193708681_AdjustorThunk
Bhf:_Interval_get_Size_m4163671410_AdjustorThunk
bOc:__ZN2UI14CanvasRenderer13AwakeFromLoadE17AwakeFromLoadMode
ukh:__ZL64String_t_CustomAttributesCacheGenerator_String_Split_m3580120853P21CustomAttributesCache
Bqj:__ZN6il2cpp5utils10MemoryPool6MallocEj
$F:__ZN11SoundHandle8InstanceD2Ev
F3d:_ResourceEnumerator_Reset_m3754276504
ufa:__ZN31CanvasBatchIntermediateRenderer13StaticDestroyEPv
j$:__ZNSt3__23mapIiP15MonoScriptCacheNS_4lessIiEE13stl_allocatorINS_4pairIKiS2_EEL18MemLabelIdentifier78ELi16EEEixERS7_
aTa:__Z26scripting_method_get_class18ScriptingMethodPtr
OFj:_emscripten_glBindProgramARB__wrapper
Mfc:__Z41Register_UnityEngine_CullingGroup_Disposev
Lpi:_PatternCompiler_EmitRepeat_m697083858
G2a:__ZN7Cubemap23VirtualRedirectTransferER19StreamedBinaryWriteILb0EE
sOa:__ZN25MultiBlocksMemoryFileData5WriteEyyPKv
i3d:_ResourceReader_Read7BitEncodedInt_m3568166465
v7c:_DefaultControls_CreateInputField_m1003102365
kIi:_CanvasGroup_set_alpha_m4032573
Smd:_Array_get_LongLength_m978104875
XBa:__ZL17ProgramUniform2fvPK7ApiGLESjiihPKv
IGj:b83
$Jc:__ZN20TextRenderingPrivate8FontImpl21HasCharacterInTextureEjijfPj
fkb:__ZNSt3__227__insertion_sort_incompleteIRPFbRK23TransformAccessReadOnlyS3_EPS1_EEbT0_S8_T_
ryg:_Transform_SetAsFirstSibling_m253439912
juf:_DateTime_System_IConvertible_ToUInt16_m4182197229_AdjustorThunk
uhf:_Interval_get_IsDiscontiguous_m3016063288
Fge:_SslStreamBase_get_CheckCertRevocationStatus_m2739906607
Awj:_htonl
Xta:__Z20GetBufferManagerGLESv
HGj:b82
Akf:_SHA512Managed_Sigma1_m922902398
WBb:__ZN18StreamedBinaryReadILb0EE21TransferSTLStyleArrayI31ArrayOfManagedObjectsTransfererEEvRT_17TransferMetaFlags
zua:__ZNSt3__26__treeI22DeviceStencilStateGLES14MemoryCompLessI18DeviceStencilStateENS_9allocatorIS1_EEE12__find_equalIS1_EERPNS_16__tree_node_baseIPvEESD_RKT_
Otc:__Z18Transfer_BlittableI8JSONReadLb0EtEvRK29SerializationCommandArgumentsR31RuntimeSerializationCommandInfo
DZ:__Z16GenerateTypeTreeRK6ObjectR8TypeTree24TransferInstructionFlags
OEf:_CultureInfo_CreateCulture_m1493441763
mlf:_TripleDES_IsWeakKey_m2147489852
Qy:__ZN34AnimationStateMachineMixerPlayable13EndTransitionEv
kI:__ZN12AudioManager21FixMasterGroupRoutingEv
o9a:__ZNK19ShaderPropertySheet11HasPropertyERKN9ShaderLab16FastPropertyNameE
KAj:dynCall_viffffii
bC:__ZN15AllocatorTraitsIN8Animator11AnimatorJobELb0EE13CopyConstructEPS1_RKS1_10MemLabelId
nVg:__Z81RuntimeInvoker_Boolean_t97287965_NavigationU26_t1807167253_Navigation_t3049316579PFvvEPK10MethodInfoPvPS4_
UHj:_emscripten_glUniform1fv__wrapper
qbd:_GridLayoutGroup_SetLayoutHorizontal_m2838109254
y7c:_Dropdown_RefreshShownValue_m2806045241
lob:__Z18Transfer_BlittableI14SafeBinaryReadLb1E4AABBEvRK29SerializationCommandArgumentsR31RuntimeSerializationCommandInfo
rgj:__ZN6il2cpp6icalls8mscorlib6System4Enum12get_hashcodeEP12Il2CppObject
Epj:_GC_set_no_dls
B5c:_ColorBlock_set_normalColor_m254595671_AdjustorThunk
$tj:__ZN6il2cpp8metadata26Il2CppGenericMethodCompare6EqualsEPK19Il2CppGenericMethodS4_
rqe:_InternalEnumerator_1_get_Current_m1007906068_gshared
cNi:__ZN15dense_hashtableINSt3__24pairIK10KeyWrapperIPK11Il2CppClassEPKcEES6_N6il2cpp5utils11PointerHashIS3_EEN14dense_hash_mapIS6_S9_SE_NS6_14EqualsComparerINS0_8equal_toIS5_EEEENS0_9allocatorISA_EEE9SelectKeyESJ_SL_E15set_deleted_keyERKSA_
Aud:_SimpleEnumerator_Reset_m1520014659
PG:__ZN9AudioClip7WWWOpenEPKciPjPPvS4_
cob:__Z18Transfer_BlittableI14SafeBinaryReadLb0E8Vector2fEvRK29SerializationCommandArgumentsR31RuntimeSerializationCommandInfo
Bce:_Context_set_ProtocolNegotiated_m2904861662
Xbj:__ZN15dense_hashtableINSt3__24pairIK10KeyWrapperINS1_IPKcS4_EEEiEES6_24NamespaceAndNamePairHashN14dense_hash_mapIS6_iS9_NS6_14EqualsComparerI26NamespaceAndNamePairEqualsEENS0_9allocatorIS8_EEE9SelectKeyESD_SF_E12resize_deltaEjj
BLe:_RemotingServices_GetRemoteObject_m2117098022
BIi:_CanvasRenderer_SetTexture_m1600559835
KWc:__ZN13dynamic_arrayIiLj4EE6insertEPiPKiS3_
Ahh:_Collection_1_System_Collections_IList_IndexOf_m4256072926_gshared
TEg:__Z132RuntimeInvoker_Boolean_t97287965_RuntimeObject_Int32_t2950945753_Int32_t2950945753_RuntimeObject_Int32_t2950945753_Int32_t2950945753PFvvEPK10MethodInfoPvPS4_
Bhc:__Z53Register_UnityEngine_Input_INTERNAL_get_mousePositionv
Qta:__ZN7ApiGLES12DrawElementsE16GfxPrimitiveTypePKvjjjj
L5e:_EncryptedPrivateKeyInfo_get_Salt_m3453455261
qvf:_DateTime__ParseNumber_m1240316250
Kof:_Single_System_IConvertible_ToSingle_m1939829239_AdjustorThunk
Hme:_InternalEnumerator_1_get_Current_m3839250771_gshared
okc:__Z66Register_UnityEngine_Transform_INTERNAL_CALL_InverseTransformPointv
qEf:_CultureInfo_get_TextInfo_m2342840448
FMf:_Array_InternalArray__IndexOf_TisMark_t3471605523_m2905388260_gshared
fd:_SDL_GetTicks
V_i:__ZN15dense_hashtableINSt3__24pairIK10KeyWrapperINS1_IPK11Il2CppImageP11Il2CppClassEEEjEES9_17ReflectionMapHashIS8_EN14dense_hash_mapIS9_jSD_NS9_14EqualsComparerINS0_8equal_toIS8_EEEENS0_9allocatorISB_EEE9SelectKeyESI_SK_E6insertERKSB_
yVb:__Z21CreateShadowCullerJobP30CreateUmbraShadowCullerJobData
i9h:_ReadOnlyCollection_1_System_Collections_Generic_ICollectionU3CTU3E_Remove_m4072504734_gshared
PBa:__ZL18ProgramUniform2uivPK7ApiGLESjiihPKv
k4c:_U3COnFinishSubmitU3Ec__Iterator0_MoveNext_m2729496168
uHj:_glUniform4iv__wrapper
ySb:__Z33GenerateShadowCasterPartsSortDataRK16ShadowCasterDatajRK15RenderNodeQueueRKNSt3__26vectorI20ShadowCasterPartData13stl_allocatorIS7_L18MemLabelIdentifier2ELi16EEEERK10Matrix4x4fRjP20ShadowCasterSortData
UKb:__ZZ23InitPlayerLoopCallbacksvEN51PostLateUpdateTriggerEndOfFrameCallbacksRegistrator7ForwardEv
Kbg:_TimeSpan_Compare_m753151303
jrb:__Z29Transfer_Blittable_ArrayFieldI14SafeBinaryRead9BoundsIntEvRT_R9ArrayInfoRK23StaticTransferFieldInfo
tyc:_cf2_computeDarkening
nJi:_AnimationLayerMixerPlayable__ctor_m860721801_AdjustorThunk
L1d:_MonoPropertyInfo_get_property_info_m1599555644
cgd:_DESTransform_CipherFunct_m3527261721
anj:_GC_expand_hp_inner
Odj:__ZNK15dense_hashtableI10KeyWrapperIP18Il2CppGenericClassES3_N6il2cpp8metadata22Il2CppGenericClassHashEN14dense_hash_setIS3_S6_NS3_14EqualsComparerINS5_25Il2CppGenericClassCompareEEENSt3__29allocatorIS3_EEE8IdentityESA_SD_E12test_deletedEj
Okc:__Z25Screen_Get_Custom_PropDpiv
jng:_UnityEventBase_RebuildPersistentCallsIfNeeded_m216788690
ukj:__ZN4utf812find_invalidIPKcEET_S3_S3_
BQe:_InputField_OnEndDrag_m4127187089
Hbi:_ReadOnlyCollection_1_System_Collections_IList_RemoveAt_m2555465054_gshared
Hnh:__ZL72RuntimeCompatibilityAttribute_t1169614002_CustomAttributesCacheGeneratorP21CustomAttributesCache
Pzf:_StackFrame__ctor_m343464319
wT:__ZN11UnityEngine15CloudWebService20WebRequestRestClient7PrepareEv
U0d:_MonoField_CheckGeneric_m453069507
OJc:__ZN20TextRenderingPrivate19NativeTextGenerator23FixLineHorizontalOffsetEiii
Gud:_SynchronizedArrayListWrapper_get_IsFixedSize_m3396437476
tNe:_ObjectReader_ReadArrayOfString_m3550800559
$Od:_MonoCustomAttrs_GetCustomAttributesInternal_m648304078
aA:__ZN7mecanim9animation19DestroyAnimationSetEPNS0_12AnimationSetERNS_6memory9AllocatorE
uCj:_emscripten_glDepthRange__wrapper
i0:__ZN14SerializedFile7ReleaseEv
mmb:__ZN16MemoryFileSystem4OpenER13FileEntryData14FilePermission16FileAutoBehavior
TDf:_CompareInfo_GetSortKey_m1915852346
dHc:_ft_var_load_avar
jfa:__ZN13RuntimeStaticI13RendererSceneLb0EE13StaticDestroyEPv
Fte:_DefaultComparer_Compare_m1297750557_gshared
AW:__ZN20DynamicHeapAllocatorI17LowLevelAllocatorE10ReallocateEPvji
qub:__Z18Transfer_BlittableI24GenerateTypeTreeTransferLb1E12PropertyNameEvRK29SerializationCommandArgumentsR31RuntimeSerializationCommandInfo
Syi:_Toggle_OnEnable_m1421694809
_cb:__ZN14SafeBinaryRead21TransferSTLStyleArrayI10vector_mapIPKN5Unity4TypeE7Hash128NSt3__24lessIS5_EENS7_9allocatorINS7_4pairIS5_S6_EEEEEEEvRT_17TransferMetaFlags
OG:__ZN9AudioClip18GetQueuedAudioDataEPPvj
dMc:__ZN20TextRenderingPrivate21TextMeshGeneratorImpl14GarbageCollectEv
tac:__ZNK9Texture2D17CheckHasPixelDataEv
rGi:_InputBuffer_DeleteCharacters_m244939457
dwb:__Z18Transfer_BlittableI19StreamedBinaryWriteILb0EELb0E9BoundsIntEvRK29SerializationCommandArgumentsR31RuntimeSerializationCommandInfo
tOb:__Z18SetShadowsKeywordsR17ShaderPassContext9LightType10ShadowType16ShadowProjectionbb
uad:_Graphic_GetPixelAdjustedRect_m3729397999
M2i:__ZN14dense_hash_mapI10KeyWrapperINSt3__24pairIPK12PropertyInfoP11Il2CppClassEEEj17ReflectionMapHashIS8_ENS9_14EqualsComparerINS1_8equal_toIS8_EEEENS1_9allocatorINS2_IKS9_jEEEEEC2EjRKSB_RKSF_
z6b:__ZN17CollisionMeshDataC2Ev
RCe:_Dictionary_2_ToTValue_m692436965_gshared
W4d:_Marshal_Copy_m1222846562
h4a:__ZN16LightmapSettings23VirtualRedirectTransferER19StreamedBinaryWriteILb0EE
XKb:__ZZ23InitPlayerLoopCallbacksvEN47PostLateUpdateMemoryFrameMaintenanceRegistrator7ForwardEv
Sta:__ZN7ApiGLES20SetVertexArrayAttribEjj12VertexFormathjPKv
vo:FUNCTION_TABLE_viiififii
Nnj:_GC_push_next_marked
Ihb:__ZN18IDCollectorFunctor18GenerateInstanceIDEi17TransferMetaFlags
w3h:_GameObject_GetComponent_TisRuntimeObject_m2049753423_gshared
_Gi:_TextGenerationSettings_Equals_m3618607189_AdjustorThunk
y8e:_NameObjectCollectionBase_BaseAdd_m3437748750
bdg:_Type_internal_from_handle_m3156085815
x7h:_ReadOnlyCollection_1_System_Collections_Generic_ICollectionU3CTU3E_Add_m69722965_gshared
yD:__ZN8Animator8TransferI19StreamedBinaryWriteILb0EEEEvRT_
F1:__ZNSt3__27__sort4IRNS_6__lessI14ObjectLoadDataS2_EEPS2_EEjT0_S6_S6_S6_T_
aNb:__ZNK25CameraStackRenderingState16GetCurrentCameraEv
OXe:_ScrollRect_get_rectTransform_m2442061719
x8b:__Z22PlayableValidityChecksRK9HPlayableb
Eeb:__ZN15ResourceManagerD2Ev
Bfc:__Z41Register_UnityEngine_Camera_GetAllCamerasv
zmg:_InvokableCall__ctor_m2158562079
$qi:_Assertion__ctor_m2128950829
TVc:__ZN28PerformanceReportingSettings8TransferI14SafeBinaryReadEEvRT_
$ib:__ZN15CacheWriterBase18GetAddressOfMemoryEv
ajd:_Buffer_BlockCopy_m2884209081
Wtc:__Z18Transfer_BlittableI8JSONReadLb1E5RectTIiEEvRK29SerializationCommandArgumentsR31RuntimeSerializationCommandInfo
g8i:__ZN6il2cpp2vm22EmbeddedResourceRecordC2ERKS1_
qIb:__ZL20DrawVBOChunkWithPassP6ShaderPN9ShaderLab4PassER17ShaderPassContextR10DynamicVBORK21DynamicVBOChunkHandle
Qdh:_Collection_1__ctor_m825528237_gshared
B2a:__ZN9Texture2D13AwakeFromLoadE17AwakeFromLoadMode
BJf:_SetPropertyUtility_SetStruct_TisColorBlock_t2139031574_m1748367426_gshared
Zqg:_PlayerConnection_get_instance_m1750121257
Lfj:__ZN6il2cpp2vm3RCW14QueryInterfaceILb0EEEP14Il2CppIUnknownP15Il2CppComObjectRK10Il2CppGuid
wni:_X509Store_get_Certificates_m56224934
Vza:__ZN6prcoreL17RemapGenericFloatI15TexFormatRFloat18TexFormatARGBFloatEEvPKNS_9InnerInfoE
vIg:__Z85RuntimeInvoker_Void_t1185182177_Int64_t3736567304_Int32_t2950945753_Int64_t3736567304PFvvEPK10MethodInfoPvPS4_
V9d:_CipherSuite__ctor_m2440635082
bjf:_RSAPKCS1KeyExchangeFormatter_SetRSAKey_m1477802943
Wmf:_EvidenceEnumerator_get_Current_m1264365535
QWc:__ZN11UnityEngine15PlatformWrapper20GetPlayerPrefsUInt64ERKN4core12basic_stringIcNS1_20StringStorageDefaultIcEEEEy
V4d:_Marshal_copy_from_unmanaged_m2834266824
XAj:dynCall_iiiifii
cSb:__ZN20ReflectionProbeCacheC2ER13BatchRendererR15RenderLoopStats
aug:_Rect_set_xMax_m1720695099_AdjustorThunk
hLg:__Z59RuntimeInvoker_Int32_t2950945753_DateTimeOffset_t3229287507PFvvEPK10MethodInfoPvPS4_
klb:__ZNK12HandlerChain6ExistsERK13FileEntryData
YCf:_Calendar__ctor_m106290643
OSb:__Z30FindDirectAttenuationFromProbeP18ForwardLightsBlockbiRK10RenderNodeRK23FindForwardLightsParamsf
Mac:__ZNSt3__26vectorIj13stl_allocatorIjL18MemLabelIdentifier1ELi16EEE6assignIPKjEENS_9enable_ifIXaasr21__is_forward_iteratorIT_EE5valuesr16is_constructibleIjNS_15iterator_traitsIS9_E9referenceEEE5valueEvE4typeES9_S9_
kcb:__ZN12InputManager23VirtualRedirectTransferER24GenerateTypeTreeTransfer
pkb:__ZN9Transform23VirtualRedirectTransferER24GenerateTypeTreeTransfer
kmc:__ZN12GUIClipState10BeginOnGUIER10InputEvent
Ana:__ZNSt3__26vectorIN9ShaderLab20SerializedSubProgram12UAVParameterENS_9allocatorIS3_EEE21__push_back_slow_pathIKS3_EEvRT_
MMg:__Z87RuntimeInvoker_RuntimeObject_Byte_t1134296376_RuntimeObject_RuntimeObject_RuntimeObjectPFvvEPK10MethodInfoPvPS4_
Ebe:_HandshakeMessage_Process_m810828609
yFc:_UNITY_tt_size_ready_bytecode
yIc:__ZN13TextRendering4FontD2Ev
Qsg:_Quaternion_Inverse_m1311579081
fLc:_UNITY_FT_Stream_Open
svb:__Z29Transfer_Blittable_ArrayFieldI24GenerateTypeTreeTransfer9BoundsIntEvRT_R9ArrayInfoRK23StaticTransferFieldInfo
abd:_GraphicRegistry__cctor_m1805310505
Vig:_Bounds_Equals_m3920299735
bXa:__ZN8keywords18KeywordSetToStringERK16ShaderKeywordSetRN4core12basic_stringIcNS3_20StringStorageDefaultIcEEEE
jYd:_GenericTypeParameterBuilder_GetGenericArguments_m2988765390
wBc:_otv_MATH_validate
FHg:__Z77RuntimeInvoker_Void_t1185182177_Int64_t3736567304_ResourceInfoU26_t1611441338PFvvEPK10MethodInfoPvPS4_
oF:__ZN4FMOD3DSP12setParameterEif
bGb:__ZN13MemoryManager16StaticInitializeEv
sEf:_CultureInfo_Equals_m1360976324
lf:___cxa_free_exception
DLh:__ZL69PersistentCall_t3407714124_CustomAttributesCacheGenerator_m_CallStateP21CustomAttributesCache
sJ:__ZN4FMOD22FakeModChannelCallbackEPv
MZc:_BaseInput_get_compositionString_m1887614380
rf:_emscripten_glValidateProgram
PVa:__ZN4Mesh10CreateMeshEv
Bid:_RijndaelManagedTransform__ctor_m1033522223
Puf:_DateTime_CompareTo_m3889078633
Wyc:_cf2_stack_clear
YDd:_NumberFormatter_set_CurrentCulture_m1358228087
vXb:__ZN7Texture13SetAnisoLevelEi
KR:__ZNSt3__26__treeINS_12__value_typeIN4core12basic_stringIcNS2_20StringStorageDefaultIcEEEEjEENS_19__map_value_compareIS6_S7_NS_4lessIS6_EELb1EEE13stl_allocatorIS7_L18MemLabelIdentifier88ELi16EEE7destroyEPNS_11__tree_nodeIS7_PvEE
K6:__ZN19EndOfFrameCallbacks7EnqueueEP18EndOfFrameCallbackb
Aog:_Input_set_compositionCursorPos_m1909373301
WKc:_raccess_guess_vfat
uJg:__Z78RuntimeInvoker_IntPtr_t_SByte_t1669577662_RuntimeObject_BooleanU26_t4125257963PFvvEPK10MethodInfoPvPS4_
fSc:__Z44Canvas_CUSTOM_GetETC1SupportedCanvasMaterialv
Iyf:_Decimal_decimalSetExponent_m3707787243
m9:__ZN33InstancedMeshIntermediateRenderer13StaticDestroyEPv
Xaj:__ZN14dense_hash_mapI10KeyWrapperIP14Il2CppIUnknownEjN6il2cpp5utils11PointerHashIS1_EENS3_14EqualsComparerINSt3__28equal_toIS2_EEEENS9_9allocatorINS9_4pairIKS3_jEEEEE13set_empty_keyERSF_
Hva:__ZN15dense_hashtableINSt3__24pairIK9TextureIDiEES2_14GfxGenericHashIS2_EN14GfxDoubleCacheIS2_iS6_NS0_8equal_toIS2_EEN31GfxDoubleCacheConcurrencyPolicy11LocklessGetE42GfxDoubleCacheDefaultEmptyDeletedGeneratorIS2_EE9SelectKeyES9_13stl_allocatorIS4_L18MemLabelIdentifier24ELi16EEE12resize_deltaEjj
PTa:__Z21DestroyShadowMapCacheP14ShadowMapCache
yx:__ZN7mecanim9animation25CreateControllerWorkspaceEPKNS0_18ControllerConstantERNS_6memory9AllocatorE
K2h:_Array_InternalArray__get_Item_TisLabelFixup_t858502054_m3276643490_gshared
k2i:__ZN15dense_hashtableINSt3__24pairIK10KeyWrapperIPK10Il2CppTypeEjEES6_N6il2cpp8metadata14Il2CppTypeHashEN14dense_hash_mapIS6_jSB_NS6_14EqualsComparerINSA_26Il2CppTypeEqualityComparerEEENS0_9allocatorIS8_EEE9SelectKeyESF_SH_E14squash_deletedEv
e9i:__ZN6il2cpp2vm13LivenessState5ResetEv
eqc:__ZN9JSONWrite8TransferI11KeyframeTplIfEEEvRT_PKc17TransferMetaFlags
nyd:_SortedList_GetImpl_m3689246167
$6h:_ReadOnlyCollection_1_System_Collections_Generic_IListU3CTU3E_set_Item_m3209059215_gshared
Swa:__ZN24BuiltinShaderParamValuesC2Ev
Ili:_PKCS12_Decode_m163534693
tqc:__ZL41CreateJSONTransferFunctionScriptingTraitsv
fha:__ZN6Shader23VirtualRedirectTransferER14SafeBinaryRead
Pxc:_cff_glyph_load
dAg:_WaitForSecondsRealtime_get_keepWaiting_m846832224
oji:_ObjectPool_1_get_countActive_m807006650_gshared
dEb:__Z23GetLateBehaviourManagerv
sGg:__Z33RuntimeInvoker_Single_t1397266774PFvvEPK10MethodInfoPvPS4_
rqb:__ZN14SafeBinaryRead21TransferSTLStyleArrayINSt3__26vectorI8Gradient13stl_allocatorIS3_L18MemLabelIdentifier1ELi16EEEEEEvRT_17TransferMetaFlags
TX:__ZN10MemoryPool10DeallocateEPv
ymc:__ZN8GUIState8SetEventERK10InputEvent
WQg:__Z80RuntimeInvoker_Void_t1185182177_ScriptableRenderContext_t274343796_RuntimeObjectPFvvEPK10MethodInfoPvPS4_
BAj:dynCall_vif
CAj:dynCall_vid
xBd:_Convert_ToSByte_m4075629912
DAj:dynCall_vii
h5e:_KeyPairPersistence_FromXml_m746585742
Zrf:_Decoder__ctor_m4046021500
LBb:__Z18Transfer_BlittableI18StreamedBinaryReadILb0EELb0EdEvRK29SerializationCommandArgumentsR31RuntimeSerializationCommandInfo
l4c:_ColorBlock_get_fadeDuration_m121071467
bUi:__ZN6il2cpp6icalls8mscorlib6System8MonoType18GetFields_internalEP20Il2CppReflectionTypeiS5_
q2:__ZN5Unity9Component16CheckConsistencyEv
C1d:_MonoMethod_get_ContainsGenericParameters_m3860345224
R4:__ZN19ShaderPropertySheet37CreateTextureAuxPropertyUninitializedEN9ShaderLab16FastPropertyNameES1_PKc
Hwb:__ZL26Transfer_SimpleNativeClassI19StreamedBinaryWriteILb0EE10RectOffsetLb1EEvRK29SerializationCommandArgumentsR31RuntimeSerializationCommandInfo
uKj:b128
FZi:__ZN15dense_hashtableINSt3__24pairIK10KeyWrapperIPK10Il2CppTypeEjEES6_N6il2cpp8metadata14Il2CppTypeHashEN14dense_hash_mapIS6_jSB_NS6_14EqualsComparerINSA_26Il2CppTypeEqualityComparerEEENS0_9allocatorIS8_EEE9SelectKeyESF_SH_E3endEv
fsa:__ZN13GfxDeviceGLES17SetGpuProgramNameEP10GpuProgramPKc
JT:__ZNK11UnityEngine15CloudWebService25WebRequestDownloadHandler11GetProgressEv
GWa:__Z43IsVertexFormatCompatibleWithDynamicBatchingRK14VertexDataInfo
NNf:_Array_InternalArray__ICollection_Add_TisMonoResource_t4103430009_m2699164149_gshared
pSi:__ZN6il2cpp2vm13MetadataCache28GetMethodDefinitionFromIndexEi
Yij:__ZN6il2cpp2os20FileErrnoToErrorCodeEi
M$a:__ZN14SafeBinaryRead19TransferSTLStyleMapINSt3__23mapI39DeprecatedFastPropertyNameSerialization10ColorRGBAfNS1_4lessIS3_EENS1_9allocatorINS1_4pairIKS3_S4_EEEEEEEEvRT_17TransferMetaFlags
kxf:_Decimal_ThrowAtPos_m1170269346
VGh:__ZL98GameObject_t1113636619_CustomAttributesCacheGenerator_GameObject_SendMessage_m3720186693____value1P21CustomAttributesCache
ah:_atexit
yZe:_Selectable_set_image_m3625164794
Lqe:_InternalEnumerator_1_get_Current_m1232221964_gshared
Rai:_ReadOnlyCollection_1_System_Collections_Generic_IListU3CTU3E_Insert_m1818924748_gshared
N0i:__ZN6il2cpp2vmL31GetObjectForMissingDefaultValueEj
z3c:_AspectRatioFitter__ctor_m2468506840
mTc:__ZN11UnityEngine15PlatformWrapper30GetVRPlayAreaBoundaryDimensionEv
Hmi:_X509Certificate_get_Hash_m410033711
Xja:__ZN9ShaderLab14SerializedPassC2ERKS0_
Cqc:__Z35Transfer_Blittable_FixedBufferFieldI9JSONWritehEvRK29SerializationCommandArgumentsR31RuntimeSerializationCommandInfo
l:STACKTOP
aBc:_cff_get_name_index
y4a:__ZN21EnlightenSceneMapping16BuildRemapTablesEv
x9b:__ZN17TransformInternal27UpdateDeepChildCountUpwardsER18TransformHierarchyii
L$c:_ExecuteEvents_Execute_m3613826831
n7c:_Image_set_type_m2038193736
A:tempBigIntD
TWb:__ZNK25CameraStackRenderingState25CalculateCameraTargetTypeEv
c_d:_PropertyBuilder_GetSetMethod_m128670376
y:tempBigIntR
x:tempBigIntS
w:tempBigIntP
rn:FUNCTION_TABLE_viffi
eLd:_MemoryStream_SetLength_m974389318
J1:__ZN6Object18RegisterInstanceIDEPS_
Xtb:__Z18Transfer_BlittableI24GenerateTypeTreeTransferLb1EsEvRK29SerializationCommandArgumentsR31RuntimeSerializationCommandInfo
hfj:__ZN15dense_hashtableINSt3__24pairIK10KeyWrapperIP12Il2CppObjectEN6il2cpp2gc9CachedCCWEEES5_NS7_5utils11PointerHashIS3_EEN14dense_hash_mapIS5_S9_SD_NS5_14EqualsComparerINS0_8equal_toIS4_EEEENS0_9allocatorISA_EEE9SelectKeyESI_SK_E11set_deletedER30dense_hashtable_const_iteratorISA_S5_SD_SM_SI_SK_E
lpa:__ZNK9GfxDevice18GetWorldViewMatrixEv
KTg:__Z70RuntimeInvoker_Single_t1397266774_Single_t1397266774_Int32_t2950945753PFvvEPK10MethodInfoPvPS4_
rNb:__Z20LookRotationToMatrixRK8Vector3fS1_P10Matrix3x3f
UBd:_Convert_ToUInt16_m3902921832
LSd:_Assembly_GetTypes_m1724781913
Sqh:__ZL54TypeBuilder_t1073948154_CustomAttributesCacheGeneratorP21CustomAttributesCache
slj:__ZN6il2cpp6icalls8mscorlib6System7Convert17Base64ToByteArrayEPDsib
Lub:__ZL12InvokeMethodI24GenerateTypeTreeTransferEvRK29SerializationCommandArgumentsR31RuntimeSerializationCommandInfo
A2f:_List_1_AddEnumerable_m376418521_gshared
RMg:__Z79RuntimeInvoker_Void_t1185182177_Byte_t1134296376_Byte_t1134296376_RuntimeObjectPFvvEPK10MethodInfoPvPS4_
wPi:__ZNSt3__218__insertion_sort_3IRN6il2cpp5utils11collections13ArrayValueMapIPK10Il2CppType17Il2CppInteropData26InteropDataToTypeConverterNS1_8metadata14Il2CppTypeLessENSA_26Il2CppTypeEqualityComparerEE12SortComparerEPS8_EEvT0_SH_T_
ppa:__ZNK9GfxDevice25GetDeviceProjectionMatrixEv
ma:invoke_iidiii
bub:__Z18Transfer_BlittableI24GenerateTypeTreeTransferLb1EtEvRK29SerializationCommandArgumentsR31RuntimeSerializationCommandInfo
JP:__ZN12AudioManager33GetCurrentAmbisonicDefinitionNameE31UnityAudioEffectDefinitionFlags
Mcc:__ZN11UTF16StringC2EPKc10MemLabelId
Zbc:__ZN10systeminfo24GetRuntimePlatformStringEv
bJd:_MonoIO_DeleteFile_m3839141322
kKa:__ZN10SpookyHash5ShortEPKvjPyS2_
Hgj:__ZN6il2cpp6icalls8mscorlib6System6String22RedirectToCreateStringEv
Fqh:__ZL99ILGenerator_t1388622344_CustomAttributesCacheGenerator_ILGenerator_Mono_GetCurrentOffset_m993338688P21CustomAttributesCache
mTe:_LayoutRebuilder_ReapplyDrivenProperties_m2581469389
Ksg:_PropertyName_op_Implicit_m1633828199
f5:__ZN9ShaderLab6TexEnvC2ERKNS_25SerializedTexturePropertyE
aRe:_InputField_Append_m687033660
iRa:__ZN9Transform32SetLocalScaleWithoutNotificationERKN4math7_float3Ey
Y_a:__ZN19ShaderPropertySheet38CopyTextureWithAuxiliaryPropertiesFromERKN9ShaderLab16FastPropertyNameERKS_
MJc:__ZN20TextRenderingPrivate19NativeTextGeneratorD2Ev
USi:__ZN6il2cpp2vm19SocketPollingThread14DequeueRequestEv
Eij:__ZL10RevealLinkPv
htf:_DateTime__ctor_m12900168_AdjustorThunk
nce:_ClientSessionCache_FromContext_m343076119
Gi:___cxa_end_catch
glf:_ToBase64Transform_TransformBlock_m2497349397
P8e:_NameValueCollection_Add_m2418530856
GKe:_ReturnMessage_get_MethodSignature_m399735125
nSc:__Z43Register_UnityEngine_Canvas_set_scaleFactorv
Z0e:_SortKeyBuffer_AppendLevel5_m3963841125
hti:_PositionAssertion_Compile_m2500980346
dud:_ArrayListWrapper_ToArray_m3192696690
XKc:_raccess_guess_linux_cap
dQ:__Z36AudioSource_Get_Custom_PropIsPlayingP12Il2CppObject
XBb:__Z19TransferField_ArrayI18StreamedBinaryReadILb0EE27Converter_UnityEngineObjectEvRK23StaticTransferFieldInfoR31RuntimeSerializationCommandInfoRT0_
Dod:_Attribute_GetCustomAttribute_m4034845276
xpc:__ZNK5Unity9rapidjson12GenericValueINS0_4UTF8IcEE13JSONAllocatorE6AcceptINS0_12PrettyWriterI16TempBufferWriterS3_S3_S4_EEEEbRT_
$9:__Z33InitializeBuiltinShaderParamNamesv
zdg:_Type_GetConstructor_m2219014380
i5c:_CanvasUpdateRegistry_SortLayoutList_m471948466
Q2:__ZNK16TypeTreeIterator4TypeEv
XJb:__ZN10FileSystem25MountDataFolderFileSystemERKN4core12basic_stringIcNS0_20StringStorageDefaultIcEEEES6_
cjd:_ArgumentOutOfRangeException__ctor_m282481429
Hvi:_GUILayoutUtility_Internal_MoveWindow_m3463958180
pj:_glGetUniformLocation
Iqa:__ZN13GfxDeviceGLES32CreateColorRenderSurfacePlatformEP17RenderSurfaceBase19RenderTextureFormat
vG:__ZN12AudioManager24CreateFMODSoundFromMovieEP9AudioClip
oRi:__ZN6il2cpp2vm13MetadataCache24GetGenericInstanceMethodEPK10MethodInfoPK20Il2CppGenericContext
knj:_GC_hblk_fl_from_blocks
J0d:_MonoField_GetParentType_m2478933781
Y0:__Z24ConvertSeparatorsToUnityPc
d0i:__ZN6il2cpp2gc19AppendOnlyGCHashMapINSt3__24pairIPK9EventInfoP11Il2CppClassEEP21Il2CppReflectionEvent17ReflectionMapHashIS9_ENS2_8equal_toIS9_EEE3AddERKS9_SB_
Nbh:_Collection_1_System_Collections_ICollection_CopyTo_m46221116_gshared
T6i:__ZN6il2cpp2vm6Thread20FreeThreadStaticDataEP12Il2CppThread
XLf:_Array_InternalArray__IndexOf_TisClientCertificateType_t1004704908_m3457772631_gshared
rAg:__Z28RuntimeInvoker_RuntimeObjectPFvvEPK10MethodInfoPvPS4_
kzc:_cf2_glyphpath_finalize
Vwh:__ZL56SecurityAction_t569814076_CustomAttributesCacheGeneratorP21CustomAttributesCache
Mlf:_X509Certificate_GetPublicKey_m4184729161
Htd:_ArrayListWrapper_set_Capacity_m2373297383
vQe:_Text_get_cachedTextGenerator_m2506989875
_Aj:dynCall_viififi
o$f:_Enumerator_System_Collections_IEnumerator_Reset_m502339360_AdjustorThunk
Boh:__ZL58DictionaryEntry_t3123975638_CustomAttributesCacheGeneratorP21CustomAttributesCache
lHi:_TextGenerator_GetVerticesInternal_m3222977969
T5g:_List_1_RemoveAt_m4279084788_gshared
MEc:_UNITY_FT_Stream_Free
G6i:__ZN15dense_hashtableINSt3__24pairIK10KeyWrapperINS1_IP11Il2CppClassjEEES4_EES6_N6il2cpp8metadata14ArrayClassHashEN14dense_hash_mapIS6_S4_SB_NS6_14EqualsComparerINSA_17ArrayClassCompareEEENS0_9allocatorIS8_EEE9SelectKeyESF_SH_E12maybe_shrinkEv
zfd:_CryptoConfig_EncodeLongNumber_m4127306320
ESg:__Z87RuntimeInvoker_Void_t1185182177_Single_t1397266774_Single_t1397266774_SByte_t1669577662PFvvEPK10MethodInfoPvPS4_
sae:_CipherSuite_createEncryptionCipher_m2533565116
SR:__ZN11UnityEngine15CloudWebService14DataDispatcher25OnDataBlockConsumedStaticEPv
R4g:_List_1_CheckIndex_m3044940639_gshared
hAg:_GenericStack__ctor_m933681517
hAb:__Z29Transfer_Blittable_ArrayFieldI18StreamedBinaryReadILb1EE11QuaternionfEvRT_R9ArrayInfoRK23StaticTransferFieldInfo
wOd:_Math_Max_m482125436
PDe:_ActivatedServiceTypeEntry_ToString_m1591455874
cnf:_SecurityElement_ToXml_m3664345083
ZPf:_Array_InternalArray__Insert_TisParameterModifier_t1461694466_m3664994573_gshared
H:Math_pow
mqg:_Mesh_get_tangents_m3279676290
yia:__Z14resize_trimmedINSt3__26vectorIN9ShaderLab20SerializedSubProgram16SamplerParameterENS0_9allocatorIS4_EEEEEvRT_j
lsg:_PlayableHandle_GetPlayableType_Injected_m686992718
KZe:_Shadow_set_effectColor_m3910676693
Sxj:__ZNSt3__212basic_stringIcNS_11char_traitsIcEENS_9allocatorIcEEE6insertEjPKcj
vqc:__Z44InitializeTransferFunctionScriptingTraitsForI8JSONReadEvR31TransferFunctionScriptingTraits
LIb:__ZNSt3__27__sort4IRNS_4lessIN22BuiltinResourceManager8ResourceEEEPS3_EEjT0_S7_S7_S7_T_
e8e:_ListDictionary_Add_m3918308031
Yej:__ZNK15dense_hashtableINSt3__24pairIK10KeyWrapperIP12Il2CppObjectEN6il2cpp2gc9CachedCCWEEES5_NS7_5utils11PointerHashIS3_EEN14dense_hash_mapIS5_S9_SD_NS5_14EqualsComparerINS0_8equal_toIS4_EEEENS0_9allocatorISA_EEE9SelectKeyESI_SK_E23find_position_with_hashERS6_j
cQe:_Selectable_OnDisable_m3225138518
tGc:_UNITY_tt_face_get_location
xyi:_AesManaged_CreateEncryptor_m1611897367
trc:__ZL26Transfer_SimpleNativeClassI9JSONWrite17AnimationCurveTplIfELb0EEvRK29SerializationCommandArgumentsR31RuntimeSerializationCommandInfo
kYb:__ZN10GameObject34AddFirstTransformComponentInternalEP9Transform
Ofc:__Z31Cursor_Get_Custom_PropLockStatev
u8:__ZNSt3__26__treeINS_12__value_typeINS_4pairIPcS3_EENS_3setIS3_15compare_tstringIPKcENS_9allocatorIS3_EEEEEENS_19__map_value_compareIS4_SD_20smaller_tstring_pairIS8_ELb1EEENSA_ISD_EEE7destroyEPNS_11__tree_nodeISD_PvEE
VM:__ZN12AudioManager29GetCurrentAmbisonicDefinitionE31UnityAudioEffectDefinitionFlags
ngc:__Z52Register_UnityEngine_GameObject_GetComponentInParentv
jdb:__ZN15SerializeTraitsINSt3__24pairIPKN5Unity4TypeE7Hash128EEE8TransferI14SafeBinaryReadEEvRS7_RT_
Hmj:_GC_number_stack_black_listed
Myf:_Decimal_ToString_m4018746482_AdjustorThunk
xVb:__Z37GenerateCombinedDynamicVisibleListJobP11CullResults
EDe:_Dictionary_2_ToTKey_m2055624458_gshared
l6a:__ZNK13ScreenManager21GetCursorInsideWindowEv
dUd:_CustomAttributeData_GetCustomAttributes_m1033457578
c5d:_SafeHandle_DangerousAddRef_m614714386
xSb:__Z20IntersectAABBFrustumRK4AABBPK5Planej
CYe:_ScrollRect_OnDrag_m688583138
d7b:__ZN13RenderManager15InitializeClassEv
Kqb:__ZN15SerializeTraitsI12PropertyNameE8TransferI14SafeBinaryReadEEvRS0_RT_
W4h:_ReadOnlyCollection_1_System_Collections_IList_IndexOf_m3120991897_gshared
YIe:_Header__ctor_m1921907550
E_e:_Slider_FindSelectableOnUp_m4062600878
Srd:_Convert_ToSByte_m1350241137
epg:_Material_SetIntImpl_m724477324
x7:__GLOBAL__sub_I_runtime_baseclasses_2_cpp
Csc:__ZN9JSONWrite8TransferI11ColorRGBA32EEvRT_PKc17TransferMetaFlags
ivc:__Z22TransferField_NonArrayI8JSONRead27Converter_SimpleNativeClassI8GradientEEvRK23StaticTransferFieldInfoR31RuntimeSerializationCommandInfoRT0_
fFb:__ZN10MonoScript13AwakeFromLoadE17AwakeFromLoadMode
rhf:_Interval__ctor_m4022869013
Qpd:_Boolean_System_IConvertible_ToUInt16_m3465173538
RPa:__ZN10MemoryFile21CreateFileSystemEntryE10MemLabelId14FilePermissionPvjb
DFa:__ZNK18GfxFramebufferGLES15DiscardContentsER12ObjectHandleI17RenderSurface_TagP17RenderSurfaceBaseE
u7d:_ARC4Managed_KeySetup_m2449315676
jSi:__ZN6il2cpp2vm13MetadataCache27GetEventDefinitionFromIndexEi
kCd:_Convert_ToUInt64_m92315402
Jrc:__Z18Transfer_BlittableI9JSONWriteLb1EdEvRK29SerializationCommandArgumentsR31RuntimeSerializationCommandInfo
bFj:_glGetIntegerv__wrapper
ine:_InternalEnumerator_1_System_Collections_IEnumerator_get_Current_m435848551_gshared
o3:__ZN10GameObject28FinalizeAddComponentInternalEPN5Unity9ComponentE
sVh:__ZL57Image_t2670269651_CustomAttributesCacheGenerator_m_SpriteP21CustomAttributesCache
B3a:__ZN9Texture2DD2Ev
NAi:_AudioExtensionManager_GetReadyToPlay_m1557263244
HBd:_Convert_ToSingle_m164367433
L2h:_Array_InternalArray__get_Item_TisILTokenInfo_t2325775114_m3110830457_gshared
oAd:_Convert_ToDecimal_m1284410333
Xjg:_Camera_INTERNAL_CALL_RaycastTry2D_m3172975827
Mvf:_DateTime_CheckStyle_m1392838900
Hkd:_SmallXmlParser_ReadUntil_m2715581630
m8e:_NameObjectCollectionBase__ctor_m2090733912
igf:_Group__cctor_m2230627219
oHf:_Array_InternalArray__ICollection_Contains_TisDouble_t594665363_m1696010878_gshared
Jo:FUNCTION_TABLE_viiiffi
f9d:_RSAManaged_EncryptValue_m4149543654
Pq:__ZN13dynamic_arrayIhLj1EE18resize_initializedEjRKh12ResizePolicy
uda:__ZN27IntermediateRendererManagerD2Ev
Rhb:__ZN17PersistentManager27GetLoadErrorMessageFromPathERKN4core12basic_stringIcNS0_20StringStorageDefaultIcEEEE
yli:_NetscapeCertTypeExtension_ToString_m1800688476
cm:_glGenRenderbuffers
K8i:__ZN6il2cpp6icalls8mscorlib6System2IO6MonoIO19GetCurrentDirectoryEPi
Ivg:_Renderer_get_sortingOrder_m344607889
kTb:__Z21IntersectSegmentPlaneRK8Vector3fS1_RK5PlanePS_
JIg:__Z81RuntimeInvoker_Void_t1185182177_Int64_t3736567304_RuntimeObject_Int32_t2950945753PFvvEPK10MethodInfoPvPS4_
LZh:__ZL50Outline_t2536100125_CustomAttributesCacheGeneratorP21CustomAttributesCache
Ldb:__ZN14PlayerSettings23VirtualRedirectTransferER17RemapPPtrTransfer
lui:_Uri_get_IsFile_m2450018824
Kba:__ZN14CachingManager7DisposeEv
LM:__ZN12AudioManager31GetCurrentSpatializerDefinitionEv
M7e:_HybridDictionary_Add_m912320053
nbb:__ZN12MeshRenderer16UpdateCachedMeshEv
Hxi:_KeyBuilder_IV_m3340234014
qqb:__Z19TransferField_ArrayI14SafeBinaryRead27Converter_SimpleNativeClassI8GradientEEvRK23StaticTransferFieldInfoR31RuntimeSerializationCommandInfoRT0_
LTf:_DefaultComparer_Equals_m1163494476_gshared
hIf:_Array_InternalArray__ICollection_Remove_TisDictionaryEntry_t3123975638_m3699186409_gshared
MRd:_Object_Equals_m1397037629
Xy:__ZNK27StateMachineBehaviourPlayer25FireStateMachineBehaviourEiiN7mecanim12statemachine19StateMachineMessageE
uig:_AsyncOperation_t1445031843_marshal_pinvoke_back
Y7:__GLOBAL__sub_I_runtime_utilities_4_cpp
Dtg:_Rect_get_center_m138276653
PXb:__ZN6Camera15SetOrthographicEb
TAc:_UNITY_FT_Stream_GetUShort
wpa:__ZN13GfxDeviceGLES14DisableScissorEv
DMg:__Z240RuntimeInvoker_RuntimeObject_Int16_t2552820387_RuntimeObject_Int32_t2950945753_Int32_t2950945753_Int32_t2950945753_SByte_t1669577662_SByte_t1669577662_SByte_t1669577662_SByte_t1669577662_Int16_t2552820387_SByte_t1669577662_SByte_t1669577662PFvvEPK10MethodInfoPvPS4_
ajg:_Bounds_get_size_m1178783246_AdjustorThunk
qHc:_tt_get_var_blend
QFg:__Z64RuntimeInvoker_Double_t594665363_RuntimeObject_Int32_t2950945753PFvvEPK10MethodInfoPvPS4_
Gke:_InternalEnumerator_1_System_Collections_IEnumerator_get_Current_m2141782011_AdjustorThunk
oyf:_Decimal_decimalMult_m3812462972
Oee:_RecordProtocol_BeginSendRecord_m615249746
Cc:_glVertexAttrib4f
_1f:_Enumerator_System_Collections_IEnumerator_get_Current_m209407522_AdjustorThunk
Tlg:_Display_get_systemHeight_m730809466
j3f:_List_1_System_Collections_IList_Insert_m4074493513_gshared
ZIc:__ZNSt3__26vectorINS_4pairINS1_IttEEfEENS_9allocatorIS3_EEE8__appendEj
hui:_Uri_GetOpaqueWiseSchemeDelimiter_m1909471550
joj:_GC_set_hdr_marks
gWa:__Z17SetupObjectMatrixRK10Matrix4x4fi
JRf:_Dictionary_2_OnDeserialization_m1254782141_gshared
x8:__ZN13RuntimeStaticINSt3__23mapINS0_4pairIPcS3_EEPFbPvR14SafeBinaryReadE20smaller_tstring_pairIPKcENS0_9allocatorINS2_IKS4_S9_EEEEEELb0EE13StaticDestroyES5_
KJd:_FileStream_FlushBufferIfDirty_m4249802951
due:_DefaultComparer_Compare_m1916473435_gshared
vBd:_Convert_ToSByte_m2653811524
DKc:_open_face
N5b:__ZZL31RegisterOtherRendererPropertiesR22GenericPropertyBindingEN30Wrapper_RendererReceiveShadows13SetFloatValueEPvf
GQc:__Z17RegisterModule_UIv
tA:__ZN8Animator24SortJobsBasedOnHierarchyERK13dynamic_arrayINS_11AnimatorJobELj8EERS0_IS2_Lj4EE
ePd:_MonoCustomAttrs_GetCustomAttributes_m1347331976
Iqg:_Mesh_Clear_m2630385472
iGg:__Z46RuntimeInvoker_RuntimeObject_Int16_t2552820387PFvvEPK10MethodInfoPvPS4_
nqa:__ZN9GfxDevice24CreateRenderDepthSurfaceE9TextureIDiiii16TextureDimension17DepthBufferFormat18SurfaceCreateFlags
HHe:_SynchronizationAttribute_set_Locked_m2760363037
pDd:_Int16_Equals_m82811458
P8d:_PrivateKeyInfo_Decode_m986145117
Fug:_RectOffset_get_top_m2855347295
nG:__ZN4FMOD5Sound11setUserDataEPv
Bha:__ZN14SafeBinaryRead21TransferSTLStyleArrayINSt3__26vectorIN9ShaderLab19SerializedSubShaderENS1_9allocatorIS4_EEEEEEvRT_17TransferMetaFlags
Z$c:_ExecuteEvents_Execute_m533210008
hFg:__Z137RuntimeInvoker_Void_t1185182177_Int32_t2950945753_RuntimeObject_RuntimeObject_RuntimeObject_RuntimeObject_RuntimeObject_SByte_t1669577662PFvvEPK10MethodInfoPvPS4_
KGf:_Guid_op_Equality_m4289903222
Rw:__ZN27AnimationLayerMixerPlayable13SetInputCountEi
mPa:__ZNK25SingleBlockMemoryFileData4SizeEv
dB:__ZN9BlobWrite8TransferIN7mecanim12statemachine18StateMachineMemoryEEEvRT_PKc17TransferMetaFlags
lK:__ZL50UnityAudioEffect_InternalSetFloatParameterCallbackP14FMOD_DSP_STATEif
Fej:__ZNK15dense_hashtableINSt3__24pairIK10KeyWrapperIP12Il2CppObjectEN6il2cpp2gc9CachedCCWEEES5_NS7_5utils11PointerHashIS3_EEN14dense_hash_mapIS5_S9_SD_NS5_14EqualsComparerINS0_8equal_toIS4_EEEENS0_9allocatorISA_EEE9SelectKeyESI_SK_E3endEv
kuf:_DateTime_System_IConvertible_ToUInt32_m3781235049
kGi:_Hacker_ASCIIart1_m3898008558
gCg:__Z92RuntimeInvoker_Int32_t2950945753_RuntimeObject_RuntimeObject_SByte_t1669577662_RuntimeObjectPFvvEPK10MethodInfoPvPS4_
sGd:_Int64_System_IConvertible_ToType_m3223988955
rUb:__ZN14qsort_internal5QSortIP16RenderObjectDatai25RenderPrePassObjectSorterEEvT_S4_T0_T1_
Kkf:_SymmetricAlgorithm_Dispose_m1120980942
Bba:__ZL19StaticCleanupPlayerPv
fPd:_MonoCustomAttrs_RetrieveAttributeUsage_m2717094301
xId:_DirectoryInfo_Initialize_m1389772934
F8b:__ZN13PlayableGraph4StopEv
Qhg:_AnimationCurve_Init_m425927913
iL:__ZN12AudioManager37RebindAudioSourcesAndSubMixersToMixerEP10AudioMixer
RJa:__ZN9Behaviour10DeactivateE19DeactivateOperation
TSe:_LayoutGroup_DelayedSetDirty_m2562435574
a2a:__ZN13StreamingInfo8TransferI14SafeBinaryReadEEvRT_
cia:__ZN15dense_hashtableINSt3__24pairIKiN4core17string_with_labelILi1EEEEEi18SInt32HashFunctionN14dense_hash_mapIiS5_S7_NS0_8equal_toIiEE13stl_allocatorIS6_L18MemLabelIdentifier1ELi16EEE9SelectKeyESA_SD_E15insert_noresizeERKS6_
lij:__ZN6il2cpp2vmL22RaiseOverflowExceptionEv
Pp:__Z23CalculateGlobalRotation23TransformAccessReadOnly
Hma:__ZNK9ShaderLab7Program11IsSupportedEPK6Shader
M$:__ZNK4core8hash_mapIPKcPK4RTTIN11TypeManager23ConstCharPtrHashFunctorENS6_19ConstCharPtrEqualToEE6lookupERKS2_
w_d:_TypeBuilder_GetMethodImpl_m3583143647
PYh:__ZL54LayoutGroup_t2436138090_CustomAttributesCacheGeneratorP21CustomAttributesCache
axj:_strcat
K5b:__Z43InitializeRendererAnimationBindingInterfacev
Saa:__ZL26DestroyGameObjectRecursiveR10GameObjectR11BatchDelete
Aoj:_GC_allochblk_nth
XZc:_BaseInput_get_touchSupported_m2634027966
IYe:_ScrollRect_get_vScrollingNeeded_m1717136831
Yxi:_SymmetricTransform_FinalEncrypt_m748885414
Y4b:__Z7HaloTexP9Texture2DPhiiii
KBj:dynCall_i
brb:__ZN14SafeBinaryRead21TransferSTLStyleArrayI13dynamic_arrayIxLj8EEEEvRT_17TransferMetaFlags
YAj:dynCall_f
b8e:_ListDictionary_GetEnumerator_m3395631195
Cub:__Z35Transfer_Blittable_FixedBufferFieldI24GenerateTypeTreeTransferjEvRK29SerializationCommandArgumentsR31RuntimeSerializationCommandInfo
i5e:_KeyPairPersistence_Save_m3111435398
qAj:dynCall_v
ODa:__ZN7ApiGLES14TextureSamplerEjjRK24GfxTextureSamplingParams17TextureColorSpace
eyd:_SortedList_System_Collections_IEnumerable_GetEnumerator_m2738760439
j7i:__ZN6il2cpp2vm6Thread8SetStateEP12Il2CppThreadNS0_11ThreadStateE
oSa:__ZN6Camera23VirtualRedirectTransferER14SafeBinaryRead
Zhg:_Application_get_isEditor_m857789090
OUc:__ZN11UnityEngine7Connect13ConnectConfig11ConfigValueD2Ev
LEa:__ZNSt3__26__treeINS_12__value_typeIjP14DataBufferGLESEENS_19__map_value_compareIjS4_NS_4lessIjEELb1EEENS_9allocatorIS4_EEE7destroyEPNS_11__tree_nodeIS4_PvEE
l7d:_ASN1Convert_ToInt32_m2228176117
rig:_AssetBundleRequest_t699759206_marshal_pinvoke_back
S8b:__ZN13PlayableGraph15SetPrepareStageE13DirectorStage
xb:invoke_viiiiiiii
SCd:_Int16_System_IConvertible_ToDateTime_m3080274979_AdjustorThunk
QEa:__ZN18GfxFramebufferGLES24UpdateDefaultFramebufferEP17RenderSurfaceBaseS1_N2gl6HandleILNS2_10ObjectTypeE9EEE
PLg:__Z74RuntimeInvoker_RuntimeObject_RuntimeObject_Double_t594665363_RuntimeObjectPFvvEPK10MethodInfoPvPS4_
OJi:_Animator_ResetTrigger_m2321267720
leb:__ZN18StreamedBinaryReadILb0EE21TransferSTLStyleArrayI13dynamic_arrayIiLj4EEEEvRT_17TransferMetaFlags
f4a:__ZN16LightmapSettings5ResetEv
NMa:__ZN12FileAccessor4ReadEyPvPy
YBg:__Z67RuntimeInvoker_Void_t1185182177_Int16_t2552820387_Int32_t2950945753PFvvEPK10MethodInfoPvPS4_
Ync:__Z42Register_UnityEngine_Event_get_commandNamev
ohh:_Collection_1_IsValidItem_m714924194_gshared
ypc:__ZN5Unity9rapidjson12PrettyWriterI16TempBufferWriterNS0_4UTF8IcEES4_13JSONAllocatorE12PrettyPrefixENS0_4TypeE
C7f:_UnicodeEncoding_GetString_m332467280
gec:__ZN8TypeTreeC2E10MemLabelId
E1:__ZNK15FileSystemEntry6ExistsEv
Nbb:__ZNK9Transform21GetLocalToWorldMatrixER10Matrix4x4f
$xg:_Transform_INTERNAL_get_rotation_m2413441996
Y2c:_TouchInputModule_IsModuleSupported_m384818291
Pvf:_DateTime_ToString_m884486936
b8d:_MD4Managed_HashCore_m3384203071
qH:__ZN13AudioListener23VirtualRedirectTransferER19StreamedBinaryWriteILb0EE
wbe:_ClientRecordProtocol_createClientHandshakeMessage_m3325677558
era:__ZN13GfxDeviceGLES11CopyTextureE9TextureIDS0_
syd:_SortedList_get_Capacity_m919184864
mEj:_emscripten_glViewport__wrapper
UT:__ZN11UnityEngine15CloudWebService23WebRequestUploadHandler13GetUploadDataERj
Bkg:_Color32_ToString_m403383053_AdjustorThunk
vqf:_String_IndexOfOrdinalUnchecked_m460601827
UHi:_Canvas_get_sortingOrder_m1860900812
xFe:_ConfigHandler_ReadChannel_m781299361
Jtg:_Rect_get_max_m350137314
CNg:__Z99RuntimeInvoker_Void_t1185182177_Int32_t2950945753_Int32_t2950945753_SByte_t1669577662_RuntimeObjectPFvvEPK10MethodInfoPvPS4_
rFc:_tt_size_select
PFe:_InternalRemotingServices_GetCachedSoapAttribute_m1042302982
iS:__ZN11UnityEngine15CloudWebService17SessionEventQueue15RestoreFromFileER12FileAccessorPvy
nVd:_ConstructorBuilder_GetILGenerator_m1421260830
x9i:__ZN6il2cpp2vm9Exception25RaiseOutOfMemoryExceptionEv
Cdb:__ZN14PlayerSettingsD2Ev
EUe:_RectMask2D_RemoveClippable_m773604960
Hjh:__ZL51Attribute_t861562559_CustomAttributesCacheGeneratorP21CustomAttributesCache
tOd:_Math_Ceiling_m625148210
onj:_GC_reclaim_all
nea:__ZN13PlayableGraph14DestroyOutputsEv
Jah:_Enumerator_System_Collections_IEnumerator_get_Current_m3895111131_gshared
kf:___syscall122
sAd:_Convert_ToDecimal_m2858622624
$Rd:_OperatingSystem__ctor_m1545635730
Y3g:_List_1_RemoveAll_m2406195485_gshared
gnb:__ZNK17InstancingBatcher25FillInstanceBufferWithJobIN10Instancing11DrawAPIArgsEEEvR8JobFenceR13dynamic_arrayIPvLj4EEjjRKT_
HO:__ZN9AudioClip16EnableLegacyModeEv
hHe:_Context_DoCallBack_m749197451
yIi:_CanvasRenderer_set_materialCount_m4286588063
Cfc:__Z52Register_UnityEngine_Camera_INTERNAL_CALL_RaycastTryv
Jwj:_mkdir
Dzi:_VerticalLayoutGroup_SetLayoutHorizontal_m84550911
G9e:_HttpWebRequest_get_ServicePoint_m3916606901
brj:__GLOBAL__sub_I_MemoryMappedFile_cpp
u1f:_Enumerator_MoveNext_m29052175_AdjustorThunk
iwg:_SendMouseEvents_SetMouseMoved_m2822596724
Jdc:__ZN18ScriptingArguments13CopyFromOtherERKS_
b7e:_PKCS12_ReadSafeBag_m1585166574
AHc:_ps_hints_close
r7b:__Z16CreateRenderLoopR6Camera
pEb:__ZN32SerializationCommandQueueBuilder3AddERK20SerializationCommand
UW:_tlsf_create
o9h:_ReadOnlyCollection_1_System_Collections_IEnumerable_GetEnumerator_m2505713430_gshared
Peb:__ZN14SafeBinaryRead21TransferSTLStyleArrayINSt3__26vectorIN15ResourceManager10DependencyE13stl_allocatorIS4_L18MemLabelIdentifier52ELi16EEEEEEvRT_17TransferMetaFlags
IDb:__ZN13MonoBehaviour23VirtualRedirectTransferER18StreamedBinaryReadILb0EE
Bja:__ZN9ShaderLab20SerializedSubProgramC2ERKS0_
oJd:_FileLoadException__ctor_m3879680456
r2h:_Array_InternalArray__get_Item_TisKeyValuePair_2_t71524366_m252172060_gshared
Kyj:__ZNK10__cxxabiv121__vmi_class_type_info27has_unambiguous_public_baseEPNS_19__dynamic_cast_infoEPvi
NQd:_MulticastDelegate_CombineImpl_m2857239134
yhg:_Version_op_Inequality_m1696193441
Y4d:_Marshal_ReadByte_m1960935664
m5a:__ZN15QualitySettings23VirtualRedirectTransferER19StreamedBinaryWriteILb0EE
zQb:__Z20RenderFullScreenQuadR9GfxDeviceRK6Camera17ShaderChannelMaskRK5RectTIfEf21MonoOrStereoscopicEye
Xtd:_ArrayListWrapper_CopyTo_m3756520478
G3d:_ResourceInfo_t2872965302_marshal_pinvoke
X5b:__ZN8Material8GetFloatEN9ShaderLab16FastPropertyNameE
gmc:__Z11GetGUIStatev
kg:_glGetActiveUniform
hMf:_Array_InternalArray__IndexOf_TisSlot_t3975888750_m4250446283_gshared
rg:_emscripten_glGetObjectParameterivARB
xsi:_CharacterClass_AddCharacter_m2370152363
$6:__ZN15SerializeTraitsI10ColorRGBAfE8TransferI14SafeBinaryReadEEvRS0_RT_
D4h:_Collection_1_IsValidItem_m2333176545_gshared
yba:__ZN22BuiltinResourceManager13StaticDestroyEPv
GPi:__ZN15dense_hashtableINSt3__24pairIK10KeyWrapperIN6il2cpp5utils13dynamic_arrayIPK10Il2CppTypeLj4EEEEPFvvEEESA_NS3_8metadata19Il2CppSignatureHashEN14dense_hash_mapISA_SD_SG_NSA_14EqualsComparerINSF_22Il2CppSignatureCompareEEENS0_9allocatorISE_EEE9SelectKeyESK_SM_E4findERSB_
Kaa:__ZN10GameObject17GetComponentIndexEPN5Unity9ComponentE
S6a:__ZN14SafeBinaryRead21TransferSTLStyleArrayI13dynamic_arrayI7SubMeshLj4EEEEvRT_17TransferMetaFlags
a_h:_Array_InternalArray__set_Item_TisILTokenInfo_t2325775114_m309595583_gshared
FLc:__ZNK13TextRendering4Font11GetMaterialEv
ZJ:__ZN29AudioEffectInternalDefinition9CreateDSPEPN4FMOD6SystemEPvPfP23UnityAudioAmbisonicDataPP25UnityAudioSpatializerData
gHc:_UNITY_tt_face_vary_cvt
d1e:_SimpleCollator_ClearBuffer_m2975394169
Tui:_Event_Internal_GetMousePosition_m1101229675
NZb:__ZN35RegisterRuntimeInitializeAndCleanup22ExecuteInitializationsEv
wlf:_TripleDESCryptoServiceProvider_CreateEncryptor_m450924958
Tti:_UriParser_GetParser_m544052729
YQe:_Text_get_font_m2857203289
qLa:__ZN23PreloadManagerOperation14SetFinalTimingEffff
i:DYNAMICTOP_PTR
VYd:_MethodBuilder_fixup_m1765890582
uNe:_ObjectReader_ReadSimpleArray_m428957657
mdb:__ZN13BuildSettings8TransferI18StreamedBinaryReadILb0EEEEvRT_
MOd:_MissingFieldException__ctor_m4282575076
iyf:_Decimal_Equals_m2592017260
eGe:_ConfigHandler_OnEndParsing_m3764034673
hGe:_RemotingConfiguration_RegisterTypes_m2378540395
Ukc:__Z38Renderer_Get_Custom_PropSortingLayerIDP12Il2CppObject
Soe:_InternalEnumerator_1_System_Collections_IEnumerator_get_Current_m767948013_gshared
Ukg:_DelegatePInvokeWrapper_CSSMeasureFunc_t1554030124
eig:_UnityAction_Invoke_m893829196
$La:__ZN14AsyncOperationD0Ev
nva:__Z29TextureIdMapGLES_QueryOrAlloc9TextureID
C$i:__ZN15dense_hashtableINSt3__24pairIK10KeyWrapperINS1_IPK12PropertyInfoP11Il2CppClassEEEjEES9_17ReflectionMapHashIS8_EN14dense_hash_mapIS9_jSD_NS9_14EqualsComparerINS0_8equal_toIS8_EEEENS0_9allocatorISB_EEE9SelectKeyESI_SK_E12resize_deltaEjj
gkg:_Color_GetHashCode_m1829208463
adc:__Z25scripting_raise_exception21ScriptingExceptionPtr
ERe:_Text_get_cachedTextGeneratorForLayout_m116487342
kKi:__ZL11decimalLog2P19il2cpp_decimal_repr
Yeb:__ZN15ResourceManager10Dependency8TransferI14SafeBinaryReadEEvRT_
vfh:_Collection_1_System_Collections_IList_Remove_m3800279569_gshared
Smj:_GC_extend_size_map
Z_e:_Text_FontTextureChanged_m495427969
mEd:_NumberFormatter_RoundDecimal_m2957290908
BK:__ZN4FMOD6System9setDriverEi
vY:__ZNK9Transform11GetRotationEv
sFj:_emscripten_glGetIntegerv__wrapper
IK:__ZN12AudioManager15DidReloadDomainEv
VNf:_Array_InternalArray__ICollection_Add_TisSingle_t1397266774_m1873979703_gshared
XHc:_pshinter_get_globals_funcs
Dub:__Z18Transfer_BlittableI24GenerateTypeTreeTransferLb0EyEvRK29SerializationCommandArgumentsR31RuntimeSerializationCommandInfo
r$a:__ZN8Material14CreateMaterialER6ShaderN6Object9HideFlagsEb
xbg:_TimeSpan_get_Minutes_m4278980001_AdjustorThunk
eEc:_tt_cmap12_char_map_binary
ivi:_GUI__cctor_m3051457990
$_c:_EventSystem_IsPointerOverGameObject_m1911785875
j5:__Z25GetBuiltinResourceManagerv
cej:__ZN6il2cpp2gc8GCHandle15GetTargetHandleEP12Il2CppObjectii
$Ed:_Int32_System_IConvertible_ToByte_m3832391412
Jh:_llvm_trap
faa:__ZNSt3__27__sort5IRNS_6__lessIN12_GLOBAL__N_114ParamNameIndexES3_EEPS3_EEjT0_S7_S7_S7_S7_T_
Zmi:_X509Certificate_VerifySignature_m3988463526
Xug:_RectTransform_get_anchoredPosition_m1813443094
nnj:_get_index
zCd:_GuidParser_AtEnd_m3409982497
O4e:_KeyBuilder_Key_m876696100
_re:_InternalEnumerator_1_System_Collections_IEnumerator_get_Current_m2164048921_gshared
EYi:__ZN15dense_hashtableINSt3__24pairIK10KeyWrapperINS1_IPK14Il2CppAssemblyP11Il2CppClassEEEjEES9_17ReflectionMapHashIS8_EN14dense_hash_mapIS9_jSD_NS9_14EqualsComparerINS0_8equal_toIS8_EEEENS0_9allocatorISB_EEE9SelectKeyESI_SK_EC2ERKSN_j
eTi:__ZN6il2cpp2vm21ThreadPoolCompartment12DetachThreadEP12Il2CppThread
qed:_SByte_System_IConvertible_ToInt16_m885121451_AdjustorThunk
jxf:_Decimal_stripStyles_m1823381019
Dqa:__ZN13GfxDeviceGLES30SetBackBufferColorDepthSurfaceEP17RenderSurfaceBaseS1_
Moc:__Z52Register_UnityEngine_GUIUtility_get_systemCopyBufferv
_1h:_LayoutGroup_SetProperty_TisBoolean_t97287965_m3903959758_gshared
c9b:__ZN16StreamedResource8TransferI18StreamedBinaryReadILb0EEEEvRT_
Ihc:__Z49Register_UnityEngine_Input_get_imeCompositionModev
Cwg:_Sprite_INTERNAL_get_rect_m1600380876
bia:__ZN15dense_hashtableINSt3__24pairIKiN4core17string_with_labelILi1EEEEEi18SInt32HashFunctionN14dense_hash_mapIiS5_S7_NS0_8equal_toIiEE13stl_allocatorIS6_L18MemLabelIdentifier1ELi16EEE9SelectKeyESA_SD_E12resize_deltaEjj
MWb:__ZNK20OcclusionCullingData22GetStaticRendererCountEv
swc:__GLOBAL__sub_I_runtime_particlesystem_modules_5_cpp
$Ij:_emscripten_glDisableVertexAttribArray__wrapper
PRd:_Object_InternalGetHashCode_m4213713973
SPd:_MonoType_GetAttributeFlagsImpl_m167182975
A9d:_EncryptedData_get_EncryptedContent_m3205649670
pbb:__ZN12MeshRenderer18CalculateLocalAABBER4AABBRKS_RK4Mesh
NV:__ZN21UnityDefaultAllocatorI17LowLevelAllocatorE8AllocateEji
nx:__ZN7mecanim5human14HumanPoseClearERNS0_9HumanPoseERKNS_6bitsetILj83EEE
sOc:__ZL28InitializeUIScriptingClassesv
yQg:__Z54RuntimeInvoker_Vector2_t2156229523_Vector3_t3722313464PFvvEPK10MethodInfoPvPS4_
wHb:__ZN10UnityScene10ClearRootsEv
Z8h:_ReadOnlyCollection_1_System_Collections_IList_set_Item_m2162444692_gshared
flb:__ZN12HandlerChain10AtomicMoveER13FileEntryDataS1_
UGa:__ZN9GfxDevice17HasGPUFencePassedEPv
Tda:__ZZN15DirectorManager15InitializeClassEvEN48PreLateUpdateDirectorDeferredEvaluateRegistrator7ForwardEv
rxc:__ZN20SpeedTreeWindManager6UpdateEf
NGg:__Z68RuntimeInvoker_Int64_t3736567304_IntPtr_t_MonoIOErrorU26_t1548853198PFvvEPK10MethodInfoPvPS4_
SC:__ZN7mecanim9animation20CreateAvatarConstantEPNS_8skeleton8SkeletonEPNS1_13SkeletonPoseTIN4math4trsXEEES8_PNS_5human5HumanES3_iRKS6_RNS_6memory9AllocatorE
Mab:__ZN14CompressedMesh8TransferI19StreamedBinaryWriteILb0EEEEvRT_
MPf:_Array_InternalArray__Insert_TisDouble_t594665363_m675699942_gshared
i6g:_List_1_System_Collections_IList_Add_m3014885234_gshared
dgi:_UnityAction_1_Invoke_m3535252839_gshared
llj:__ZNK6il2cpp5utils13VmStringUtils21CaseSensitiveComparerclERKNSt3__212basic_stringIcNS3_11char_traitsIcEENS3_9allocatorIcEEEEPKc
tZe:_Selectable_set_isPointerInside_m701571657
uVa:__ZN24GenerateTypeTreeTransfer8TransferI21PlatformShaderDefinesEEvRT_PKc17TransferMetaFlags
Geb:__ZNK15ResourceManager22GetTypeVirtualInternalEv
Ubj:__ZN6il2cpp2vmL36AddNestedTypesToNametoClassHashTableEPK11Il2CppImagePK20Il2CppTypeDefinition
U7g:_List_1_set_Capacity_m2707586410_gshared
brg:_PlayerConnection_MessageCallbackInternal_m1914517467
Eig:_AttributeHelperEngine__cctor_m1900959362
GIc:__ZN13TextRendering4Font23VirtualRedirectTransferER24GenerateTypeTreeTransfer
AVh:__ZL102Image_t2670269651_CustomAttributesCacheGenerator_Image_t2670269651____eventAlphaThreshold_PropertyInfoP21CustomAttributesCache
Jbf:_X509SubjectKeyIdentifierExtension_ToString_m12089275
bTg:__Z106RuntimeInvoker_RuntimeObject_RuntimeObject_Int32_t2950945753_Int16_t2552820387_RuntimeObject_RuntimeObjectPFvvEPK10MethodInfoPvPS4_
Tgg:_UnhandledExceptionEventArgs__ctor_m224348470
g0b:__ZL16MouseMoveHandleriPK20EmscriptenMouseEventPv
ZLf:_Array_InternalArray__IndexOf_TisByte_t1134296376_m929524687_gshared
mP:__ZN11AudioSource15InitializeClassEv
d0c:_ExecuteEvents_get_dragHandler_m3849431675
aQb:__ZN11HaloManager17RenderGeometryJobEP25DynamicVBOGeometryJobDataj
rrg:_Object_DestroyImmediate_m2288369078
Y3e:_BitConverterLE_UShortFromBytes_m1253080092
hE:__ZNSt3__227__insertion_sort_incompleteIRPFbN7mecanim9animation13MuscleIndexIdES3_EPS3_EEbT0_S8_T_
lJj:_emscripten_glBlendEquation__wrapper
Z5i:__ZN15dense_hashtableINSt3__24pairIK10KeyWrapperIP11Il2CppClassES4_EES5_N6il2cpp8metadata16SZArrayClassHashEN14dense_hash_mapIS5_S4_SA_NS5_14EqualsComparerINS9_19SZArrayClassCompareEEENS0_9allocatorIS7_EEE9SelectKeyESE_SG_E13set_empty_keyERKS7_
Dxj:__ZNSt3__212basic_stringIcNS_11char_traitsIcEENS_9allocatorIcEEE6__initEPKcj
Qj:_emscripten_set_fullscreenchange_callback
Fbi:_ReadOnlyCollection_1_System_Collections_IList_Insert_m4085855595_gshared
Spi:_PatternCompiler_NewLink_m3699449496
ZU:__ZN11UnityEngine15CloudWebService14DataDispatcher22ResetNetworkRetryIndexEv
Vj:_emscripten_glDrawArrays
fpg:_Material_HasProperty_m2704238996
tKb:__ZZ23InitPlayerLoopCallbacksvEN43EarlyUpdateExecuteMainThreadJobsRegistrator7ForwardEv
AU:__ZN11UnityEngine15CloudWebService19SessionEventManagerC2Ev
Vrd:_Char_System_IConvertible_ToSingle_m2690985411_AdjustorThunk
Dci:_Comparison_1_Invoke_m668117148_gshared
U7e:_DictionaryNodeEnumerator_FailFast_m2494733641
G6:__ZN14GfxDoubleCacheIyP17VertexDeclaration14GfxGenericHashIyENSt3__28equal_toIyEEN31GfxDoubleCacheConcurrencyPolicy11LocklessGetE42GfxDoubleCacheDefaultEmptyDeletedGeneratorIyEE3GetI15VertDeclCreatorEERKS1_RKyT_
cZc:__ZN13RuntimeStaticI14dynamic_bitsetLb0EE16StaticInitializeEPv
Aga:__ZNSt3__222__merge_move_constructIRNS_4lessIN4core12basic_stringIcNS2_20StringStorageDefaultIcEEEEEENS_11__wrap_iterIPS6_EESB_EEvT0_SC_T1_SD_PNS_15iterator_traitsISC_E10value_typeET_
rfc:__Z41Register_UnityEngine_Camera_get_eventMaskv
CP:__ZL19CleanupModule_Audiov
Whf:_IntervalCollection_CopyTo_m2976848759
X4c:_CanvasUpdateRegistry_ObjectValidForUpdate_m2723813849
eDa:__ZN18GlslGpuProgramGLES25LoadFromBinaryShaderCacheERjRKN4core12basic_stringIcNS1_20StringStorageDefaultIcEEEER17ShaderChannelMaskPKc
Z3g:_List_1_RemoveAt_m1433290785_gshared
Hrb:__Z29Transfer_Blittable_ArrayFieldI14SafeBinaryReadiEvRT_R9ArrayInfoRK23StaticTransferFieldInfo
WTi:__ZN6il2cpp6icalls8mscorlib6System8MonoType8GetFieldEP20Il2CppReflectionTypeP12Il2CppStringi
$Pi:__ZN15dense_hashtableINSt3__24pairIK10KeyWrapperIN6il2cpp5utils13dynamic_arrayIPK10Il2CppTypeLj4EEEEPFvvEEESA_NS3_8metadata19Il2CppSignatureHashEN14dense_hash_mapISA_SD_SG_NSA_14EqualsComparerINSF_22Il2CppSignatureCompareEEENS0_9allocatorISE_EEE9SelectKeyESK_SM_E5clearEv
Tjf:_SHA256Managed_ProcessBlock_m2297835517
HFj:_emscripten_glVertexAttrib3fv__wrapper
Wkg:_CSSMeasureFunc_Invoke_m3910201085
rzd:_Convert_ToBoolean_m4098720762
zbi:_ReadOnlyCollection_1_System_Collections_ICollection_CopyTo_m511916545_gshared
TIf:_Array_InternalArray__ICollection_Remove_TisOrderBlock_t1585977831_m1449044465_gshared
WFi:_DisplayBuffer_OnCommand_m444302511
hTd:_AssemblyName__ctor_m1753467291
a_e:_Slider_set_minValue_m3431883418
mcc:__ZN8Material10GetTextureEN9ShaderLab16FastPropertyNameE
Qze:_Enumerator_System_Collections_IEnumerator_get_Current_m1657817602_gshared
zab:__ZN18StreamedBinaryReadILb0EE21TransferSTLStyleArrayI13dynamic_arrayI10Matrix4x4fLj16EEEEvRT_17TransferMetaFlags
y3b:__ZNK28MonoBehaviourPropertyBinding13GetFloatValueERKN11UnityEngine9Animation10BoundCurveE
dpj:_GC_generic_malloc
abf:_WebHeaderCollection_get_Keys_m910440889
FGa:__Z19GetVertexFormatSize12VertexFormat
up:__ZN14SafeBinaryRead21TransferSTLStyleArrayI13dynamic_arrayIiLj4EEEEvRT_17TransferMetaFlags
Zzg:_Vector4__cctor_m2519631228
FZb:__ZNK18ScreenManagerWebGL13GetShowCursorEv
Ntd:_ArrayListWrapper_Clear_m2625302714
DJj:_emscripten_glIsTexture__wrapper
Qae:_CipherSuiteCollection_System_Collections_IEnumerable_GetEnumerator_m3240848888
_yj:_llvm_bswap_i32
mCd:_Convert_ToUInt64_m1627266664
fqa:__ZN9GfxDevice25ReleaseAsyncCommandHeaderEPN21GfxDeviceAsyncCommand3ArgE
Lni:_X509Crl_Parse_m3164013387
Pub:__ZL22Transfer_ManagedObjectI24GenerateTypeTreeTransferLb0EEvRK29SerializationCommandArgumentsR31RuntimeSerializationCommandInfo
JDb:__ZN13MonoBehaviour23VirtualRedirectTransferER17RemapPPtrTransfer
sGa:__ZN21UniformBufferTFMethod20IsBoneCountSupportedEi
tkg:_Color_get_black_m719512684
vbd:_HorizontalLayoutGroup_CalculateLayoutInputHorizontal_m750541069
Oij:__ZN6il2cpp6icalls8mscorlib6System11Environment11get_NewLineEv
qef:_X509CertificateCollection__ctor_m1395805580
h3d:_ResourceReader_CreateResourceInfo_m1818330740
hce:_ClientSessionInfo_Dispose_m3253728296
n$a:__ZN6Shader27MarkShaderStateNotSupportedEPKS_
org:_Object_Internal_CloneSingle_m1021157572
VFa:__ZN25TransformFeedbackSkinning8SkinMeshERK18VertexStreamSourceP9GfxBufferP17GPUSkinPoseBufferS4_ii17ShaderChannelMaskb
tbj:__ZN15dense_hashtableINSt3__24pairIK10KeyWrapperIP14Il2CppIUnknownEjEES5_N6il2cpp5utils11PointerHashIS3_EEN14dense_hash_mapIS5_jSB_NS5_14EqualsComparerINS0_8equal_toIS4_EEEENS0_9allocatorIS7_EEE9SelectKeyESG_SI_E12resize_deltaEjj
Z2d:_ResolveEventArgs__ctor_m1455935166
_cg:_Type_Equals_m1673304139
cNd:_SynchronizedReader_Read_m1388613247
gxb:__Z22TransferField_NonArrayI19StreamedBinaryWriteILb0EE27Converter_SimpleNativeClassI8GUIStyleEEvRK23StaticTransferFieldInfoR31RuntimeSerializationCommandInfoRT0_
UWe:_Scrollbar_OnPointerDown_m3213715319
Qvc:__ZN8JSONRead8TransferIN4math12int3_storageEEEvRT_PKc17TransferMetaFlagsb
oLb:__ZN27IntermediateRendererManager29ClearAllIntermediateRenderersEv
i2c:_StandaloneInputModule__ctor_m2419721820
Zue:_Comparer_1_System_Collections_IComparer_Compare_m2018996185_gshared
Qp:__Z17CalculateGlobalSM23TransformAccessReadOnlyRKN4math7_float4E
vR:__ZN23CloudWebServicesManager23VirtualRedirectTransferER18StreamedBinaryReadILb0EE
Ovd:_CollectionBase_System_Collections_IList_Contains_m2994901969
Vl:_emscripten_glLoadIdentity
$Zb:__ZNSt3__26vectorINS_4pairIN4core12basic_stringIcNS2_20StringStorageDefaultIcEEEEPK17MessageIdentifierEENS_9allocatorISA_EEE26__swap_out_circular_bufferERNS_14__split_bufferISA_RSC_EEPSA_
QAd:_Convert_ToInt16_m2896657713
Frg:_Vector3_get_zero_m1409827619
gVb:__Z29CullShadowCastersWithoutUmbraR9IndexListRK17CullingParametersPK4AABBjj
goa:__ZN6Shader16GetDefaultOrNullEv
qp:__ZN4AABB8TransferI14SafeBinaryReadEEvRT_
GHf:_Array_InternalArray__ICollection_Contains_TisX509ChainStatus_t133602714_m795171973_gshared
u9i:__ZN6il2cpp2vm8Liveness8FromRootEP12Il2CppObjectPv
ybb:__ZN12MeshRenderer23VirtualRedirectTransferER19StreamedBinaryWriteILb0EE
T4a:__ZN18StreamedBinaryReadILb0EE21TransferSTLStyleArrayI13dynamic_arrayI12LightmapDataLj4EEEEvRT_17TransferMetaFlags
KNa:__ZNK17ArchiveFileSystem9EnumerateEPKcP19dynamic_block_arrayI13FileEntryInfoLj32EEbPPv19FileEnumerationFlag
X$b:__Z11MD5ToStringPh
thc:__Z38Input_Get_Custom_PropCompositionStringv
j$e:_Text_get_alignment_m1496827807
J6e:_ContentInfo_get_ASN1_m1776225219
FS:__ZN9JSONWrite8TransferIN4core12basic_stringIcNS1_20StringStorageDefaultIcEEEEEEvRT_PKc17TransferMetaFlags
JBd:_Convert_ToSingle_m2533452644
Mxj:__ZNSt3__212basic_stringIcNS_11char_traitsIcEENS_9allocatorIcEEE6resizeEjc
Fdb:__ZN14PlayerSettings16CheckConsistencyEv
lO:__ZN11AudioModule30GetOrCreateDSPFromCustomFilterEP17AudioCustomFilter
FTa:__ZN19AtomicPageAllocatorD2Ev
n$c:_EventTrigger_OnPointerEnter_m986348926
Gaj:__ZN6il2cpp6icalls8mscorlib6System13GlobalizationL20culture_lcid_locatorEPKvS5_
zlf:_X509Certificate__ctor_m1413707489
R1a:__ZNK12CubemapArray16ExtractImageImplEP14ImageReferenceNS0_8BlitModeEbi
Zhc:__Z63Register_UnityEngine_MonoBehaviour_StartCoroutine_Auto_Internalv
VCj:_glTexStorage3D__wrapper
Rdb:__ZN10VRSettings8TransferI14SafeBinaryReadEEvRT_
ydg:_Type_IsMarshalByRefImpl_m914778231
Fwd:_Hashtable__ctor_m2302711321
ja:invoke_viifiiii
krd:_Byte_TryParse_m1467448483
uGi:_DelegatePInvokeWrapper_OnCommandSentHandler_t613111342
oYc:__ZN20UnityWebRequestProtoI24UnityWebRequestTransport16AtomicRefCounter14RedirectHelper14ResponseHelper15DownloadHandler13UploadHandler12HeaderHelper14AsyncOperationE8FinalizeEv
hxg:_Texture2D_get_whiteTexture_m2176011403
J3:__ZN22PerThreadPageAllocator14AcquireNewPageEj
JK:__ZN24AudioScriptBufferManager15DidReloadDomainEv
hdi:_Func_2_Invoke_m3516477887_gshared
aLh:__ZL65SelectionBaseAttribute_t3493465804_CustomAttributesCacheGeneratorP21CustomAttributesCache
Yqf:_String_ToString_m3872792296
Vtb:__Z18Transfer_BlittableI24GenerateTypeTreeTransferLb1E9BoundsIntEvRK29SerializationCommandArgumentsR31RuntimeSerializationCommandInfo
hJd:_FileStream_GetSecureFileName_m449783930
nRb:__ZN6Camera13ClearNoSkyboxEb
VNd:_UnexceptionalStreamWriter_Flush_m82278468
Joe:_InternalEnumerator_1_get_Current_m3911557813_gshared
oPi:__ZNK15dense_hashtableI10KeyWrapperIPK17Il2CppGenericInstES4_N6il2cpp8metadata21Il2CppGenericInstHashEN14dense_hash_setIS4_S7_NS4_14EqualsComparerINS6_24Il2CppGenericInstCompareEEENSt3__29allocatorIS4_EEE8IdentityESB_SE_E12test_deletedEj
XRa:__ZN19StreamedBinaryWriteILb0EE21TransferSTLStyleArrayI13dynamic_arrayI17SortingLayerEntryLj4EEEEvRT_17TransferMetaFlags
YZc:_BaseInput_get_touchCount_m1263753282
k7d:_ASN1Convert_FromOid_m3844102704
sKe:_RemotingSurrogate_SetObjectData_m2713731796
Csf:_DecoderReplacementFallbackBuffer_Reset_m3943028589
sEa:__ZN18GfxFramebufferGLES10InvalidateEv
PZf:_Enumerator_System_Collections_IEnumerator_get_Current_m282279808_AdjustorThunk
dSe:_LayoutRebuilder_MarkLayoutRootForRebuild_m1241498911
_8f:_CompressedStack_CreateCopy_m2591279216
cjf:_RSAPKCS1KeyExchangeFormatter_CreateKeyExchange_m1611814432
s9:__ZN10MemoryPoolD2Ev
enc:__ZNSt3__26__treeINS_12__value_typeIN4core12basic_stringIcNS2_20StringStorageDefaultIcEEEEN5IMGUI12NamedControlEEENS_19__map_value_compareIS6_S9_NS_4lessIS6_EELb1EEENS_9allocatorIS9_EEE7destroyEPNS_11__tree_nodeIS9_PvEE
Dbf:_AsnEncodedData_KeyUsageExtension_m1792651780
igj:__ZN6il2cpp2os5posix15PosixWaitObjectD2Ev
XMb:__ZNK25CameraStackRenderingState28GetDstTextureForImageFiltersEv
vwj:___mmap
z8b:__ZN9Scripting26RaiseArgumentNullExceptionEPKc
eKj:b120
eX:__ZL18InternalLogConsolePKcz
pvj:_lseek
nme:_InternalEnumerator_1_get_Current_m685192625_gshared
PNd:_UnexceptionalStreamReader_Read_m16956299
q3d:_ResourceReader_ReadValueVer1_m183253382
D$:__Z37scripting_method_get_nth_argumenttype18ScriptingMethodPtri
OM:__ZN11AudioSource16UpdatePauseStateEv
Uca:__ZL52StaticUnregisterSceneLoadedCallback_LightmapSettingsPv
Njg:_Camera_get_main_m3643453163
ctj:__ZN6il2cpp5utils25NativeDelegateMethodCache17AddNativeDelegateEPFvvEPK10MethodInfo
ETe:_LayoutRebuilder_U3CRebuildU3Em__5_m1288787547
yQb:__ZN27DeviceViewProjMatricesStateD2Ev
pwg:_SendMouseEvents__cctor_m2378365934
j6h:_ReadOnlyCollection_1_System_Collections_IList_set_Item_m3582274843_gshared
upg:_Mathf_Pow_m856735666
Dfa:__ZL39CreateRegisteredMessageIdentifiersArrayPv
Gtb:__Z18Transfer_BlittableI24GenerateTypeTreeTransferLb0E8Vector3fEvRK29SerializationCommandArgumentsR31RuntimeSerializationCommandInfo
O0e:_SimpleCollator_FilterExtender_m72900315
CIc:__ZNK13TextRendering4Font22GetTypeVirtualInternalEv
w6e:_SymmetricTransform_CheckInput_m1829858759
pfb:__ZN19StreamedBinaryWriteILb0EE21TransferSTLStyleArrayINSt3__26vectorIN15ResourceManager10DependencyE13stl_allocatorIS5_L18MemLabelIdentifier52ELi16EEEEEEvRT_17TransferMetaFlags
uYe:_ScrollRect_EnsureLayoutHasRebuilt_m3415112783
FTd:_Binder_FindMostDerivedMatch_m239579024
Ezd:_Convert_ToByte_m3824130483
yxi:_GUIUtility_EndContainerGUIFromException_m530164245
oya:__ZN6prcoreL10inner_flipILj2EEEvPhS1_j
s8a:__ZNK14Texture2DArray16ExtractImageImplEP14ImageReferenceNS0_8BlitModeEbi
d7f:_StringBuilder_Append_m2383614642
dsc:__ZN9JSONWrite8TransferIbEEvRT_PKc17TransferMetaFlags
QKa:__ZN12TLSAllocatorI14StackAllocatorED0Ev
Dcb:__ZN11TimeManager16CheckConsistencyEv
VNb:__ZN21GfxDeviceAsyncCommand10ArgScratch15ThreadedCleanupEv
l8b:__Z14DoubleToStringd
Grf:_StringComparer_GetHashCode_m2080455020
ftb:__ZN12NativeBufferI27Converter_UnityEngineObjectE15SetupForWritingER9ArrayInfo
d1g:_List_1_CheckCollection_m2118769249_gshared
pe:_glTexImage3D
k7c:_DefaultControls_SetDefaultColorTransitionValues_m2033775311
v0:__ZN14SerializedFile27PatchRemapDeprecatedClassesEv
EQf:_Array_InternalArray__set_Item_TisChar_t3634460470_m741842250_gshared
rki:_TlsServerSettings_set_RsaParameters_m853026166
I$a:__ZNSt3__26vectorINS_4pairI11ShaderTagIDS2_EENS_9allocatorIS3_EEE6insertENS_11__wrap_iterIPKS3_EERS8_
Juf:_DateTime_AddMilliseconds_m3713972790_AdjustorThunk
gid:_RC2_Create_m2052783340
gGf:_Guid__ctor_m3421080095_AdjustorThunk
wAd:_Convert_ToDouble_m217737046
odc:__ZL34GetComponentsImplementationRecurseILb1ELi0ELi1EEbR10GameObjectbRK17CompareParametersRK39GetComponentsImplementation_ReturnValue
RAf:_Double_Equals_m1674752021
aQe:_InputField_OnDisable_m1824300767
iPc:__ZN2UI25AddCanvasRendererToCanvasER8JobFencePNS_12CanvasHandleERNS_10CanvasDataEi
zyd:_SortedList_Clone_m928094797
neb:__ZN10VRSettings8TransferI18StreamedBinaryReadILb0EEEEvRT_
ow:__ZN22AnimationMixerPlayable12MixerProcessEP35AnimationPlayableEvaluationConstantP32AnimationPlayableEvaluationInputP33AnimationPlayableEvaluationOutputM17AnimationPlayableFvS1_S3_S5_EPFvS1_S3_S5_ESA_PFvS5_S1_S3_S5_PN7mecanim16ValueArrayWeightEfEPFvS1_S3_S5_SD_fE
Qve:_Enumerator_get_CurrentKey_m2230405065_gshared
Lde:_TlsClientFinished_ProcessAsSsl3_m3094597606
Tuc:__ZN8JSONRead21TransferSTLStyleArrayI13dynamic_arrayIdLj8EEEEvRT_17TransferMetaFlags
Ojg:_Camera_get_allCamerasCount_m528453758
BTi:__ZN6il2cpp2vm10ThreadPool5QueueEP14Il2CppDelegatePPvS3_P12Il2CppObject
mxb:__Z19TransferField_ArrayI19StreamedBinaryWriteILb0EE27Converter_SimpleNativeClassI8GradientEEvRK23StaticTransferFieldInfoR31RuntimeSerializationCommandInfoRT0_
Z9e:_IPv6Address__ctor_m2700673633
buc:__Z18Transfer_BlittableI8JSONReadLb0E12PropertyNameEvRK29SerializationCommandArgumentsR31RuntimeSerializationCommandInfo
MGj:_glGetUniformBlockIndex__wrapper
snd:_Array_CreateInstance_m2696293787
q7f:_UnicodeEncoding__ctor_m1074918879
p7a:__ZN7SubMesh8TransferI18StreamedBinaryReadILb0EEEEvRT_
GZd:_OpCode_Equals_m1376200488_AdjustorThunk
Z5c:_ColorBlock_op_Inequality_m2718216889
cf:_emscripten_glIsEnabled
ozb:__ZN18StreamedBinaryReadILb1EE21TransferSTLStyleArrayI13dynamic_arrayIdLj8EEEEvRT_17TransferMetaFlags
pgc:__Z45Register_UnityEngine_GameObject_get_transformv
RVd:_DerivedType_GetConstructors_m483065502
UZ:__Z29scripting_class_instance_size17ScriptingClassPtr
yvc:__Z29Transfer_Blittable_ArrayFieldI8JSONRead5RectTIiEEvRT_R9ArrayInfoRK23StaticTransferFieldInfo
e$g:__Z68RuntimeInvoker_Boolean_t97287965_SByte_t1669577662_SByte_t1669577662PFvvEPK10MethodInfoPvPS4_
yRg:__Z165RuntimeInvoker_Void_t1185182177_RuntimeObject_Int32_t2950945753_Int32_t2950945753_RuntimeObject_Int32_t2950945753_Single_t1397266774_Single_t1397266774_RuntimeObjectPFvvEPK10MethodInfoPvPS4_
uc:invoke_iiiiiiiii
aV:__ZN11UnityEngine15CloudWebService19SessionEventManager26ProcessEventQueueJobStaticEPv
qpg:_Mathf_Min_m1073399594
Xwg:_StackTraceUtility_ExtractStringFromExceptionInternal_m2686726792
uCc:_otv_Coverage_get_last
uV:__ZN11UnityEngine15CloudWebService19SessionEventManager37OnTimerExpiredPerformArchiveJobStaticEPv
Xqc:__Z18Transfer_BlittableI9JSONWriteLb1E9BoundsIntEvRK29SerializationCommandArgumentsR31RuntimeSerializationCommandInfo
x0e:_MSCompatUnicodeTable_FillCJKCore_m2347268515
Qsi:_Group_GetWidth_m3299755715
bzf:_Decimal_op_Implicit_m1920400487
mYa:__ZN10builtintex15GetWhiteTextureEv
iKe:_MonoMethodMessage_get_TypeName_m3758247133
qxd:_Enumerator_get_Entry_m2184304359
gu:__ZN7mecanim9animation16CreateClipMemoryEPKNS0_4ClipEiRNS_6memory9AllocatorE
fuj:__ZN6il2cpp6icalls8mscorlib6System10Reflection4Emit11DerivedType21create_unmanaged_typeEP20Il2CppReflectionType
Ubd:_Image_set_fillCenter_m3776786491
lfa:__Z29GetOcclusionPortalManagerListv
cjc:__Z39Register_UnityEngine_Sprite_get_texturev
$Ji:__ZL10rescale128PyS_Piiiii
SG:__ZN9AudioClip7WWWSeekEPvjS0_
Enh:__ZL63FixedBufferAttribute_t3759792648_CustomAttributesCacheGeneratorP21CustomAttributesCache
J8:__ZL32StaticInitializeIUnityInterfacesPv
yNb:__Z13CameraProjectRK8Vector3fRK10Matrix4x4fS4_RK5RectTIiERS_b
igb:__ZN30RuntimeInitializeOnLoadManager15ClassMethodInfo8TransferI19StreamedBinaryWriteILb0EEEEvRT_
aca:__Z22CreateMutexLockedStackv
MIb:__ZNSt3__27__sort5IRNS_4lessIN22BuiltinResourceManager8ResourceEEEPS3_EEjT0_S7_S7_S7_S7_T_
eEd:_NumberFormatter_FormatNumber_m1763569482
PUh:__ZL57FontData_t746620069_CustomAttributesCacheGenerator_m_FontP21CustomAttributesCache
tma:__ZN9ShaderLab11ShaderStateD2Ev
fGc:_Ins_DELTAP
VEb:__Z23TransferScriptingObjectI24GenerateTypeTreeTransferEvRT_18ScriptingObjectPtr17ScriptingClassPtrPK15MonoScriptCache
Wpi:_PatternLinkStack_GetOffset_m3697714525
emc:__ZN12GUIClipState5ApplyER10InputEvent
Uwb:__ZL17Transfer_GUIStyleI19StreamedBinaryWriteILb0EELb0EEvRK29SerializationCommandArgumentsR31RuntimeSerializationCommandInfo
rRb:__ZN10TextureRef4InitEP7Textureb
AJd:_MonoIO_GetFileType_m101289143
Qxa:__Z19ScheduleJobInternalR8JobFencePFvPvES1_11JobPriority
L8e:_KeysCollection_get_Count_m3943311735
hle:_InternalEnumerator_1_get_Current_m2832154098_gshared
mhg:_Version__ctor_m1550720073
CSi:__ZNSt3__211__tree_nextIPNS_16__tree_node_baseIPvEEEET_S5_
ndj:__ZN15dense_hashtableI10KeyWrapperIP18Il2CppGenericClassES3_N6il2cpp8metadata22Il2CppGenericClassHashEN14dense_hash_setIS3_S6_NS3_14EqualsComparerINS5_25Il2CppGenericClassCompareEEENSt3__29allocatorIS3_EEE8IdentityESA_SD_E14squash_deletedEv
_fj:__ZN6il2cpp2vm11MethodStack17GetStackFramesRawEv
PAa:__ZN6prcoreL17RemapGenericFloatI17TexFormatRGBAHalf17TexFormatRGBFloatEEvPKNS_9InnerInfoE
wDg:__Z52RuntimeInvoker_Double_t594665363_Decimal_t2948259380PFvvEPK10MethodInfoPvPS4_
Ppe:_InternalEnumerator_1_get_Current_m784835552_gshared
ylc:__Z35Sprite_Get_Custom_PropPixelsPerUnitP12Il2CppObject
rPi:__ZNSt3__26__sortIRN6il2cpp5utils11collections13ArrayValueMapIPK10Il2CppType17Il2CppInteropData26InteropDataToTypeConverterNS1_8metadata14Il2CppTypeLessENSA_26Il2CppTypeEqualityComparerEE12SortComparerEPS8_EEvT0_SH_T_
$hb:__ZN11PreloadDataD2Ev
GXc:__ZN15DownloadHandler14ProcessHeadersERK9HeaderMap
UIc:__ZNSt3__26vectorINS_4pairIifEE13stl_allocatorIS2_L18MemLabelIdentifier35ELi16EEE6assignINS_11__wrap_iterIPS2_EEEENS_9enable_ifIXaasr21__is_forward_iteratorIT_EE5valuesr16is_constructibleIS2_NS_15iterator_traitsISC_E9referenceEEE5valueEvE4typeESC_SC_
Zb:invoke_iifi
Krd:_Char_System_IConvertible_ToInt16_m975497224_AdjustorThunk
xzf:_Delegate_CreateDelegate_m995503480
kVi:__ZNK6il2cpp5utils10StringViewIcE5RFindEc
bWd:_DerivedType_get_Module_m3032466746
FUa:__ZN15SharedLightData15UpdateTransformERK9Transform
PVh:__ZL71InputField_t3762917431_CustomAttributesCacheGenerator_m_OnValidateInputP21CustomAttributesCache
Yfa:__ZN18AssetBundleManagerD2Ev
ahc:__Z44Register_UnityEngine_RectOffset_get_verticalv
Hsj:__ZN6il2cpp2vm9LastError31InitializeLastErrorThreadStaticEv
vUe:_MaskableGraphic_set_maskable_m243551751
FMd:_StreamWriter_Dispose_m2818839127
Uda:__ZZN15DirectorManager15InitializeClassEvEN43PostLateUpdateDirectorLateUpdateRegistrator7ForwardEv
fh:_JS_SystemInfo_GetCurrentCanvasHeight
eie:_ArrayReadOnlyList_1_IndexOf_m1911574180_gshared
eUe:_Mask_OnEnable_m2186824439
MOe:_InputField_SetCaretVisible_m2216480850
iff:_X509EnhancedKeyUsageExtension_CopyFrom_m3750050754
y$a:__ZNK8Material22GetTypeVirtualInternalEv
noc:__Z34GUIStyle_Get_Custom_PropFixedWidthP12Il2CppObject
k8h:_ReadOnlyCollection_1_System_Collections_IList_Clear_m1076810235_gshared
I0f:_Enumerator_System_Collections_IEnumerator_get_Current_m3405349194_AdjustorThunk
Dij:__ZN6il2cpp2gc16GarbageCollector11GetWeakLinkEPPv
Lgj:__GLOBAL__sub_I_Console_cpp
FAa:__ZN6prcoreL17RemapGenericFloatI14TexFormatRHalf17TexFormatRGBAHalfEEvPKNS_9InnerInfoE
I5d:_BigInteger_GetBytes_m1259701831
yVi:__ZN6il2cpp2vm7Runtime11InvokeArrayEPK10MethodInfoPvP11Il2CppArrayPP15Il2CppException
prf:_String_memcpy_m2826223007
Aid:_RijndaelManaged_CreateDecryptor_m1421727258
OF:__ZN9AudioClip23VirtualRedirectTransferER14SafeBinaryRead
z0f:_Enumerator_MoveNext_m2407049913_gshared
_6f:_StringBuilder_Replace_m1682610486
JDa:__ZN4gles20EnsureTextureCreatedEP7ApiGLESP17RenderSurfaceGLES
iOb:__ZN15ReplacementPass13PrepareSubsetEjRK10RenderNodeifRK17ShaderReplaceData
tL:__Z32AudioMeasurement_GetTimeConstantff
fjj:__ZN6il2cpp8metadata11FieldLayout12LayoutFieldsEjjjRKNSt3__26vectorIPK10Il2CppTypeNS2_9allocatorIS6_EEEERNS1_15FieldLayoutDataE
Zlb:__ZNK20LocalFileSystemPosix9EnumerateEPKcP19dynamic_block_arrayI13FileEntryInfoLj32EEbPPv19FileEnumerationFlag
F$d:_MethodInfo_MakeGenericMethod_m1996785325
k_c:_BaseInputModule_DetermineMoveDirection_m770437496
MGe:_Context_get_HasGlobalDynamicSinks_m3672814609
Joi:_Match__ctor_m2464595873
KVb:__ZL27PrepareSceneNodesJobCombineP25ScheduleSceneNodesJobData
oni:_X509CertificateEnumerator_Reset_m1825523691
Xpb:__Z22TransferField_NonArrayI14SafeBinaryRead27Converter_SimpleNativeClassI8GUIStyleEEvRK23StaticTransferFieldInfoR31RuntimeSerializationCommandInfoRT0_
g2i:__ZN14dense_hash_mapI10KeyWrapperIPK10Il2CppTypeEjN6il2cpp8metadata14Il2CppTypeHashENS4_14EqualsComparerINS6_26Il2CppTypeEqualityComparerEEENSt3__29allocatorINSB_4pairIKS4_jEEEEEC2EjRKS7_RKSA_
xoa:__ZN13GfxDeviceGLESD2Ev
Hha:__ZNSt3__26vectorIN9ShaderLab26SerializedShaderDependencyENS_9allocatorIS2_EEE6resizeEj
h2h:_Activator_CreateInstance_TisRuntimeObject_m729575857_gshared
Bda:__ZN18AsyncUploadManager13StaticDestroyEPv
aha:__ZN6Shader7SetNameEPKc
zpd:_Convert_ToDouble_m954895424
fZb:__ZN19CustomRenderTexture22HandleBoundaryWrappingERKNS_14UpdateZoneInfoEj
VGi:_TextGenerationSettings_CompareColors_m3051734236
ySi:__ZN6il2cpp2vm13MetadataCache32GenerateCustomAttributeTypeCacheEi
Yof:_Single_Equals_m438106747
K6f:_StringBuilder__ctor_m2989139009
Y3d:_RuntimeResourceSet__ctor_m2765575100
zde:_TlsClientCertificate_ProcessAsSsl3_m3265529850
nr:__ZNK11UnityEngine9Animation30GenericBindingValueArrayUniqueclERKNS0_14GenericBindingES4_
Rrf:_ASCIIEncoding_GetChars_m2543669481
S2e:_BigInteger_IsProbablePrime_m567194283
QSf:_Dictionary_2_System_Collections_IDictionary_Remove_m3518952519_gshared
cof:_SecurityFrame_InitFromRuntimeFrame_m1714852458_AdjustorThunk
SYd:_MethodBuilder_GetCustomAttributes_m731278908
pGc:_Direct_Move_Y
nGc:_Direct_Move_X
oKg:__Z51RuntimeInvoker_Single_t1397266774_Double_t594665363PFvvEPK10MethodInfoPvPS4_
Ci:_glClearDepthf
o4b:__ZN19SkinnedMeshRenderer7GetMeshEv
hkb:__ZN19RuntimeSceneManager14GetActiveSceneEv
$yj:_memcpy
NIb:__ZNSt3__218__insertion_sort_3IRNS_4lessIN22BuiltinResourceManager8ResourceEEEPS3_EEvT0_S7_T_
UNe:_MultiArrayFixupRecord_FixupImpl_m1721674130
XUi:__ZN6il2cpp6icalls8mscorlib6SystemL8IsStaticEPK9EventInfo
fCc:_otv_LookupList_validate
Lgc:__Z29RectOffset_Set_Custom_PropTopP12Il2CppObjecti
IZf:_GenericEqualityComparer_1_Equals_m687841776_gshared
ckc:__Z57Register_UnityEngine_Transform_INTERNAL_get_localPositionv
YTb:__ZNSt3__27__sort4IR15ReflProbeSorterPP15ReflectionProbeEEjT0_S6_S6_S6_T_
hUa:__ZN16GraphicsSettings10SmartResetEv
F9b:__ZN19StreamedBinaryWriteILb0EE4InitE24TransferInstructionFlags20BuildTargetSelection
vKd:_FileStream_Flush_m948103572
LKi:__ZN15dense_hashtableINSt3__24pairIK10KeyWrapperIPK22Il2CppGenericParameterEP11Il2CppClassEES6_N6il2cpp5utils11PointerHashIS4_EEN14dense_hash_mapIS6_S9_SE_NS6_14EqualsComparerINS0_8equal_toIS5_EEEENS0_9allocatorISA_EEE9SelectKeyESJ_SL_E9copy_fromERKSO_j
V3e:_ASN1Convert_ToInt32_m254930636
yeb:__ZN26PlayerSettingsSplashScreen16CheckConsistencyEv
wXa:__ZN20SphericalHarmonicsL28TransferI19StreamedBinaryWriteILb0EEEEvRT_
Bgg:_UInt64_ToString_m1529093114
Q3b:__ZNK28RectTransformPropertyBinding9BindValueER6ObjectRKN11UnityEngine9Animation14GenericBindingERNS3_10BoundCurveE
wd:_emscripten_glLoadMatrixf
jpg:_Material_SetInt_m1783799378
Rmd:_Array_GetLength_m2178203778
jog:_Input_GetMouseButtonDown_m2081676745
WCd:_Int16_System_IConvertible_ToDouble_m1661805412_AdjustorThunk
Yab:__ZN4Mesh14UploadMeshDataEb
A4b:__ZN14RenderSettings12CleanupClassEv
$ic:__Z43DataUtility_CUSTOM_INTERNAL_CALL_GetPaddingP12Il2CppObjectR8Vector4f
VN:__ZN21AudioScriptingClasses26InvokeOnAudioManagerUpdateEP21ScriptingExceptionPtr
Sxa:__ZN18AsyncUploadManager15DoDeCruncherJobEP26FileAssetUploadInstruction
Ara:__ZN9GfxDevice15ImmediateNormalEfff
uyg:_Enumerator__ctor_m1351041375
Xub:__ZN13GUIStyleState8TransferI24GenerateTypeTreeTransferEEvRT_
H0:__ZN20dynamic_block_vectorI14FileIdentifierE22push_back_no_constructEv
yGj:_emscripten_glGetActiveAttrib__wrapper
K8a:__ZN9Texture3D23VirtualRedirectTransferER14SafeBinaryRead
D_h:_Array_InternalArray__set_Item_TisVector2_t2156229523_m2671087464_gshared
o3h:_Array_InternalArray__get_Item_TisVector4_t3319028937_m1117939728_gshared
jja:__ZNSt3__26vectorIN9ShaderLab20SerializedSubProgram16TextureParameterENS_9allocatorIS3_EEE8__appendEj
gni:_X509CertificateCollection_Contains_m743657353
zNf:_Array_InternalArray__ICollection_Add_TisSlot_t384495010_m3656484468_gshared
M3a:__ZN9Texture2D13UploadTextureEi
ZAc:_cff_get_cid_from_glyph_index
vK:__ZN4FMOD6System19setSoftwareChannelsEi
Usa:__ZN9GfxDevice19SetSinglePassStereoE16SinglePassStereo
yFj:_emscripten_glGenBuffers__wrapper
Zyj:_bitshift64Lshr
ztj:__ZN6il2cpp8metadata19Il2CppSignatureHash4HashERKNS_5utils13dynamic_arrayIPK10Il2CppTypeLj4EEE
Kwd:_Hashtable_System_Collections_IEnumerable_GetEnumerator_m2751657639
aJe:_HeaderHandler_Invoke_m3513051789
jYh:__ZL77CanvasScaler_t2767979955_CustomAttributesCacheGenerator_m_ReferenceResolutionP21CustomAttributesCache
vEg:__Z144RuntimeInvoker_RuntimeObject_RuntimeObject_Int32_t2950945753_RuntimeObject_RuntimeObject_RuntimeObject_RuntimeObject_RuntimeObject_RuntimeObjectPFvvEPK10MethodInfoPvPS4_
Rcg:_Type_get_IsPointer_m4067542339
b$e:_Text_get_supportRichText_m1837499160
Mhc:__Z60Register_UnityEngine_Input_INTERNAL_set_compositionCursorPosv
Erg:_Vector3_Magnitude_m3447562852
Kig:_Component__ctor_m1928064382
zAj:dynCall_viiiii
EAj:dynCall_viiiif
qyd:_SortedList_PutImpl_m3408406199
oIc:_Cubic_To
Tbe:_Context_get_Protocol_m1078422015
xec:__Z37Register_UnityEngine_Application_Quitv
ofc:__Z44Register_UnityEngine_Camera_get_farClipPlanev
Lq:__Z25InverseTransformDirection23TransformAccessReadOnlyRKN4math7_float3Eb
Mga:__ZN13RuntimeStaticINSt3__28multimapIj25DeferredSkinningOperationNS0_4lessIjEENS0_9allocatorINS0_4pairIKjS2_EEEEEELb0EE13StaticDestroyEPv
fzi:_ToggleGroup_SetAllTogglesOff_m4184050071
Bdb:__ZNK17IAnimationBinding30CurveAttributeToSerializedPathERKN11UnityEngine9Animation10BoundCurveE
$ej:__ZN6il2cpp2gc16GarbageCollector14GetOrCreateCCWEP12Il2CppObjectRK10Il2CppGuid
Qcj:__ZN6il2cpp2vm5Image21FromTypeNameParseInfoEPK11Il2CppImageRKNS0_17TypeNameParseInfoEb
oPd:_MonoCustomAttrs_IsDefined_m2996012389
Yta:__ZN17BufferManagerGLES13AcquireBufferEjN14DataBufferGLES11BufferUsageEb
AHi:_TextGenerator_PopulateAlways_m1922695746
Zwf:_Decimal__ctor_m3650533794
CUe:_MaskableGraphic_UpdateClipParent_m2605828397
tlf:_TripleDESTransform_GetStrongKey_m292426577
EUd:_AssemblyBuilder_get_Location_m384539722
nWc:__ZN16UnityAdsSettingsD0Ev
twa:__ZNK7ApiGLES10DebugLabelEN2gl10ObjectTypeEjPKc
YId:_DirectoryNotFoundException__ctor_m4004339866
Jyj:__ZNK10__cxxabiv121__vmi_class_type_info16search_below_dstEPNS_19__dynamic_cast_infoEPKvib
dHi:_TextGenerator__ctor_m1349784994
Pva:__ZN19ConstantBuffersGLES13SetCBConstantEiiPKvi
mVe:_Navigation_Equals_m317484440
Cfh:_Collection_1_System_Collections_IList_set_Item_m876512695_gshared
ajc:__Z38DataUtility_CUSTOM_Internal_GetMinSizeP12Il2CppObjectP13Vector2fIcall
P8b:__ZN8PlayableC2E17ScriptingClassPtr18DirectorPlayerType
wzg:_Vector3_Distance_m886789632
bNe:_ObjectReader_ReadObjectGraph_m1689734232
Pqg:_MonoBehaviour_StopCoroutine_m907039165
X3i:_il2cpp_class_has_attribute
C4e:_DSAManaged_get_KeySize_m2738463749
mza:__ZN6prcoreL12RemapGenericI15TexFormatRGB88817TexFormatARGB8888EEvPKNS_9InnerInfoE
Vzg:_Vector4_op_Subtraction_m1632208160
Vu:__ZN7mecanim9animation30ValueFromSkeletonPoseRecursiveERKNS_8skeleton8SkeletonERKNS1_13SkeletonPoseTIN4math4trsXEEEPKNS0_14SkeletonTQSMapEPKiRNS_10ValueArrayEii
f$:__Z27FindOrCreateMonoScriptCache17ScriptingClassPtr22InitScriptingCacheTypeP6Objecti
MAb:__Z18Transfer_BlittableI18StreamedBinaryReadILb0EELb1E8Vector3fEvRK29SerializationCommandArgumentsR31RuntimeSerializationCommandInfo
yPc:__ZN2UI14CanvasRenderer13SyncVertexPtrER8JobFenceNS0_8SyncFlagE
HEf:_CultureInfo_GetFormat_m732021304
x$:__Z35scripting_method_get_argument_count18ScriptingMethodPtr
MLa:__ZN18AssetBundleManager18SortPreloadObjectsER13dynamic_arrayIiLj4EEb
BJg:__Z46RuntimeInvoker_RuntimeObject_Double_t594665363PFvvEPK10MethodInfoPvPS4_
d5f:_EncoderReplacementFallback__ctor_m2980727890
ytd:_ArrayList_Synchronized_m1327684267
ygc:__Z20Gradient_CUSTOM_InitP12Il2CppObject
w$d:_MethodBase_get_IsPublic_m2180846589
Poc:__Z48Register_UnityEngine_GUIUtility_Internal_ExitGUIv
qVf:_DefaultComparer_Equals_m2574572657_gshared
GJd:_FileStream_get_CanWrite_m1199612770
OVb:__ZL21CullDynamicObjectsJobP14CullingJobDataj
dmc:__ZNSt3__26vectorI7GUIClipNS_9allocatorIS1_EEE21__push_back_slow_pathIKS1_EEvRT_
N_d:_TypeBuilder_get_IsGenericParameter_m1751799710
SZb:__ZN14ManagerContext17InitializeClassesEv
lLa:__ZN19StreamedBinaryWriteILb0EE21TransferSTLStyleArrayINSt3__26vectorI14ConstantStringNS2_9allocatorIS4_EEEEEEvRT_17TransferMetaFlags
czb:__ZN18StreamedBinaryReadILb1EE21TransferSTLStyleArrayI31ArrayOfManagedObjectsTransfererEEvRT_17TransferMetaFlags
vhh:_Collection_1_System_Collections_ICollection_CopyTo_m787979241_gshared
Qai:_ReadOnlyCollection_1_System_Collections_Generic_ICollectionU3CTU3E_Clear_m1551418550_gshared
QHc:_t1_hints_open
vTc:__ZN11UnityEngine15PlatformWrapper24GetVRTrackedAreaGeometryER13dynamic_arrayI8Vector3fLj4EE
rQd:_MonoType_get_AssemblyQualifiedName_m2662925380
wfc:__Z60Register_UnityEngine_Camera_INTERNAL_CALL_WorldToScreenPointv
Lif:_RSACryptoServiceProvider__ctor_m2288290917
A5d:_BigInteger_GenerateRandom_m3872771375
m0g:__Z75RuntimeInvoker_RuntimeObject_Single_t1397266774_RuntimeObject_RuntimeObjectPFvvEPK10MethodInfoPvPS4_
pJ:__ZN4FMOD7Channel11getUserDataEPPv
dDc:_UNITY_tt_face_load_gasp
a5e:_KeyPairPersistence_ProtectMachine_m1313131097
o$e:_Text_set_fontSize_m3617617524
hLc:_ft_ansi_stream_close
hm:_JS_Sound_SetPitch
X9f:_Thread_FreeLocalSlotValues_m1195763560
Unf:_String_IndexOf_m1977622757
L4i:_il2cpp_runtime_invoke_convert_args
$2c:_TouchInputModule_Process_m3715678669
CFg:__Z114RuntimeInvoker_Int32_t2950945753_RuntimeObject_Int32_t2950945753_Int32_t2950945753_RuntimeObject_Int32_t2950945753PFvvEPK10MethodInfoPvPS4_
Ssd:_ArrayList__cctor_m3052737821
M8i:__ZN6il2cpp6icalls8mscorlib6System2IO6MonoIO11GetFileStatEP12Il2CppStringPNS3_8FileStatEPi
nsa:__ZN9GfxDevice33InsertCustomMarkerCallbackAndDataEPFviPvEiS0_j
OWc:__ZN11UnityEngine15PlatformWrapper16GenerateRandomIdEv
kOb:__ZNK9ShaderLab9IntShader6GetTagE11ShaderTagIDb
kvd:_BitArray_Set_m2486900776
qQc:__ZN2UI14CanvasRenderer11SetMaterialEP8Materiali
tpf:_String__ctor_m229724522
nrh:__ZL54AssemblyName_t270931938_CustomAttributesCacheGeneratorP21CustomAttributesCache
NZa:__ZNK13RenderTexture37IsBoundMultisampledOnSecondaryTextureEv
enj:_GC_freehblk
bki:_X509ExtensionCollection__ctor_m551870633
_Yd:_MethodBuilder_MakeGenericMethod_m2175748754
fqi:_QuickSearch_Search_m3063517397
ixe:_Enumerator_Reset_m2443320674_gshared
$Gc:_ft_var_get_value_pointer
wdc:__ZN9Scripting35DestroyObjectFromScriptingImmediateEP6Objectb
yod:_AsyncCallback_Invoke_m3156993048
EWb:__ZNK6Camera48AreVRStereoViewMatricesWithinSingleCullToleranceEv
lx:__ZN7mecanim5human25HumanPoseAddAdditiveLayerERNS0_9HumanPoseERKS1_fRKNS_6bitsetILj83EEE
cHj:_glGetRenderbufferParameteriv__wrapper
D6e:_SymmetricTransform_FinalDecrypt_m1677319445
DFd:_Int32_Equals_m3996243976_AdjustorThunk
Qka:__ZN24GenerateTypeTreeTransfer8TransferINSt3__26vectorIN9ShaderLab20SerializedSubProgram12UAVParameterENS1_9allocatorIS5_EEEEEEvRT_PKc17TransferMetaFlags
qc:invoke_iiiiiiiiiiiiiii
hhj:__ZN6il2cpp2os6Thread33UnregisterCurrentThreadForCleanupEv
FJj:_emscripten_glIsRenderbuffer__wrapper
tCc:_otv_Coverage_get_first
UNc:__ZN2UI11CanvasGroup8TransferI19StreamedBinaryWriteILb0EEEEvRT_
UId:_DirectoryInfo__ctor_m1000259829
KVa:__ZNK20IntermediateRenderer8GetLayerEv
yDf:_CultureInfo_ConstructInvariant_m3774343375
r5a:__ZN15QualitySettings8TransferI14SafeBinaryReadEEvRT_
End:_Array_ClearInternal_m532048538
ctf:_DateTime__ctor_m12900168
jii:_IndexedSet_1_Insert_m1432638049_gshared
MQd:_MulticastDelegate_GetInvocationList_m4256593605
j2h:_Array_FindLast_TisRuntimeObject_m1088586648_gshared
kUe:_Mask_GetModifiedMaterial_m2692272647
blg:_CullingGroup_t2096318768_marshal_pinvoke_back
$cj:__ZNSt3__26vectorIN6il2cpp2vm5Image20EmbeddedResourceDataENS_9allocatorIS4_EEE21__push_back_slow_pathIS4_EEvOT_
X7:__GLOBAL__sub_I_runtime_utilities_0_cpp
Y1b:__ZN18BackgroundJobQueue29ScheduleMainThreadJobInternalEPFvPvES0_
UAj:dynCall_viiiiiif
vxi:_GUIUtility_EndGUIFromException_m3524906492
AZ:__ZN14SerializedFile10ReadObjectEx18ObjectCreationModebPPK8TypeTreePbR6Object
msi:_Expression_GetFixedWidth_m945658
P6g:_List_1_RemoveAll_m818254423_gshared
Tsi:_Literal_Compile_m2228022079
QIb:__ZN14dynamic_bitset6resizeEjb
jHc:_tt_property_get
kHf:_Array_InternalArray__ICollection_Contains_TisSlot_t3975888750_m58971838_gshared
aT:__ZN11UnityEngine15CloudWebService10RestClientINS0_23WebRequestRestHeaderMapEE7SetDataEPKhj
nB:__ZN7mecanim8skeleton16SkeletonPoseCopyIN4math4trsXES3_EEvPKNS0_13SkeletonPoseTIT_EEPNS4_IT0_EE
bNi:__ZN14dense_hash_mapI10KeyWrapperIPK11Il2CppClassEPKcN6il2cpp5utils11PointerHashIS1_EENS4_14EqualsComparerINSt3__28equal_toIS3_EEEENSC_9allocatorINSC_4pairIKS4_S6_EEEEE15set_deleted_keyERSI_
Soa:__ZN9GfxDevice34SetStencilRefWhenStencilWasSkippedEi
_cf:_X509Certificate2_Reset_m3988214799
DUc:__ZN11UnityEngine7Connect13ConnectConfig20RestoreTimeoutConfigERK13dynamic_arrayIiLj4EEjRS3_
pc:invoke_fi
qrj:__ZN6il2cpp6icalls8mscorlib6System10Reflection4Emit11TypeBuilder20create_runtime_classEP27Il2CppReflectionTypeBuilderS7_
gyg:_Transform_set_localScale_m3053443106
GYa:__ZN8Playable13SetInputCountEi
dX:__ZL21InternalAssertConsolePKcz
nc:invoke_ff
W5e:_RSAManaged_add_KeyGenerated_m3688329863
Nxe:_Enumerator_get_CurrentKey_m3735262888_gshared
Xgd:_HashAlgorithm_TransformFinalBlock_m3005451348
zGf:_Guid_NewGuid_m923091018
yd:_emscripten_glVertexAttrib3f
n$i:__ZN30dense_hashtable_const_iteratorINSt3__24pairIK10KeyWrapperINS1_IPK11Il2CppImageP11Il2CppClassEEEjEES9_17ReflectionMapHashIS8_EN14dense_hash_mapIS9_jSD_NS9_14EqualsComparerINS0_8equal_toIS8_EEEENS0_9allocatorISB_EEE9SelectKeyESI_SK_EppEv
Slj:__ZThn8_N6il2cpp2vm13CachedCCWBaseINS0_13ManagedObjectEE7DestroyEv
mjf:_RSAPKCS1SignatureDeformatter_SetKey_m614724234
t7f:_UnicodeEncoding_GetByteCount_m3498858619
LIf:_Array_InternalArray__ICollection_Remove_TisX509ChainStatus_t133602714_m3635989134_gshared
uhi:_UnityEvent_1_FindMethod_Impl_m555893253_gshared
CJc:__ZN20TextRenderingPrivate8TextMesh11ApplyToMeshEv
WCj:_emscripten_glDrawRangeElements__wrapper
bTa:__Z28scripting_class_is_valuetype17ScriptingClassPtr
o0b:__ZNSt3__25dequeI10InputEventNS_9allocatorIS1_EEE19__add_back_capacityEv
KFa:__ZN13ComputeShader13SetValueParamERKN9ShaderLab16FastPropertyNameEiPKv
bbb:__ZN14BlendShapeDataD2Ev
QBa:__ZL18ProgramUniform3uivPK7ApiGLESjiihPKv
Nid:_RijndaelTransform_Encrypt128_m1940909042
DPd:_MonoEnumInfo_get_Cache_m752167006
YQc:__Z47CanvasRenderer_Set_Custom_PropHasPopInstructionP12Il2CppObjecth
pqg:_Mesh_get_uv3_m3614955461
ABa:__ZN5Image8SetImageEii13TextureFormatb
O$:__ZN17MessageIdentifier21GetRegisteredMessagesEv
EV:__Z13RegisterClassI23CloudWebServicesManagerEvv
xme:_InternalEnumerator_1_get_Current_m3900374024_gshared
poi:_DelegatePInvokeWrapper_CostDelegate_t1722821004
Uud:_SynchronizedArrayListWrapper_CopyTo_m2886332653
O7e:_HybridDictionary_Remove_m2295600623
Obj:__GLOBAL__sub_I_Image_cpp
yne:_InternalEnumerator_1_get_Current_m2680116177_AdjustorThunk
K0a:__ZNSt3__27__sort5IRPFbRKNS_4pairIN9ShaderLab16FastPropertyNameEfEES6_EPS4_EEjT0_SB_SB_SB_SB_T_
H2f:_List_1_CheckMatch_m1934407508_gshared
Tsj:__ZNSt3__26vectorINS_12basic_stringIDsNS_11char_traitsIDsEENS_9allocatorIDsEEEENS4_IS6_EEE8__appendEj
F2e:_Kernel_LeftShift_m3302851050
pjj:__ZN14dense_hash_mapI10KeyWrapperIPK19Il2CppGenericMethodEP10MethodInfoN6il2cpp8metadata23Il2CppGenericMethodHashENS4_14EqualsComparerINS8_26Il2CppGenericMethodCompareEEENSt3__29allocatorINSD_4pairIKS4_S6_EEEEE15set_deleted_keyERSG_
nrb:__Z29Transfer_Blittable_ArrayFieldI14SafeBinaryRead4AABBEvRT_R9ArrayInfoRK23StaticTransferFieldInfo
Nee:_RecordProtocol_SendRecord_m515492272
yFe:_ConfigHandler_ReadProvider_m3620509535
JRh:__ZL56g_UnityEngine_UI_Assembly_CustomAttributesCacheGeneratorP21CustomAttributesCache
qSd:_Random__ctor_m4122933043
$gc:__Z46Register_UnityEngine_RectOffset_get_horizontalv
t1a:__ZN18DelayedCallManager8ClearAllEv
$Cg:__Z180RuntimeInvoker_RuntimeObject_RuntimeObject_Int32_t2950945753_RuntimeObject_Int32U26_t1369213839_BooleanU26_t4125257963_BooleanU26_t4125257963_Int32U26_t1369213839_SByte_t1669577662PFvvEPK10MethodInfoPvPS4_
alc:__Z22Mesh_CUSTOM_HasChannelP12Il2CppObject30InternalScriptingShaderChannel
h8i:__ZN6il2cpp2os8AutoLockD2Ev
lIi:_CanvasGroup_get_interactable_m1362547832
CUb:__ZNK25RenderPrePassObjectSorterclERK16RenderObjectDataS2_
Q3d:_ResourceSet_Dispose_m1823973062
gte:_InternalEnumerator_1_System_Collections_IEnumerator_get_Current_m3537550566_AdjustorThunk
nzb:__Z22TransferField_NonArrayI18StreamedBinaryReadILb1EE27Converter_SimpleNativeClassI8GUIStyleEEvRK23StaticTransferFieldInfoR31RuntimeSerializationCommandInfoRT0_
me:_Mix_LoadWAV_RW
H8d:_EncryptedPrivateKeyInfo__ctor_m25839594
eQ:__Z45AudioSource_Get_Custom_PropSpatializeInternalP12Il2CppObject
hif:_RIPEMD160Managed_HH_m90236373
lVh:__ZL84GraphicRaycaster_t2999697109_CustomAttributesCacheGenerator_m_IgnoreReversedGraphicsP21CustomAttributesCache
PYd:_MethodBuilder_Invoke_m3837446660
Zr:__ZNSt3__27__sort4IRNS_6__lessIN11UnityEngine9Animation13CachedBindingES4_EEPS4_EEjT0_S8_S8_S8_T_
U9h:_ReadOnlyCollection_1_System_Collections_IList_Clear_m12445504_gshared
Zdj:__ZN6il2cpp2gcL12alloc_handleEPNS0_10HandleDataEP12Il2CppObjectb
RGj:_emscripten_glGetAttribLocation__wrapper
gog:_Input_GetAxisRaw_m2316819917
xoi:_Enumerator_MoveNext_m55255603
WKh:__ZL57SpaceAttribute_t3956583069_CustomAttributesCacheGeneratorP21CustomAttributesCache
mbf:_WebRequest_AddDynamicPrefix_m4246631209
RUb:__Z13InitIndexListR9IndexListj
ONf:_Array_InternalArray__ICollection_Add_TisRefEmitPermissionSet_t484390987_m1720891963_gshared
K0:__ZL16ReadTypeTreeImplILb1EEbR8TypeTreeRK16TypeTreeIteratorRPKhS6_i
Vrj:__ZN6il2cpp6icalls8mscorlib6System11Diagnostics10StackTrace9get_traceEP15Il2CppExceptionib
ACe:_Dictionary_2_set_Item_m3327106492_gshared
Ee:_glBlendEquationSeparate
rm:_emscripten_glDeleteVertexArrays
Hsa:__ZN13GfxDeviceGLES17SetComputeUniformE12ObjectHandleI18ComputeProgram_TagPvER18ComputeShaderParamjPKv
nIj:b95
bri:_Parser_IsNameChar_m698176442
g1g:_List_1_RemoveAt_m3459335427_gshared
TIj:_emscripten_glValidateProgram__wrapper
_ac:__ZN13MeshScripting27PrintErrorCantAccessChannelEPK4Mesh30InternalScriptingShaderChannel
zzg:_Vector3_get_sqrMagnitude_m1474274574_AdjustorThunk
pli:_GeneralNames_ToString_m489778282
Le:_emscripten_glUniform3fv
UHf:_Array_InternalArray__ICollection_Contains_TisRaycastHit2D_t2279581989_m2733133723_gshared
Jzd:_Convert_ToByte_m1442000130
Nif:_RSACryptoServiceProvider_get_KeySize_m2654153358
P9i:__ZN6il2cpp2vm9Exception20GetArgumentExceptionEPKcS3_
qwc:__Z29Transfer_Blittable_ArrayFieldI8JSONReadiEvRT_R9ArrayInfoRK23StaticTransferFieldInfo
c2f:_Enumerator_MoveNext_m625797905_AdjustorThunk
m$h:_Array_Resize_TisCustomAttributeTypedArgument_t2723150157_m3021884250_gshared
bHj:_glDrawArrays__wrapper
EO:__ZN9AudioClip27IsFormatSupportedByPlatformERKN4core12basic_stringIcNS0_20StringStorageDefaultIcEEEE
g2a:__ZN29SerializeTraitsForStringTypesIN4core12basic_stringIcNS0_20StringStorageDefaultIcEEEEE8TransferI24GenerateTypeTreeTransferEEvRS4_RT_
Bka:__ZN9ShaderLab26SerializedShaderDependency8TransferI24GenerateTypeTreeTransferEEvRT_
Zfi:_InvokableCall_3_Invoke_m3141788616_gshared
Mpi:_PatternCompiler_EmitUntil_m3644194775
tDc:_UNITY_FT_Match_Size
Vv:__ZN7mecanim20CreateValueArrayMaskEPKNS_18ValueArrayConstantERNS_6memory9AllocatorE
j5e:_KeyPairPersistence_ToXml_m812591779
_Pd:_MonoType_GetFields_internal_m776921855
wTc:__ZN11UnityEngine7Connect14AppUpdateEventC2Ev
m3d:_ResourceReader_Dispose_m3597121875
MSa:__ZN12ImageFilters17RemoveImageFilterERK11ImageFilter
Vld:_Hashtable_CalcPrime_m550773117
Nvg:_RenderTexture_get_width_m2160921386
kje:_InternalEnumerator_1_get_Current_m3073360606_AdjustorThunk
osa:__ZN9GfxDevice31InsertCustomBlitCallbackAndDataEPFviPvER33UnityRenderingExtCustomBlitParams
VJb:__Z32AddPathRemapsForBuiltinResourcesRKN4core12basic_stringIcNS_20StringStorageDefaultIcEEEE
UXa:__ZN14RenderSettings23VirtualRedirectTransferER24GenerateTypeTreeTransfer
Fsb:__ZL26Transfer_SimpleNativeClassI17RemapPPtrTransfer17AnimationCurveTplIfELb0EEvRK29SerializationCommandArgumentsR31RuntimeSerializationCommandInfo
cPe:_InputField_set_caretWidth_m707310868
tm:_glDeleteTransformFeedbacks
xdi:_U3CCreateWhereIteratorU3Ec__Iterator1D_1_MoveNext_m612748497_gshared
qf:_JS_WebRequest_Send
hmj:__ZN6il2cpp2os4Time31GetTicks100NanosecondsMonotonicEv
Thj:__ZNSt3__26__treeINS_12basic_stringIcNS_11char_traitsIcEENS_9allocatorIcEEEENS_4lessIS6_EENS4_IS6_EEE16__construct_nodeIJRKS6_EEENS_10unique_ptrINS_11__tree_nodeIS6_PvEENS_22__tree_node_destructorINS4_ISH_EEEEEEDpOT_
TId:_MonoIO_GetFileSystemEntries_m37351365
ABd:_Convert_ToSByte_m516918950
AFj:_emscripten_glGenRenderbuffers__wrapper
kyj:__ZNK10__cxxabiv117__class_type_info24process_found_base_classEPNS_19__dynamic_cast_infoEPvi
kvg:_ReapplyDrivenProperties_Invoke_m1151937880
Mid:_RijndaelTransform_ECB_m670662322
USe:_LayoutGroup_OnDisable_m3483954898
ASi:__ZN6il2cpp2vm13MetadataCache21GetFieldInfoFromIndexEj
BPh:__ZL62EventType_t3528516131_CustomAttributesCacheGenerator_mouseDragP21CustomAttributesCache
JQ:__ZN5physx14PxLightCpuTaskD2Ev
nq:__ZNSt3__26vectorIN4core12basic_stringIcNS1_20StringStorageDefaultIcEEEENS_9allocatorIS5_EEE6assignINS_11__wrap_iterIPS5_EEEENS_9enable_ifIXaasr21__is_forward_iteratorIT_EE5valuesr16is_constructibleIS5_NS_15iterator_traitsISE_E9referenceEEE5valueEvE4typeESE_SE_
Cvg:_Vector2_get_zero_m540426400
m3i:_il2cpp_init
WHg:__Z105RuntimeInvoker_RuntimeObject_RuntimeObject_StreamingContext_t3711869237_ISurrogateSelectorU26_t3801502798PFvvEPK10MethodInfoPvPS4_
kNc:__ZNSt3__26__treeIPN2UI14CanvasRendererENS_4lessIS3_EENS_9allocatorIS3_EEE7destroyEPNS_11__tree_nodeIS3_PvEE
Zqa:__ZN13GfxDeviceGLES22UploadTextureSubData2DE9TextureIDPKhiiiiii14GraphicsFormat
jue:_DefaultComparer_Compare_m3648806637_gshared
Rkc:__Z35Register_UnityEngine_Screen_get_dpiv
Iuc:__ZN8JSONRead8TransferIxEEvRT_PKc17TransferMetaFlagsb
cxc:__ZN13SpeedTreeWind7AdvanceEbd
Kke:_InternalEnumerator_1_get_Current_m923139215_AdjustorThunk
aQi:__ZN15dense_hashtableINSt3__24pairIK10KeyWrapperIN6il2cpp5utils13dynamic_arrayIPK10Il2CppTypeLj4EEEEPFvvEEESA_NS3_8metadata19Il2CppSignatureHashEN14dense_hash_mapISA_SD_SG_NSA_14EqualsComparerINSF_22Il2CppSignatureCompareEEENS0_9allocatorISE_EEE9SelectKeyESK_SM_E12expand_arrayEjN21dense_hash_map_traits17integral_constantIbLb0EEE
CLf:_Array_FindLastIndex_TisRuntimeObject_m2929523835_gshared
ucc:__ZN9Transform16SetLocalPositionERK8Vector3f
M0b:__ZN10BootConfig4Data12InitFromFileEPPKcjS2_
JAb:__Z15Transfer_StringI18StreamedBinaryReadILb0EELb0EEvRK29SerializationCommandArgumentsR31RuntimeSerializationCommandInfo
BKc:_ft_open_face_internal
bDc:_UNITY_tt_face_free_name
VPe:_InputField_set_selectionAnchorPosition_m68980541
zCa:__ZN14DataBufferGLES3MapEjjj
VCd:_Int16_System_IConvertible_ToDouble_m1661805412
YHj:_emscripten_glGetShaderiv__wrapper
U2b:__Z13RegisterClassI9TransformEvv
tti:_Repetition_Compile_m988726715
xY:__ZNK6Camera33CalculateFarPlaneWorldSpaceLengthEv
$Zc:_BaseInput_GetButtonDown_m3789908809
l6g:_List_1_System_Collections_IList_Insert_m2401407093_gshared
mWd:_EnumBuilder_get_BaseType_m1707640163
l$i:__ZNK15dense_hashtableINSt3__24pairIK10KeyWrapperINS1_IPK11Il2CppImageP11Il2CppClassEEEjEES9_17ReflectionMapHashIS8_EN14dense_hash_mapIS9_jSD_NS9_14EqualsComparerINS0_8equal_toIS8_EEEENS0_9allocatorISB_EEE9SelectKeyESI_SK_E5beginEv
nJj:b98
Qyc:_cf2_stack_setReal
rI:__ZN4FMOD3DSP8getInputEiPPS0_PPNS_13DSPConnectionE
gN:__ZN11SoundHandle8Instance13CreateChannelERS_b
sRd:_NumberFormatter_NumberToString_m2529982306
lH:__ZN13AudioListenerD2Ev
MLc:_UNITY_FT_Done_Library
fsj:__ZN6il2cpp2os5MutexC2Eb
gmi:_PKCS12__cctor_m3271060407
Cve:_Comparer_1__cctor_m2282308543_gshared
PPc:__ZN2UI13CanvasManager17EmitDataForCameraEP6Camera
C7d:_ARC4Managed_CheckInput_m1562172012
X0f:_Enumerator_MoveNext_m4018122760_gshared
T7:___cxx_global_var_init_66
Oji:_TlsStream_ReadBytes_m2334803179
Jic:__Z44Register_UnityEngine_Material_GetTextureImplv
Bbi:_ReadOnlyCollection_1_System_Collections_IList_Add_m2445024939_gshared
d5a:__ZN19StreamedBinaryWriteILb0EE21TransferSTLStyleArrayI13dynamic_arrayI31EnlightenSystemAtlasInformationLj8EEEEvRT_17TransferMetaFlags
aKd:_FileStream_EndRead_m3904255625
oGb:__ZL8MainLoopv
u9b:__ZN17TransformInternal25CopyTransformSubhierarchyER18TransformHierarchyjS1_yyjb
xIe:_CallContextRemotingData_Clone_m14303327
vRc:__Z47Register_UnityEngine_CanvasRenderer_SetMaterialv
HJj:_emscripten_glIsShader__wrapper
D4e:_DSAManaged_get_PublicOnly_m3575594967
mMc:__Z26CleanupTextRenderingModulev
tH:__ZN13AudioListener23VirtualRedirectTransferER24GenerateTypeTreeTransfer
ilb:__ZNK12HandlerChain9EnumerateEPKcP19dynamic_block_arrayI13FileEntryInfoLj32EEbPPv19FileEnumerationFlag
Gbb:__ZThn32_N12MeshRendererD1Ev
tZa:__ZN13RenderTexture23VirtualRedirectTransferER19StreamedBinaryWriteILb0EE
Vkj:__ZN6il2cpp2vm13ComObjectBase17GetMarshalSizeMaxERK10Il2CppGuidPvjS5_jPj
gxj:_truncate
tla:__ZN9ShaderLab27SerializedShaderVectorValue8TransferI18StreamedBinaryReadILb0EEEEvRT_
rX:__ZN8Renderer21RendererBecameVisibleEv
Dwj:___stpncpy
C9:__ZN10MemoryPool16StaticInitializeEPv
Mfa:__ZN11TypeManager21CleanupGlobalInstanceEv
gCf:_Enum_ToString_m2240012010
N:Math_atan
xa:invoke_iifii
UG:__ZNK10SampleClip11GetResourceEv
w0d:_MonoEvent_get_Name_m3774595291
epa:__ZN9GfxDevice15GetStereoMatrixE21MonoOrStereoscopicEye24BuiltinShaderMatrixParamR10Matrix4x4f
COa:__ZN4core12basic_stringIcNS_20StringStorageDefaultIcEEE6resizeEj
$nc:__Z43Register_UnityEngine_Event_set_displayIndexv
uwc:__GLOBAL__sub_I_CmEventProfiler_cpp
HOg:__Z128RuntimeInvoker_RuntimeObject_RuntimeObject_SByte_t1669577662_SByte_t1669577662_SByte_t1669577662_SByte_t1669577662_RuntimeObjectPFvvEPK10MethodInfoPvPS4_
D7f:_UnicodeEncoding_GetMaxByteCount_m3053620432
dIe:_ArgInfo__ctor_m1950205784
Kdi:_Nullable_1_Equals_m4046255732_AdjustorThunk
rQa:__ZN17GlobalGameManager23VirtualRedirectTransferER24GenerateTypeTreeTransfer
DVc:__ZN19UnityConnectServiceD0Ev
Myi:_ToggleGroup_ValidateToggleIsInGroup_m3201190739
rVi:__ZN6il2cpp2vm7Runtime17GetDelegateInvokeEP11Il2CppClass
Mqg:_MonoBehaviour_StartCoroutine_Auto_Internal_m2421197418
exc:___cxx_global_var_init_128
P1d:_MonoProperty_get_PropertyType_m4138957578
dUa:__ZNSt3__26vectorIfNS_9allocatorIfEEE8__appendEjRKf
fUc:__ZN11UnityEngine15PlatformWrapper21GetCopyTextureSupportEv
puf:_DateTime_get_Month_m1566006993_AdjustorThunk
RGf:_Array_get_swapper_TisRaycastResult_t3360306849_m1267000905_gshared
Mfe:_SslClientStream__ctor_m3478574780
kO:__ZN11AudioModule27IsFormatSupportedByPlatformEPKc
mKc:_UNITY_FT_Render_Glyph
GVd:_DerivedType_GetFields_m3190137327
c$c:_EventSystem_OnDisable_m3820258344
iwc:__Z19TransferField_ArrayI8JSONRead16Converter_StringEvRK23StaticTransferFieldInfoR31RuntimeSerializationCommandInfoRT0_
Khd:_MACTripleDES_Setup_m560957914
w6b:__ZZN10MeshFilter15InitializeClassEvEN31FunctorImpl_108kDidAddComponent4CallEPviR11MessageData
zQi:__ZN15dense_hashtableINSt3__24pairIK10KeyWrapperIPK19Il2CppGenericMethodEPK26Il2CppGenericMethodIndicesEES6_N6il2cpp8metadata23Il2CppGenericMethodHashEN14dense_hash_mapIS6_SA_SE_NS6_14EqualsComparerINSD_26Il2CppGenericMethodCompareEEENS0_9allocatorISB_EEE9SelectKeyESI_SK_E6insertERKSB_
KUb:__Z19SetupShadowCullDataRK27ScriptableCullingParametersRK17ShaderReplaceDataPK22SceneCullingParametersf16ShadowProjectionR14ShadowCullData
LKa:__ZNK25ThreadsafeLinearAllocator22GetAllocatedMemorySizeEv
Sxc:_cff_size_request
L_a:__ZN15DirectorManager14ConnectionPool12SwitchBucketEP14ConnectionList
xNc:__ZN2UI11CompareFuncEPNS_6CanvasES1_
hJ:__ZN4FMOD7Channel11set3DSpreadEf
Bsj:__ZN6il2cpp2os6Memory14AlignedReAllocEPvjj
HCe:_Dictionary_2_Resize_m1156965638_gshared
d2a:__ZN24GenerateTypeTreeTransfer16TransferTypelessEPjPKc17TransferMetaFlags
PMf:_Array_InternalArray__IndexOf_TisPlayableBinding_t354260709_m3544096311_gshared
ykf:_SHA512Managed_processLength_m2162821715
RBa:__ZL18ProgramUniform4uivPK7ApiGLESjiihPKv
itg:_Vector3_get_normalized_m2454957984
F9f:_Mutex_CreateMutex_internal_m3763633491
HXh:__ZL74SpriteState_t1362986479_CustomAttributesCacheGenerator_m_HighlightedSpriteP21CustomAttributesCache
Qm:FUNCTION_TABLE_viiiiiiiiiiiiiii
Cac:__ZNK4Mesh19CanAccessFromScriptEv
b2:__Z15GetGraphicsCapsv
tEa:__ZN7ApiGLES15BindVertexArrayEN2gl6HandleILNS0_10ObjectTypeE3EEE
fRf:_Dictionary_2_System_Collections_IDictionary_Remove_m316877720_gshared
Fv:__ZN17AnimationPlayable17GetAnimationClipsER13dynamic_arrayIP13AnimationClipLj4EE
$Rb:__Z20IntersectionAABBAABBRK10MinMaxAABBS1_PS_
Mge:_SslStreamBase_get_SecurityProtocol_m596101988
UXi:__ZNSt3__212basic_stringIcNS_11char_traitsIcEENS_9allocatorIcEEE6__initIPKcEENS_9enable_ifIXsr21__is_forward_iteratorIT_EE5valueEvE4typeESA_SA_
sna:__ZN9ShaderLab20SerializedSubProgram14AddMatrixParamEPKcii15ShaderParamTypei
WLg:__Z121RuntimeInvoker_Void_t1185182177_Int32_t2950945753_Int32_t2950945753_Int32_t2950945753_Int32_t2950945753_Int32_t2950945753PFvvEPK10MethodInfoPvPS4_
hHc:_ft_var_load_item_variation_store
Zid:_DeriveBytes_set_Salt_m441577179
Qhi:_UnityEvent_3_FindMethod_Impl_m1640458315_gshared
oqh:__ZL61ConstructorBuilder_t2813524108_CustomAttributesCacheGeneratorP21CustomAttributesCache
Tnb:__Z18Transfer_BlittableI14SafeBinaryReadLb1EhEvRK29SerializationCommandArgumentsR31RuntimeSerializationCommandInfo
q$e:_Text_get_verticalOverflow_m2420459396
vga:__ZNSt3__224__buffered_inplace_mergeIRNS_4lessIN4core12basic_stringIcNS2_20StringStorageDefaultIcEEEEEENS_11__wrap_iterIPS6_EEEEvT0_SC_SC_T_NS_15iterator_traitsISC_E15difference_typeESG_PNSF_10value_typeE
cc:invoke_viifff
Gaa:__Z22DestroyObjectHighLevelP6Objectb
Nfd:_KeySizes__ctor_m3113946058
mPb:__Z26BeginRenderQueueExtractionR15RenderNodeQueuePK16RendererCullDataRK13CullingOutputPK12LODDataArray15ExtractionFlagsP18JobBatchDispatcher
VJc:__ZNK13TextRendering4Font10GetTextureEv
oj:_emscripten_glVertexAttrib3fv
cIe:_LifetimeServices__cctor_m2128864873
Meg:_UInt16_TryParse_m3193697465
m8i:__ZN6il2cpp6icalls8mscorlib6System9Threading6Thread16SetName_internalEP12Il2CppThreadP12Il2CppString
gif:_RIPEMD160Managed_GG_m3020389474
Tyf:_Decimal_op_Division_m2407964042
LPe:_InputField_get_asteriskChar_m965956856
TUa:__ZN18JobBatchDispatcherC2E11JobPriorityi
Sgd:_HashAlgorithm_Create_m644612360
Org:_Playable_get_Null_m3556999077
g2e:_BigInteger_TestBit_m1507066813
Ylc:__ZN8GUIStyle14GetBuiltinFontEv
Qra:__ZN9GfxDevice13EndFrameStatsEv
d5b:__Z7Empty2DP9Texture2DPhiiii
c_h:_Array_InternalArray__set_Item_TisRefEmitPermissionSet_t484390987_m3786305619_gshared
MFi:_DisplayBuffer_GetAllDisplayLines_m956916978
o7i:__ZN6il2cpp6icalls8mscorlib6System7Runtime15InteropServices7Marshal19copy_from_unmanagedEiiP11Il2CppArrayi
kH:__ZL34StaticDestroyAudioCustomFilterRootPv
die:_ArrayReadOnlyList_1_GetEnumerator_m3931906247_gshared
RFa:__ZN19ComputeShaderKernelD2Ev
vLi:__ZN6il2cpp2vmL17SetupEventsLockedEP11Il2CppClassRKNS_2os12FastAutoLockE
v1b:__ZN10systeminfo21GetTemporaryCachePathEv
I5b:__ZZN8Renderer15InitializeClassEvEN28FunctorImpl_138kLayerChanged4CallEPviR11MessageData
gmj:__ZN6il2cpp2os4Time29GetTicksMillisecondsMonotonicEv
pbd:_GridLayoutGroup_CalculateLayoutInputVertical_m357562599
$8f:_CompressedStack_Capture_m3327262890
kub:__Z18Transfer_BlittableI24GenerateTypeTreeTransferLb1E10Matrix4x4fEvRK29SerializationCommandArgumentsR31RuntimeSerializationCommandInfo
q2c:_StandaloneInputModule_get_repeatDelay_m1143359059
O8f:_UTF8Encoding_GetMaxByteCount_m420651053
Fsc:__ZN9JSONWrite8TransferI10Matrix4x4fEEvRT_PKc17TransferMetaFlags
Azc:_cf2_hintmap_map
Muf:_DateTime_Compare_m2855073242
p1g:_List_1_get_Item_m1651423686_gshared
iUa:__ZNK16GraphicsSettings22GetTypeVirtualInternalEv
Pcg:_Type_get_IsExplicitLayout_m1182254884
Zqb:__ZN15SerializeTraitsI5RectTIfEE8TransferI14SafeBinaryReadEEvRS1_RT_
cLa:__ZNK14SerializedFile15GetTypeIfExistsEx
vjc:__Z41Register_UnityEngine_Texture_get_wrapModev
bLc:_UNITY_FT_Raccess_Get_DataOffsets
I8b:__ZN14PlayableOutputC2EjP13PlayableGraph
GX:__ZThn32_NK8Renderer11GetMaterialEi
$6c:_FloatTween_AddOnChangedCallback_m2814315272
omj:__ZN6il2cpp6icalls8mscorlib6System7Runtime15InteropServices8GCHandle15GetTargetHandleEP12Il2CppObjectii
Rjg:_CameraCallback_Invoke_m3308824940
xcb:__ZN9InputAxis8TransferI18StreamedBinaryReadILb0EEEEvRT_
vW:__ZN13MemoryManager12GetAllocatorE10MemLabelId
J5d:_BigInteger_ToString_m3260066955
Joa:__ZN9GfxDevice29GetMinimumNodesPerGraphicsJobEv
vKh:__ZL63RuntimePlatform_t4159857903_CustomAttributesCacheGenerator_NaClP21CustomAttributesCache
uab:__ZN17BlendShapeChannel8TransferI24GenerateTypeTreeTransferEEvRT_
QZe:_Slider__ctor_m873361617
G4d:_GCHandle__ctor_m2690474163_AdjustorThunk
Rea:__ZN15DirectorManager17OnSampleFixedTimeEv
cWb:__ZNK13RendererScene21GetDynamicObjectCountEv
ZAf:_Double_Parse_m1135962389
cki:_X509Extension__ctor_m710637961
dvf:_CultureInfo_get_CurrentCulture_m1632690660
x5e:_PKCS1_OS2IP_m65970018
Ck:_Mix_HaltMusic
T7h:_ReadOnlyCollection_1_System_Collections_IList_set_Item_m70952451_gshared
Sfb:__ZNSt3__26vectorIN30RuntimeInitializeOnLoadManager9ClassInfoE13stl_allocatorIS2_L18MemLabelIdentifier13ELi16EEE8__appendEj
Sub:__ZN24GenerateTypeTreeTransfer32TransferSTLStyleArrayWithElementI23ManagedObjectTransfererEEvRT_17TransferMetaFlags
Xij:__ZN6il2cpp6icalls8mscorlib6System11Environment12get_PlatformEv
E9e:_HttpWebRequest__cctor_m1467954389
Uae:_CipherSuiteCollection_System_Collections_IList_Remove_m2463347416
B5h:_ReadOnlyCollection_1_System_Collections_IList_RemoveAt_m1980090087_gshared
Gog:_DefaultValueAttribute_GetHashCode_m3368187153
Nsj:__ZN6il2cpp6icalls8mscorlib6System7Runtime8Remoting16RemotingServices16GetVirtualMethodEP20Il2CppReflectionTypeP22Il2CppReflectionMethod
Vec:__Z42Register_UnityEngine_Behaviour_get_enabledv
Ege:_SslStreamBase_EndNegotiateHandshake_m1124299797
Aee:_SslStreamBase__ctor_m3009266308
WWi:__ZN6il2cpp2vm14TypeNameParser23ParseNestedTypeOptionalERi
zbg:_TimeSpan_get_Seconds_m1883479191_AdjustorThunk
lsj:__ZN6il2cpp2os13FastMutexImplC2Ev
l4d:_RuntimeHelpers_InitializeArray_m4077124945
Pfb:__ZN30RuntimeInitializeOnLoadManager9ClassInfo8TransferI14SafeBinaryReadEEvRT_
R5d:_BigInteger_op_Equality_m1194739960
j8f:_UTF7Encoding_GetCharCount_m2792854727
wSb:__ZL13RenderCastersiRK8Vector3fS1_RK13ShadowJobDataR17ShaderPassContextRKNSt3__26vectorI16ShadowCasterData13stl_allocatorIS9_L18MemLabelIdentifier2ELi16EEEERKNS8_I20ShadowCasterPartDataSA_ISG_LSB_2ELi16EEEERK15RenderNodeQueuebPKj
nl:_emscripten_glGetShaderInfoLog
p$e:_Text_get_horizontalOverflow_m4155575610
yNe:_ObjectReader_RecordFixup_m4125245357
xDc:_UNITY_ft_glyphslot_set_bitmap
Cl:_glUniform1i
rQe:_InputField_Validate_m4147207871
A1b:__ZN6prcoreL11inner_clearILj3EEEvPhjjj
iDf:_CCGregorianCalendar_dmy_from_fixed_m494173177
q4g:_List_1_System_Collections_IList_IndexOf_m3211997095_gshared
s5:__Z29FindReflectionProbeFromAnchorP9TransformRK4AABBRS1_RsS5_
_qd:_Byte_System_IConvertible_ToUInt64_m371883985_AdjustorThunk
PFc:_Read_CVT_Stretched
vUi:__ZN6il2cpp6icalls8mscorlib6System18CollectTypeMethodsINS_5utils10functional10TrueFilterEEEvP11Il2CppClassPKS7_jRKT_RNSt3__26vectorIPK10MethodInfoNSE_9allocatorISI_EEEERA65535_b
xGb:__Z14SetPlayerPause11PlayerPauseb
Jvd:_CollectionBase_System_Collections_ICollection_CopyTo_m2850099809
c7h:_ReadOnlyCollection_1_System_Collections_IEnumerable_GetEnumerator_m3042843502_gshared
E2c:_StandaloneInputModule_ActivateModule_m2232892298
O4d:_GCHandle_Free_m1457699368_AdjustorThunk
fag:_Thread_get_CurrentUICulture_m1397429997
qAc:_cff_done_blend
Sif:_RSACryptoServiceProvider_Dispose_m1199148535
Ead:_Graphic_RegisterDirtyLayoutCallback_m1235519898
q_:__Z30scripting_stack_trace_info_for21ScriptingExceptionPtrR14StackTraceInfo
ezg:_Vector2_op_Inequality_m3858779880
TBj:_glCompressedTexSubImage3D__wrapper
FYa:__ZN18ShadowMapJobHeaderD0Ev
IZe:_Selectable_Select_m1465131241
M$i:__ZN15dense_hashtableINSt3__24pairIK10KeyWrapperINS1_IPK12PropertyInfoP11Il2CppClassEEEjEES9_17ReflectionMapHashIS8_EN14dense_hash_mapIS9_jSD_NS9_14EqualsComparerINS0_8equal_toIS8_EEEENS0_9allocatorISB_EEE9SelectKeyESI_SK_EC2ERKSN_j
BI:__ZN15AudioReverbZone7CleanupEv
toa:__ZN10BufferGLESD0Ev
dGb:__Z20scripting_gc_disablev
Iod:_Attribute_IsDefined_m1430686743
Shf:_IntervalCollection_Optimize_m161975983
U5c:__Z9NullCheckPv
nhg:_Version__ctor_m417728625
zfa:__ZN16memory_pool_implILi68EE15AutoPoolWrapper10InitializeEPv
Ozd:_Convert_ToByte_m3567528984
jfi:_InvokableCall_1_Invoke_m3497872319_gshared
GEb:__ZN9Scripting35ErrorMessageForUnsupportedEnumFieldE17ScriptingFieldPtr
a0e:_Level2MapComparer__cctor_m1866197409
vAb:__Z29Transfer_Blittable_ArrayFieldI18StreamedBinaryReadILb1EEfEvRT_R9ArrayInfoRK23StaticTransferFieldInfo
Xee:_RecordProtocol_ReadRecordBuffer_m180543381
Zve:_Enumerator_get_CurrentKey_m2230405065_AdjustorThunk
pBi:__ZL24UnresolvedVirtualCall_10P12Il2CppObjectPK10MethodInfo
cvd:_BitArray__ctor_m2765908219
Drf:_StringComparer_get_InvariantCultureIgnoreCase_m2404489191
GGi:_Font_get_material_m1471867149
Wlj:__ZN6il2cpp6icalls8mscorlib6System7Runtime16CompilerServices14RuntimeHelpers15InitializeArrayEP11Il2CppArrayi
UGe:_Context_Freeze_m2594571993
UWc:__ZZN18UnityConnectClient23RegisterGlobalCallbacksEvEN46EarlyUpdateUnityConnectClientUpdateRegistrator7ForwardEv
k6c:_ContentSizeFitter_HandleSelfFittingAlongAxis_m3992075504
JOf:_Array_InternalArray__ICollection_CopyTo_TisInt32_t2950945753_m3102754797_gshared
_sg:_Quaternion_ToString_m2203056442
pVd:_ModuleBuilder_GetTokenGenerator_m4177350090
Dab:__ZN10Matrix4x4f8TransferI18StreamedBinaryReadILb0EEEEvRT_
lag:_Thread_Start_m2860771284
p9g:_List_1_AddEnumerable_m2295992518_gshared
yM:__ZN4FMOD7Channel19getReverbPropertiesEP29FMOD_REVERB_CHANNELPROPERTIES
oVb:__ZL23NormalizeRobustInternalRK8Vector3fRfS2_f
hxc:__GLOBAL__sub_I_modules_terrain_public_2_cpp
mPe:_InputField_get_selectionColor_m2548343601
bNf:_Array_LastIndexOf_TisRuntimeObject_m2701366436_gshared
lUi:__ZN6il2cpp6icalls8mscorlib6System8MonoType13GetInterfacesEP20Il2CppReflectionType
KT:__ZN11UnityEngine15CloudWebService25WebRequestDownloadHandler7OnAbortEv
YLb:__ZN6Camera12CustomRenderER11CullResultsR17ShaderPassContextPK21CameraRenderingParamsNS_10RenderFlagEPNS_21PerformRenderFunctionEPFvvE
pcf:_PublicKey_GetUnsignedBigInteger_m3873409673
fhj:__ZN6il2cpp2os6Thread22SetNativeThreadCleanupEPFvPvE
kZf:_GenericEqualityComparer_1_Equals_m2669134646_gshared
uec:__Z35Application_Get_Custom_PropPlatformv
B3i:_il2cpp_class_from_system_type
Rdd:_RuntimeMethodHandle__ctor_m2867240657
qsf:_DecoderFallback_get_StandardSafeFallback_m2130338133
bn:FUNCTION_TABLE_vdd
Rtb:__Z18Transfer_BlittableI24GenerateTypeTreeTransferLb1E10ColorRGBAfEvRK29SerializationCommandArgumentsR31RuntimeSerializationCommandInfo
mAa:__ZN6prcoreL17RemapGenericFloatI18TexFormatRGBAFloat16TexFormatRGFloatEEvPKNS_9InnerInfoE
MTi:__ZN6il2cpp6icalls8mscorlib6System8MonoType8get_NameEP20Il2CppReflectionType
t1e:_SimpleCollator_LastIndexOf_m2130553617
oqb:__ZNSt3__26vectorI10RectOffset13stl_allocatorIS1_L18MemLabelIdentifier1ELi16EEE8__appendEj
Tt:__ZN21AnimationClipPlayable22PrepareAnimationEventsEfR13dynamic_arrayI22AnimationClipEventInfoLj4EE
Zte:_DefaultComparer_Compare_m1920986590_gshared
icg:_TimeSpan_op_Equality_m1999885032
Oge:_SslStreamBase_get_ServerCertificates_m2154373069
xcj:__ZN6il2cpp2vmL29AddTypeToNametoClassHashTableEPK11Il2CppImagei
Ro:FUNCTION_TABLE_ff
To:FUNCTION_TABLE_fi
qEd:_NumberFormatter_ZeroTrimEnd_m3065471008
Fgi:_UnityAction_2_Invoke_m2304474703_gshared
Gjd:_X509Certificate_get_DSA_m1760272844
eag:_Thread_get_CurrentCulture_m349116646
Z9f:_Thread_Thread_internal_m4184414727
rd:_emscripten_glGetAttribLocation
EKb:__ZZ23InitPlayerLoopCallbacksvEN39PostLateUpdateResetInputAxisRegistrator7ForwardEv
mL:__ZN4FMOD12ChannelGroup14getParentGroupEPPS0_
vd:_emscripten_set_blur_callback
$ch:_Collection_1_IsValidItem_m1475436662_gshared
bya:__ZNK14ImageReference9ClipImageEiiii
y6b:__ZN4MeshC2E10MemLabelId18ObjectCreationMode
fTb:__ZN10Matrix4x4f30SetPositionAndOrthoNormalBasisERK8Vector3fS2_S2_S2_
nKa:__ZN5RectTIfE8TransferI24GenerateTypeTreeTransferEEvRT_
R5c:_ColorBlock_Equals_m518833916
sgj:__ZN6il2cpp6icalls8mscorlib6System4Enum8ToObjectEP20Il2CppReflectionTypeP12Il2CppObject
__h:_Array_qsort_TisUIVertex_t4057497605_m4120916435_gshared
mNb:__ZN12FlareManager6UpdateEv
oaj:__ZN6il2cpp6icalls8mscorlib6System4Type29GetGenericTypeDefinition_implEP20Il2CppReflectionType
tdb:__ZN27GenericSlowGarbageCollector16ProcessReferenceEi
uRf:_Dictionary_2_get_Item_m1749337561_gshared
YFe:_LifetimeServices_set_SponsorshipTimeout_m2538334028
X$h:_Array_Sort_TisCustomAttributeTypedArgument_t2723150157_m3248988944_gshared
Yvj:_fopen
Yma:__ZN20GpuProgramParameters15AddTextureParamEPKciib16TextureDimensionP16PropertyNamesSet
CLc:__ZN20TextRenderingPrivate8FontImplD2Ev
xV:__ZN19CloudServiceHandler8SaveFileERKN4core12basic_stringIcNS0_20StringStorageDefaultIcEEEEPKvj
O9i:__ZN6il2cpp2vm9Exception5RaiseEib
Omj:_GC_init
jQd:_MonoType_IsPointerImpl_m3340652279
uEj:_glFramebufferTexture2D__wrapper
Btj:__ZN6il2cpp6icalls8mscorlib6System7Runtime8Remoting7Proxies9RealProxy27InternalGetTransparentProxyEP12Il2CppObjectP12Il2CppString
Yhj:__ZN6il2cpp2vm6Method10IsInflatedEPK10MethodInfo
lmj:__ZNK6il2cpp8metadata14Il2CppTypeLessclEPK10Il2CppTypeS4_
inj:_GC_remove_header
kWa:__ZL17InstanceBufferJobIN10Instancing14RenderLoopArgsEEvP21InstanceBufferJobDataIT_E
Hfb:__ZNSt3__26vectorIi13stl_allocatorIiL18MemLabelIdentifier13ELi16EEE8__appendEj
PVe:_ReflectionMethodsCache__ctor_m3826472948
LKe:_ReturnMessage_get_OutArgs_m1641976511
OHe:_SynchronizationAttribute_IsContextOK_m324067792
Kfj:__ZN6il2cpp2vm6Object6IsInstEP12Il2CppObjectP11Il2CppClass
bxb:__Z19TransferField_ArrayI19StreamedBinaryWriteILb0EE27Converter_UnityEngineObjectEvRK23StaticTransferFieldInfoR31RuntimeSerializationCommandInfoRT0_
pWi:_RemoteSettings_CallOnUpdate_m2821567430
Uze:_Enumerator_Dispose_m3503748991_gshared
Tua:__Z16GetMSAALevelDesc9MSAALevel
yCf:_Environment_GetMachineConfigPath_m43519138
Wne:_InternalEnumerator_1_System_Collections_IEnumerator_get_Current_m4203917072_gshared
fyf:_Decimal_decimal2Int64_m2102545213
lMb:__ZN8Renderer27EnsureTransformInfoUpToDateEv
dJj:_emscripten_glFrontFace__wrapper
iDe:_Dictionary_2_System_Collections_ICollection_CopyTo_m534867526_gshared
La:invoke_fiffi
E0:__ZN14SerializedFile14SerializedType8ReadTypeILb1EEEbibRPKhS3_Pi
Sfi:_InvokableCall_1_Invoke_m1160628299_gshared
o_c:_ExecuteEvents_get_pointerEnterHandler_m1185301724
sji:_InternalAsyncResult__ctor_m2194591319
MYa:__ZN8Playable7SetTimeEd
jaa:__ZN13RuntimeStaticI12GraphicsCapsLb0EE16StaticInitializeEPv
T8a:__ZN9Texture3D17UploadToGfxDeviceEv
Stc:__Z18Transfer_BlittableI8JSONReadLb1E8Vector4fEvRK29SerializationCommandArgumentsR31RuntimeSerializationCommandInfo
DEc:_tt_cmap2_validate
GAc:_cff_cmap_unicode_done
UDe:_ActivationServices_CreateProxyFromAttributes_m3864561181
VFb:__ZN9Scripting20SendScriptingMessageER10GameObjectPKc18ScriptingObjectPtr
GPg:__Z67RuntimeInvoker_Void_t1185182177_Scene_t2348375561_Int32_t2950945753PFvvEPK10MethodInfoPvPS4_
tGb:__Z26IsSplashScreenFadeCompletev
ufc:__Z42Register_UnityEngine_Camera_get_clearFlagsv
nUi:__ZNSt3__26__treeIP11Il2CppClassNS_4lessIS2_EENS_9allocatorIS2_EEED2Ev
D_e:_Slider_FindSelectableOnRight_m3576909722
uZb:__ZN13RenderManager27UpdatePreviousFrameMatricesEv
myb:__Z35Transfer_Blittable_FixedBufferFieldI18StreamedBinaryReadILb1EExEvRK29SerializationCommandArgumentsR31RuntimeSerializationCommandInfo
n2h:_Array_InternalArray__get_Item_TisByte_t1134296376_m3566214066_gshared
sba:__Z22SetManagerPtrInContextiP6Object
qeb:__ZN14PlayerSettings8TransferI19StreamedBinaryWriteILb0EEEEvRT_
Ctc:__Z18Transfer_BlittableI8JSONReadLb0E10ColorRGBAfEvRK29SerializationCommandArgumentsR31RuntimeSerializationCommandInfo
EDf:_NumberFormatInfo_set_NumberNegativePattern_m1999304795
i7g:_List_1_System_Collections_IList_Insert_m2238786360_gshared
AXd:_GenericTypeParameterBuilder_IsSubclassOf_m2266644074
sQi:__ZN15dense_hashtableINSt3__24pairIK10KeyWrapperIN6il2cpp5utils13dynamic_arrayIPK10Il2CppTypeLj4EEEEPFvvEEESA_NS3_8metadata19Il2CppSignatureHashEN14dense_hash_mapISA_SD_SG_NSA_14EqualsComparerINSF_22Il2CppSignatureCompareEEENS0_9allocatorISE_EEE9SelectKeyESK_SM_E14squash_deletedEv
bEf:_CompareInfo_ToString_m2684143229
Kda:__ZN15DirectorManagerD2Ev
c_e:_Slider_get_maxValue_m414465787
C_i:__ZN15dense_hashtableINSt3__24pairIK10KeyWrapperINS1_IPK10MethodInfoP11Il2CppClassEEEjEES9_17ReflectionMapHashIS8_EN14dense_hash_mapIS9_jSD_NS9_14EqualsComparerINS0_8equal_toIS8_EEEENS0_9allocatorISB_EEE9SelectKeyESI_SK_E9copy_fromERKSN_j
wef:_X509CertificateEnumerator_System_Collections_IEnumerator_get_Current_m4218613192
NTc:__ZN11UnityEngine15PlatformWrapper12GetInfoFlagsEv
xWe:_Scrollbar_set_direction_m473480640
L7f:_UTF32Encoding__ctor_m1635603592
tgg:_UInt64_Equals_m1879425698_AdjustorThunk
Mti:_Uri_IsPredefinedScheme_m1188665625
WWc:__ZN18UnityConnectClient13StaticDestroyEv
Aaj:__ZN6il2cpp6icalls8mscorlib6System13Globalization11CultureInfo45construct_internal_locale_from_current_localeEP17Il2CppCultureInfo
qPf:_Array_InternalArray__ICollection_CopyTo_TisUIVertex_t4057497605_m487823430_gshared
Naf:_ServicePointManager_get_CheckCertificateRevocationList_m1645465614
kWi:_SessionStateChanged_Invoke_m1365949269
hGa:__ZN15TextureTFMethod16BindForRenderingEj
zQh:__ZL49Canvas_t3310196443_CustomAttributesCacheGeneratorP21CustomAttributesCache
WKe:_SoapMethodAttribute_SetReflectionObject_m503748123
vGf:_Guid_Equals_m3683678873_AdjustorThunk
ycj:__ZN15dense_hashtableINSt3__24pairIK10KeyWrapperINS1_IPKcS4_EEEiEES6_24NamespaceAndNamePairHashN14dense_hash_mapIS6_iS9_NS6_14EqualsComparerI26NamespaceAndNamePairEqualsEENS0_9allocatorIS8_EEE9SelectKeyESD_SF_E4findERS7_
rJc:__ZN20TextRenderingPrivate8FontImpl13CharacterInfo8TransferI19StreamedBinaryWriteILb0EEEEvRT_
ESi:__ZN6il2cpp2os19SocketHandleWrapper7ReleaseEv
dig:_BeforeRenderHelper_Invoke_m50072094
pJe:_MethodCall_get_MethodBase_m550047245
edb:__ZNSt3__27__sort4IRNS_6__lessINS_4pairIPKN5Unity4TypeE7Hash128EES8_EEPS8_EEjT0_SC_SC_SC_T_
Xac:__Z33AllocExtractMeshIndicesFromScriptRK4Meshib
loa:__ZNK11NamedObject22GetTypeVirtualInternalEv
Cti:_Uri_EscapeString_m2061933484
ape:_InternalEnumerator_1_System_Collections_IEnumerator_get_Current_m1096730143_gshared
tAd:_Convert_ToDecimal_m3815908452
nkg:_Color_op_Equality_m1112359053
dkg:_Color__ctor_m286683560_AdjustorThunk
AKd:_DelegatePInvokeWrapper_ReadDelegate_t714865915
Zvd:_CollectionBase_Clear_m1509125218
Cnc:__ZN11IMGUIModule21QueryGUIDisplayTargetE17ScriptingClassPtr
uPi:__ZNSt3__27__sort4IRN6il2cpp5utils11collections13ArrayValueMapIPK10Il2CppType17Il2CppInteropData26InteropDataToTypeConverterNS1_8metadata14Il2CppTypeLessENSA_26Il2CppTypeEqualityComparerEE12SortComparerEPS8_EEjT0_SH_SH_SH_T_
yzj:dynCall_vidi
sMd:_StreamReader_ReadToEnd_m371831293
Apg:_Mathf_RoundToInt_m1874334613
lPd:_MonoCustomAttrs_GetCustomAttributes_m1775925192
Cgc:__Z42NoAllocHelpers_CUSTOM_ExtractArrayFromListP12Il2CppObject
UCj:_glVertexAttribPointer__wrapper
ohd:_HMAC_Create_m2148924157
jzj:___udivdi3
HCf:_Exception__ctor_m1406832249
v0f:_Enumerator_System_Collections_IEnumerator_get_Current_m2339378585_gshared
Hcc:__ZN11PlayerPrefs9SetStringERKN4core12basic_stringIcNS0_20StringStorageDefaultIcEEEES6_
aqj:__ZN6il2cpp6icalls8mscorlib6System8Delegate18SetMulticastInvokeEP14Il2CppDelegate
Hve:_Enumerator_VerifyCurrent_m2197239943_gshared
uT:__ZN11UnityEngine15CloudWebService20WebRequestRestClient5BeginEv
C6b:__ZN8Material12CleanupClassEv
kwj:_fseek
uxc:__ZN16memory_pool_implILi40EE15AutoPoolWrapper10InitializeEPv
Xtf:_DateTimeFormatInfo_GetEraName_m3151483707
t7e:_PKCS12_AddCertificate_m3618696508
CM:__ZN20SoundChannelInstance11set3DSpreadEf
j_f:_HashSet_1_Init_m2976925848_gshared
er:__ZNSt3__26__sortIRN11UnityEngine9Animation11BindingSortEPNS_4pairINS2_14GenericBindingEPNS2_10BoundIndexEEEEEvT0_SB_T_
Hee:_HttpsClientStream_U3CHttpsClientStreamU3Em__0_m2058474197
cCd:_Convert_ToUInt32_m2215525276
geb:__ZN24GenerateTypeTreeTransfer32TransferSTLStyleArrayWithElementI16SplashScreenLogoEEvRT_17TransferMetaFlags
aZi:__ZN15dense_hashtableINSt3__24pairIK10KeyWrapperINS1_IPK9FieldInfoP11Il2CppClassEEEjEES9_17ReflectionMapHashIS8_EN14dense_hash_mapIS9_jSD_NS9_14EqualsComparerINS0_8equal_toIS8_EEEENS0_9allocatorISB_EEE9SelectKeyESI_SK_E6insertERKSB_
tne:_InternalEnumerator_1_get_Current_m2680116177_gshared
yNi:__ZN14dense_hash_mapI10KeyWrapperIPKcEP11Il2CppClassN6il2cpp5utils11StringUtils12StringHasherIS2_EENS3_14EqualsComparerINS7_13VmStringUtils21CaseSensitiveComparerEEENSt3__29allocatorINSF_4pairIKS3_S5_EEEEEC2EjRKSA_RKSE_
Rca:__Z37InitializeIntermediateRendererManagerPv
n9i:__ZN6il2cpp2vm13LivenessState16AddProcessObjectEP12Il2CppObjectPS1_
uqf:_String_IndexOfOrdinal_m962178384
phd:_HMACMD5__ctor_m3129799368
PWd:_TypeBuilder_GetEvent_m2166527753
Aad:_Graphic_CrossFadeColor_m678806803
haa:__ZN23DefaultMeshVertexFormatC2E17ShaderChannelMask
Hyb:__ZL26Transfer_SimpleNativeClassI18StreamedBinaryReadILb1EE8GradientLb1EEvRK29SerializationCommandArgumentsR31RuntimeSerializationCommandInfo
iJg:__Z102RuntimeInvoker_Int32_t2950945753_RuntimeObject_Int32_t2950945753_CharU26_t1697032762_SByte_t1669577662PFvvEPK10MethodInfoPvPS4_
AQd:_MonoType_get_Namespace_m2015358851
kii:_IndexedSet_1_RemoveAt_m3002732320_gshared
xxd:_HashKeys_CopyTo_m4219627824
TOe:_InputField_GetLineStartPosition_m2947412579
wua:__ZN7ApiGLES10InvalidateERK14GfxContextGLES
apd:_Convert_ToType_m2406080310
hai:_ReadOnlyCollection_1_IndexOf_m2659941036_gshared
B9h:_ReadOnlyCollection_1_System_Collections_IList_set_Item_m3570269385_gshared
jVh:__ZL85Graphic_t1660335611_CustomAttributesCacheGenerator_Graphic_OnPopulateMesh_m2916877004P21CustomAttributesCache
u7c:_DefaultControls_CreateToggle_m1236643913
b4e:_BitConverterLE_ToSingle_m1153793442
isj:__ZN6il2cpp2os5Mutex7TryLockEjb
NCd:_Int16_System_IConvertible_ToByte_m3161982419
V4:__Z20IsVectorBuiltinParamPKcPi
kfj:__ZN6il2cpp2vm5Field8GetFlagsEP9FieldInfo
_hd:_MD5CryptoServiceProvider_HashFinal_m2625727830
T_h:_Array_qsort_TisRaycastResult_t3360306849_m3861320071_gshared
Pof:_Single_System_IConvertible_ToUInt32_m289030200
S7i:__ZN6il2cpp6icalls8mscorlib6System10ReflectionL16LoadResourceFileEP24Il2CppReflectionAssembly
xAf:_Double_System_IConvertible_ToDouble_m3692611612
g0:__Z13IsFileCreatedRKN4core12basic_stringIcNS_20StringStorageDefaultIcEEEE
B$e:_Text_OnPopulateMesh_m1525268284
LJd:_FileStream_FlushBuffer_m914568182
r4a:__ZN16LightmapSettings18TransferDeprecatedI14SafeBinaryReadEEvRT_
i7f:_StringBuilder_AppendFormat_m921870684
gfj:__ZN15dense_hashtableINSt3__24pairIK10KeyWrapperIP12Il2CppObjectEN6il2cpp2gc9CachedCCWEEES5_NS7_5utils11PointerHashIS3_EEN14dense_hash_mapIS5_S9_SD_NS5_14EqualsComparerINS0_8equal_toIS4_EEEENS0_9allocatorISA_EEE9SelectKeyESI_SK_E5eraseE30dense_hashtable_const_iteratorISA_S5_SD_SM_SI_SK_E
Awd:_Hashtable__ctor_m1684344284
ry:__ZThn152_NK26AnimatorControllerPlayable41GetStateMachineBehaviourVectorDescriptionEv
vld:_Activator_CheckAbstractType_m2015247896
Xif:_RSACryptoServiceProvider_ImportParameters_m614616705
I7:__GLOBAL__sub_I_runtime_camera_renderloops_1_cpp
Ede:_SslHandshakeHash_CreateSignature_m1634235041
sye:_ShimEnumerator_get_Current_m3504536618_gshared
bUa:__ZN12FlareManager9AddCameraER6Camera
cYc:__ZN15UnityWebRequestD0Ev
CTe:_LayoutRebuilder_U3CRebuildU3Em__3_m523803689
tN:__ZN11AudioSource8TransferI14SafeBinaryReadEEvRT_
vJd:_FileNotFoundException__ctor_m2477162036
BVf:_EqualityComparer_1__cctor_m149356781_gshared
Gxf:_Decimal_System_IConvertible_ToDouble_m3125524987
ov:__ZN7mecanim9animation23TransformDeltasFromClipEiiiRKNS0_18ClipMuscleConstantERKNS0_12ClipBindingsERKNS_14ValueArrayMaskERN4math4trsXESC_SC_
uBb:__Z18Transfer_BlittableI18StreamedBinaryReadILb0EELb0E12PropertyNameEvRK29SerializationCommandArgumentsR31RuntimeSerializationCommandInfo
pzj:___divdi3
fma:__ZN9ShaderLab9IntShader26CreateFromSerializedShaderERKNS_16SerializedShaderERNSt3__26vectorI4PPtrI6ShaderENS4_9allocatorIS8_EEEEbPS7_
Noi:_Match_get_Empty_m2060287462
fnb:__ZN19ShaderPropertySheet16SetComputeBufferEN9ShaderLab16FastPropertyNameE15ComputeBufferIDNS_8SetFlagsE
hrg:_U3CInvokeMessageIdSubscribersU3Ec__AnonStorey0_U3CU3Em__0_m444206473
HRf:_Dictionary_2_ContainsValue_m256968015_gshared
zjj:__ZNK15dense_hashtableINSt3__24pairIK10KeyWrapperIPK19Il2CppGenericMethodEP10MethodInfoEES6_N6il2cpp8metadata23Il2CppGenericMethodHashEN14dense_hash_mapIS6_S9_SD_NS6_14EqualsComparerINSC_26Il2CppGenericMethodCompareEEENS0_9allocatorISA_EEE9SelectKeyESH_SJ_E5beginEv
Xhe:_ArrayReadOnlyList_1_get_Item_m1974867852_gshared
vcd:_Image_AddQuad_m969836764
o0e:_MSCompatUnicodeTable_IsIgnorableNonSpacing_m47098938
Oih:_Collection_1_IsSynchronized_m2655903966_gshared
rFd:_Int32_System_IConvertible_ToSingle_m896140682_AdjustorThunk
sv:__ZN7mecanim21CreateFloatValueArrayEPKNS_18ValueArrayConstantERNS_6memory9AllocatorE
uWb:__ZL12CullGroupJobP20CullingGroupsJobDataj
Gnj:_GC_remove_dangling_disappearing_links
lU:__ZN11UnityEngine15CloudWebService14RestDownloader9IsAbortedEv
Ay:__ZN7mecanim12statemachine28DestroyStateMachineWorkspaceEPNS0_21StateMachineWorkspaceERNS_6memory9AllocatorE
soc:__Z30GUIStyle_CUSTOM_SetDefaultFontP12Il2CppObject
qwe:_Enumerator_System_Collections_IDictionaryEnumerator_get_Key_m3435754782_AdjustorThunk
io:FUNCTION_TABLE_f
Wo:FUNCTION_TABLE_i
Nri:_AnchorInfo_get_Position_m1133366486
qMd:_StreamReader_FindNextEOL_m2574298119
Qfa:__ZN11TypeManager12RegisterTypeERK20TypeRegistrationDesc
Bn:FUNCTION_TABLE_v
iab:__ZNSt3__26vectorI17BlendShapeChannelNS_9allocatorIS1_EEE8__appendEj
Ep:__ZN18StreamedBinaryReadILb0EE21TransferSTLStyleArrayI13dynamic_arrayI8Vector3fLj4EEEEvRT_17TransferMetaFlags
KKb:__ZZ23InitPlayerLoopCallbacksvEN43PostLateUpdateUpdateAllRenderersRegistrator7ForwardEv
ghb:__ZN21LightProbeProxyVolume13GetRenderDataER27LightProbeProxyVolumeSample
tGe:_Context_get_ContextProperties_m3283598326
Reh:_Collection_1_System_Collections_IList_set_Item_m4249768453_gshared
BGi:_Keyboard_PlayRandomSound_m629210842
Mcb:__ZN11TimeManager8TransferI24GenerateTypeTreeTransferEEvRT_
jqc:__ZN8JSONRead8TransferItEEvRT_PKc17TransferMetaFlagsb
Rr:__ZNK11UnityEngine9Animation28GenericAnimationBindingCache10BindCustomERKNS0_14GenericBindingER9TransformRNS0_10BoundCurveE
sXi:__ZN6il2cpp2vm17TypeNameParseInfoC2ERKS1_
zVc:__ZN18UnityConnectClient17InitConnectClientEv
Muj:_memcmp
FCd:_GuidParser_ParseHexPrefix_m3148550086
tUc:__ZN11UnityEngine7Connect18ConnectSessionInfo8TransferER9JSONWrite
qQ:__Z74Register_UnityEngine_AudioListener_INTERNAL_CALL_ReadExtensionPropertyNamev
x_h:_Array_InternalArray__set_Item_TisHitInfo_t3229609740_m1576844560_gshared
acb:__ZN9Scripting32GetCachedPtrFromScriptingWrapperE18ScriptingObjectPtr
dge:_SslClientStream_OnBeginNegotiateHandshake_m3734240069
mPc:__ZN2UI29ScheduleUIJobsForInstructionsERNS_7BatchesEjPKNS_13UIInstructionEfjjPNS_13CanvasJobDataE
$K:__ZN5audio5mixer22CreateAudioMixerMemoryERKNS0_18AudioMixerConstantEPN4FMOD6SystemERN7mecanim6memory9AllocatorEib
wEb:__ZL65EmitSerializationCommandsForLinearCollectionOfManagedObjectsFieldRK31TransferFunctionScriptingTraitsRK23TransferArrayField_InfoR20SerializationCommandR32SerializationCommandQueueBuilderRP20AllowNameConversions
$1h:_LayoutGroup_SetProperty_TisInt32_t2950945753_m3911895589_gshared
cV:__ZN11UnityEngine15CloudWebService19SessionEventManager31SetupNextActiveSessionContainerEv
NCg:__Z121RuntimeInvoker_Void_t1185182177_Int32_t2950945753_Int32_t2950945753_Int32_t2950945753_SByte_t1669577662_SByte_t1669577662PFvvEPK10MethodInfoPvPS4_
pKg:__Z52RuntimeInvoker_Single_t1397266774_Single_t1397266774PFvvEPK10MethodInfoPvPS4_
nud:_FixedSizeArrayListWrapper_InsertRange_m1706982628
Pgg:_UIntPtr_ToString_m984583492_AdjustorThunk
mIb:__ZL20ShaderWarmupFuncImplP6ShaderiPN9ShaderLab4PassERK16ShaderKeywordSetP10DynamicVBOPvR17ShaderPassContext
kJb:__ZN13GfxDeviceGLESC2E10MemLabelId
ZGi:_TextGenerationSettings_Equals_m3618607189
kPi:__ZN15dense_hashtableI10KeyWrapperIPK17Il2CppGenericInstES4_N6il2cpp8metadata21Il2CppGenericInstHashEN14dense_hash_setIS4_S7_NS4_14EqualsComparerINS6_24Il2CppGenericInstCompareEEENSt3__29allocatorIS4_EEE8IdentityESB_SE_E6insertERKS4_
rYi:__ZN15dense_hashtableINSt3__24pairIK10KeyWrapperINS1_IPK14Il2CppAssemblyP11Il2CppClassEEEjEES9_17ReflectionMapHashIS8_EN14dense_hash_mapIS9_jSD_NS9_14EqualsComparerINS0_8equal_toIS8_EEEENS0_9allocatorISB_EEE9SelectKeyESI_SK_E3endEv
l9f:_NativeEventCalls_ResetEvent_internal_m885886540
CPd:_MonoEnumInfo_get_enum_info_m1661176095
mvi:_GUIUtility_CheckOnGUI_m3924092168
wva:__ZN14DataBufferGLES12RecordUpdateEv
bke:_InternalEnumerator_1_get_Current_m1481634550_gshared
wKc:__ZN20TextRenderingPrivate15DynamicFontData28GetFaceForFontRefFromOSFontsERKNS_7FontRefE
fde:_Context_ClearKeyInfo_m1155154290
mtg:_Ray_GetPoint_m1852405345
Pfj:__ZN6il2cpp2vm12GenericClass12SetupMethodsEP11Il2CppClass
amb:__ZNK20LocalFileSystemPosix18GetApplicationPathEv
U8g:_List_1_set_Item_m658432263_gshared
tEb:__ZN9Scripting30IsSystemCollectionsGenericListE17ScriptingClassPtr
_1:__ZN21ScalableBufferManager20GetHeightScaleFactorEv
wSf:_Dictionary_2_Add_m1279427033_gshared
HPc:__ZN2UI23InitializeCanvasManagerEv
wQa:__ZN10GameObject16CheckConsistencyEv
D1c:_PointerInputModule_GetMousePointerEventData_m4273240034
y4b:__ZN14RenderSettings15InitializeClassEv
B3c:_AspectRatioFitter_set_aspectMode_m4140288987
tgc:__Z46Register_UnityEngine_GameObject_get_activeSelfv
Aya:__ZL35stbir__resample_horizontal_upsampleP11stbir__infoPf
f0g:__Z82RuntimeInvoker_RuntimeObject_RaycastResult_t3360306849_RuntimeObject_RuntimeObjectPFvvEPK10MethodInfoPvPS4_
Gah:_Enumerator__ctor_m3419056812_AdjustorThunk
Epe:_InternalEnumerator_1_System_Collections_IEnumerator_get_Current_m1299775605_gshared
Qtb:__Z18Transfer_BlittableI24GenerateTypeTreeTransferLb0E10ColorRGBAfEvRK29SerializationCommandArgumentsR31RuntimeSerializationCommandInfo
UTf:_DefaultComparer_Equals_m1713730345_gshared
mOc:__ZN2UI16GetCanvasManagerEv
abc:__ZN15GUIEventManager8PopEventER10InputEvent
Igc:__Z31RectOffset_Get_Custom_PropRightP12Il2CppObject
MMc:__Z54Register_UnityEngine_TextGenerator_GetVerticesInternalv
oid:__Z3BoxP11Il2CppClassPv
uog:_Input_get_touchSupported_m1480684970
sbd:_GridLayoutGroup_SetLayoutVertical_m2106427802
Lqg:_MonoBehaviour_StartCoroutine_m3411253000
mGa:__ZN21UniformBufferTFMethodD2Ev
cpe:_InternalEnumerator_1_System_Collections_IEnumerator_get_Current_m1096730143_AdjustorThunk
gdc:__ZL34GetComponentsImplementationRecurseILb1ELi1ELi2EEbR10GameObjectbRK17CompareParametersRK39GetComponentsImplementation_ReturnValue
fza:__ZN6prcoreL12RemapGenericI15TexFormatRGB56515TexFormatRGB888EEvPKNS_9InnerInfoE
xqj:__ZN6il2cpp5utils10MemoryPool9AddRegionEj
Hcf:_X509Certificate2__ctor_m3336405942
pad:_Graphic_get_workerMesh_m997382591
slc:__Z38PlayableHandle_CUSTOM_IsValid_InjectedP9HPlayable
Lmd:_Array_System_Collections_IList_RemoveAt_m41405158
s5c:_CanvasUpdateRegistry_IsRebuildingLayout_m3530790142
NQc:__Z41CanvasGroup_Get_Custom_PropBlocksRaycastsP12Il2CppObject
ulj:__ZN6il2cpp2os11Environment17GetProcessorCountEv
Iha:__ZNSt3__26vectorIN9ShaderLab26SerializedShaderDependencyENS_9allocatorIS2_EEE8__appendEj
Vaa:__ZN32TransformHierarchyChangeDispatch26DispatchSelfAndAllChildrenE15TransformAccessNS_12InterestTypeE
wQ:__Z46Register_UnityEngine_AudioSource_get_isPlayingv
tTc:__ZN11UnityEngine15PlatformWrapper21GetVRDeviceMirrorModeEv
b$c:_EventSystem_OnEnable_m3237278246
cca:__ZN13RuntimeStaticI22VirtualJoystickManagerLb0EE13StaticDestroyEPv
Ggf:_Interpreter_Balance_m1978770534
zH:__ZN13AudioListener12ApplyFiltersEv
a9g:_List_1_System_Collections_IList_Contains_m353431064_gshared
YAi:_AudioConfigurationChangeHandler_BeginInvoke_m4104069447
esj:__ZN6il2cpp8metadata27Il2CppGenericContextCompare7CompareEPK20Il2CppGenericContextS4_
yAj:dynCall_viiii
ZDf:_CompareInfo_IsPrefix_m796715920
jLi:__ZNK15dense_hashtableINSt3__24pairIK10KeyWrapperIPK22Il2CppGenericParameterEP11Il2CppClassEES6_N6il2cpp5utils11PointerHashIS4_EEN14dense_hash_mapIS6_S9_SE_NS6_14EqualsComparerINS0_8equal_toIS5_EEEENS0_9allocatorISA_EEE9SelectKeyESJ_SL_E23find_position_with_hashERS7_j
M6d:_PrimalityTest_Invoke_m2948246884
zMb:__Z11CopyTextureP7TextureiiS0_ii
rie:_ArrayReadOnlyList_1_Contains_m2459654648_gshared
TRh:__ZL65EventTrigger_t1076084509_CustomAttributesCacheGenerator_delegatesP21CustomAttributesCache
wXi:__ZNSt3__214__split_bufferIN6il2cpp2vm17TypeNameParseInfoERNS_9allocatorIS3_EEED2Ev
d8g:_List_1_System_Collections_IList_Contains_m3717811284_gshared
r0d:_MonoEvent_get_Attributes_m3048829315
Zub:__Z22TransferField_NonArrayI24GenerateTypeTreeTransfer27Converter_SimpleNativeClassI8GUIStyleEEvRK23StaticTransferFieldInfoR31RuntimeSerializationCommandInfoRT0_
Uea:__ZN15DirectorManager14ConnectionPool16GrowEmptyBucketsEv
Gvd:_CaseInsensitiveHashCodeProvider_AreEqual_m3534448780
SY:__ZN17PersistentManager32CopyToAwakeFromLoadQueueInternalER18AwakeFromLoadQueue
i7b:__ZN10GameObject15InitializeClassEv
hMg:__Z104RuntimeInvoker_Boolean_t97287965_Int32_t2950945753_Int64U5BU5DU26_t194432655_StringU5BU5DU26_t2154486980PFvvEPK10MethodInfoPvPS4_
kLg:__Z106RuntimeInvoker_RuntimeObject_Int16_t2552820387_RuntimeObject_BooleanU26_t4125257963_BooleanU26_t4125257963PFvvEPK10MethodInfoPvPS4_
fMb:__ZNK6Camera16SetActiveVRUsageEv
rWe:_Scrollbar_set_handleRect_m1170237786
guc:__ZL26Transfer_SimpleNativeClassI8JSONRead8GradientLb1EEvRK29SerializationCommandArgumentsR31RuntimeSerializationCommandInfo
nvj:_open
Vni:_X509CrlEntry_get_SerialNumber_m3627212772
t7i:__ZN6il2cpp6icalls8mscorlib6System5Array5CloneEP11Il2CppArray
BZb:__Z30GetPlayerShouldRunInBackgroundv
ZPc:__Z13RegisterClassIN2UI6CanvasEEvv
Jpg:_Mathf__cctor_m1175545152
y0d:_MonoEvent_IsDefined_m10931749
S8e:_NameValueCollection_AsSingleString_m3776180906
$ya:__ZN6prcoreL12RemapGenericI11TexFormatI815TexFormatRGB565EEvPKNS_9InnerInfoE
mFd:_Int32_System_IConvertible_ToInt64_m3520470966
Dua:__ZNK13TranslateGLES17FramebufferTargetEN2gl17FramebufferTargetE
sij:__ZL11on_gc_event11GCEventType
Ype:_InternalEnumerator_1_System_Collections_IEnumerator_get_Current_m1612699335_gshared
Zbe:_TlsServerHello__ctor_m3887266572
Skg:_Coroutine_ReleaseCoroutine_m809189848
IEj:b62
tEj:b61
vDj:b60
ZFj:b67
YFj:b66
NEj:b65
$Fj:b69
_Fj:b68
woi:_Enumerator_get_Current_m359737019
uTa:__ZNSt3__26__treeINS_12__value_typeIi17ShadowCachingDataEENS_19__map_value_compareIiS3_NS_4lessIiEELb1EEE13stl_allocatorIS3_L18MemLabelIdentifier66ELi16EEE7destroyEPNS_11__tree_nodeIS3_PvEE
Vod:_BitConverter_ToInt64_m349022421
rbc:__Z9SetIIMGUIP6IIMGUI
o4g:_List_1_System_Collections_IList_Add_m1142950911_gshared
jEc:_tt_cmap10_get_info
VGb:__Z28SetupPixelCorrectCoordinatesi
m9b:__ZNSt3__218__insertion_sort_3IRN10vector_mapIiiNS_4lessIiEE13stl_allocatorINS_4pairIiiEEL18MemLabelIdentifier1ELi16EEE13value_compareEPS6_EEvT0_SD_T_
Yua:__Z5SplitRKN4core12basic_stringIcNS_20StringStorageDefaultIcEEEEcRNSt3__26vectorIS3_NS6_9allocatorIS3_EEEEi
qnb:__ZN11MonoManager23VirtualRedirectTransferER24GenerateTypeTreeTransfer
nyi:_AesTransform__ctor_m3143546745
yIf:_Array_InternalArray__ICollection_Remove_TisRuntimeObject_m2110193223_gshared
EPh:__ZL64EventType_t3528516131_CustomAttributesCacheGenerator_scrollWheelP21CustomAttributesCache
uqg:_Mesh_SetTangents_m1615111656
N8b:__ZN13PlayableGraph16DestroyRecursiveEP8Playable
L9i:__ZN6il2cpp2vm9Exception20GetArgumentExceptionERKNS_5utils10StringViewIDsEES6_
U9g:_Enumerator_System_Collections_IEnumerator_Reset_m1487823313_AdjustorThunk
HJe:_MethodCallDictionary__cctor_m2213329406
KH:__ZN12AudioManagerD0Ev
ePe:_InputField_set_textComponent_m2547304131
Tb:invoke_viiififii
T0e:_SortKeyBuffer_Initialize_m3786111493
Qva:__ZN10Matrix3x3faSERK10Matrix4x4f
IZh:__ZL58IVertexModifier_t3404627876_CustomAttributesCacheGeneratorP21CustomAttributesCache
vdb:__ZNK22GenericPropertyBinding13SetFloatValueERKN11UnityEngine9Animation10BoundCurveEf
w5f:_Encoding__cctor_m1936558127
d6g:_List_1__ctor_m163821521_gshared
Shd:_MD5_Create_m3289886172
Osg:_QualitySettings_set_vSyncCount_m3131636076
Qlf:_X509Certificate_get_Subject_m2638144878
TKc:_raccess_guess_darwin_ufs_export
xig:_AsyncOperation_Finalize_m1841265672
dKb:__ZN11TypeManager18InitializeAllTypesEv
NOe:_InputField_MarkGeometryAsDirty_m817808086
$Se:_LayoutGroup_get_isRootLayoutGroup_m1082645254
FF:__ZN9AudioClipD0Ev
G3i:_il2cpp_class_from_name
uVb:__ZN13dynamic_arrayI11ActiveLightLj4EE26emplace_back_uninitializedEv
KVe:_RectMask2D_OnDisable_m809267607
Xze:_Enumerator_MoveNext_m2602845255_AdjustorThunk
wah:_Queue_1__ctor_m1971992302_gshared
fx:__ZN27AnimationLayerMixerPlayable26ProcessAnimationLayerBeginEP35AnimationPlayableEvaluationConstantP32AnimationPlayableEvaluationInputP33AnimationPlayableEvaluationOutput
v2b:__Z13RegisterClassI8GUILayerEvv
F0b:__ZN25ThreadsafeLinearAllocatorC2EiiPKc
Zpg:_Mesh_GetIndicesImpl_m3233954035
YPd:_MonoType_GetEvent_m28975240
LCa:__ZN14GfxContextGLES11MakeCurrentER7ApiGLESN2gl13ContextHandleE
m_h:_Array_InternalArray__set_Item_TisUInt16_t2177724958_m1951465847_gshared
hKd:_MonoIO_Write_m3999708352
NBj:dynCall_viffffi
uOf:_Array_InternalArray__ICollection_CopyTo_TisChar_t3634460470_m3599063464_gshared
k8f:_UTF7Encoding_InternalGetChars_m2722395139
zuf:_DateTime_get_Today_m2788644320
jIb:__ZN16GraphicsSettings22WarmupPreloadedShadersEv
$Rc:__Z34Canvas_Set_Custom_PropSortingOrderP12Il2CppObjecti
wed:_SByte_System_IConvertible_ToSingle_m1083054891
roi:_CostDelegate_Invoke_m898648402
d8f:_UTF7Encoding_Equals_m227704363
Ylg:_DisplaysUpdatedDelegate_Invoke_m3203573844
mCb:__ZN18StreamedBinaryReadILb0EE8TransferI13dynamic_arrayI12PropertyNameLj4EEEEvRT_PKc17TransferMetaFlags
yma:__ZN9ShaderLab4Pass6RetainEv
V4e:_KeyPairPersistence_get_ContainerName_m4274536094
Wv:__ZN7mecanim9animation22CopyAnimationNodeStateEPKNS0_18AnimationNodeStateEPS1_bbRKNS_6bitsetILj83EEE
ocb:__Z10AddGUIAxesR13dynamic_arrayI9InputAxisLj4EE
ab:invoke_iiiiiiffiiiiiiiiiffffiii
nug:_Rect_op_Equality_m3986168348
oxe:_Enumerator_System_Collections_IDictionaryEnumerator_get_Key_m4039922590_AdjustorThunk
oNc:__ZN2UI6Canvas8TransferI14SafeBinaryReadEEvRT_
DZi:__ZN6il2cpp2gc19AppendOnlyGCHashMapIPK10Il2CppTypeP20Il2CppReflectionTypeNS_8metadata14Il2CppTypeHashENS7_26Il2CppTypeEqualityComparerEE3AddERKS4_S6_
oR:__ZN11UnityEngine15CloudWebService17CloudJobScheduler11ScheduleJobEPFvPvES2_
p1e:_SimpleCollator_IsSuffix_m1291687763
yS:__ZN11UnityEngine15CloudWebService17CloudServiceEvent12ToJsonStringER9JSONWrite
xbe:_TlsClientHello__ctor_m1986768336
Hca:__ZNK18VertexChannelsInfoltERKS_
HNg:__Z89RuntimeInvoker_Boolean_t97287965_Int32_t2950945753_Int32U26_t1369213839_Int32_t2950945753PFvvEPK10MethodInfoPvPS4_
Rbc:__Z18SetTargetFrameRatei
vrd:_Char_System_IConvertible_ToType_m4138905176_AdjustorThunk
fqc:__ZN9JSONWrite8TransferIfEEvRT_PKc17TransferMetaFlags
Uwf:_DBNull_System_IConvertible_ToUInt16_m643477279
UOa:__ZN10MemoryFileD0Ev
Xcc:__ZN10MonoScript27InitializeAndRegisterScriptERKN4core12basic_stringIcNS0_20StringStorageDefaultIcEEEES6_S6_S6_b
Ghj:__ZN6il2cpp2os10ThreadImpl22SetNativeThreadCleanupEPFvPvE
cwf:_DateTimeOffset__cctor_m3610253033
zDf:_NumberFormatInfo_get_InvariantInfo_m349577018
ard:_Byte_CompareTo_m4285128861_AdjustorThunk
SFe:_ConfigHandler_ExtractAssembly_m2143791058
Tdj:__ZN6il2cpp8metadataL24RecursiveGenericDepthForEPK17Il2CppGenericInst
vyg:_Transform_GetChild_m1092972975
Qpb:__ZN13GUIStyleState8TransferI14SafeBinaryReadEEvRT_
Md:_glDrawArrays
VAi:_AudioSource_get_clip_m1234340632
x3d:_ResourceCacheItem_t51292791_marshal_pinvoke_back
TD:__ZN23AnimatedPropertyBuilder5BuildEP13AnimationClip18ScriptingObjectPtr
yab:__ZN14BlendShapeData8TransferI18StreamedBinaryReadILb0EEEEvRT_
WFc:_Round_To_Grid
NEc:_UNITY_FT_Stream_Close
t$c:_EventTrigger_OnPointerClick_m1385968891
Kfg:_UInt32_ToString_m4293943134_AdjustorThunk
Hvg:_Renderer_get_sortingLayerID_m3902855301
Mhf:_Interval_CompareTo_m3282557545_AdjustorThunk
sue:_Comparer_1__cctor_m1018589532_gshared
YLg:__Z54RuntimeInvoker_TimeSpan_t881159249_TimeSpan_t881159249PFvvEPK10MethodInfoPvPS4_
nga:__ZL20FormatOrderedProcessPKcP17FormatOrderedDataPc
VOf:_Array_InternalArray__ICollection_CopyTo_TisResourceCacheItem_t51292791_m766230259_gshared
asf:_Decoder_set_Fallback_m3834517714
Qfc:__Z35DebugLogHandler_CUSTOM_Internal_Log7LogTypeP12Il2CppStringP12Il2CppObject
nca:__ZNSt3__26__treeINS_12__value_typeI18VertexChannelsInfoP16MeshVertexFormatEENS_19__map_value_compareIS2_S5_NS_4lessIS2_EELb1EEE13stl_allocatorIS5_L18MemLabelIdentifier17ELi16EEE7destroyEPNS_11__tree_nodeIS5_PvEE
lYh:__ZL76CanvasScaler_t2767979955_CustomAttributesCacheGenerator_m_MatchWidthOrHeightP21CustomAttributesCache
GEj:_emscripten_glShaderBinary__wrapper
UBa:__ZL17ProgramUniform3ivPK7ApiGLESjiihPKv
btd:_ArrayList_Shift_m395607654
Bqa:__ZN9GfxDevice25GetBackBufferColorSurfaceEv
lPa:__ZN25SingleBlockMemoryFileData9SetLengthEy
z9b:__Z29AwakeAndActivateClonedObjectsPP6ObjectRK10vector_mapIiiNSt3__24lessIiEE13stl_allocatorINS3_4pairIiiEEL18MemLabelIdentifier1ELi16EEE
s2i:__ZN15dense_hashtableINSt3__24pairIK10KeyWrapperINS1_IPK10MethodInfoP11Il2CppClassEEEjEES9_17ReflectionMapHashIS8_EN14dense_hash_mapIS9_jSD_NS9_14EqualsComparerINS0_8equal_toIS8_EEEENS0_9allocatorISB_EEE9SelectKeyESI_SK_E14squash_deletedEv
z4e:_KeyGeneratedEventHandler_Invoke_m4131555809
s1b:__Z13RegisterClassI6ShaderEvv
xrf:_String_CharCopyReverse_m1548661297
oZc:__ZN13RuntimeStaticI11WindManagerLb0EE13StaticDestroyEPv
Arc:__Z18Transfer_BlittableI9JSONWriteLb1EaEvRK29SerializationCommandArgumentsR31RuntimeSerializationCommandInfo
n2i:__ZN13Il2CppHashMapINSt3__24pairIPK10MethodInfoP11Il2CppClassEEj17ReflectionMapHashIS7_ENS0_8equal_toIS7_EENS0_9allocatorINS1_IK10KeyWrapperIS7_EjEEEEEC2EjRKS9_RKSB_
VPb:__ZN11HaloManager11HasAnyHalosEPK11CullResults
G8a:__ZN9Texture3D23VirtualRedirectTransferER19StreamedBinaryWriteILb0EE
boj:_GC_reclaim_block
dP:__Z13RegisterClassI10SampleClipEvv
TLg:__Z81RuntimeInvoker_Void_t1185182177_Int32_t2950945753_Int32_t2950945753_RuntimeObjectPFvvEPK10MethodInfoPvPS4_
LSb:__ZNK23ForwardShaderRenderLoop18RenderObjectSorterILb1EEclERK21ForwardRenderPassDataS4_
wvd:_CaseInsensitiveComparer__ctor_m1508720200
QQi:__ZN15dense_hashtableI10KeyWrapperIPK19Il2CppGenericMethodES4_N6il2cpp8metadata23Il2CppGenericMethodHashEN14dense_hash_setIS4_S7_NS4_14EqualsComparerINS6_26Il2CppGenericMethodCompareEEENSt3__29allocatorIS4_EEE8IdentityESB_SE_E12maybe_shrinkEv
gHa:__ZN10BufferGLES10BeginWriteEjj
OQi:__ZNK15dense_hashtableI10KeyWrapperIPK19Il2CppGenericMethodES4_N6il2cpp8metadata23Il2CppGenericMethodHashEN14dense_hash_setIS4_S7_NS4_14EqualsComparerINS6_26Il2CppGenericMethodCompareEEENSt3__29allocatorIS4_EEE8IdentityESB_SE_E12test_deletedEj
fB:__ZN7mecanim12statemachine18StateMachineMemory8TransferI9BlobWriteEEvRT_
JPa:__ZN20ArchiveStorageReader10InitializeER15FileSystemEntryyb
_4i:__GLOBAL__sub_I_ArrayMetadata_cpp
fHa:__ZN7ApiGLES11FlushBufferEjN2gl12BufferTargetEll
Mqb:__ZN14SafeBinaryRead21TransferSTLStyleArrayI13dynamic_arrayI8BitFieldLj4EEEEvRT_17TransferMetaFlags
sDa:__ZN12_GLOBAL__N_127PrepareReadback_ResolveMSAAER18GfxFramebufferGLESR7ApiGLESP17RenderSurfaceGLESS5_
c6b:__ZNK24RendererAnimationBinding9BindValueER6ObjectRKN11UnityEngine9Animation14GenericBindingERNS3_10BoundCurveE
oZd:_TypeBuilder_has_ctor_method_m2987175843
Me:_glBindBuffer
ZBb:__ZN8GUIStyle8TransferI18StreamedBinaryReadILb0EEEEvRT_
dme:_InternalEnumerator_1_get_Current_m3500427238_gshared
qda:__ZNSt3__213__stable_sortIRN10vector_mapIijNS_4lessIiEENS_9allocatorINS_4pairIijEEEEE13value_compareENS_11__wrap_iterIPS6_EEEEvT0_SE_T_NS_15iterator_traitsISE_E15difference_typeEPNSH_10value_typeEi
oeb:__ZN10VRSettings8Daydream8TransferI18StreamedBinaryReadILb0EEEEvRT_
iXa:__ZNSt3__218__insertion_sort_3IRNS_6__lessIN4core12basic_stringIcNS2_20StringStorageDefaultIcEEEES6_EEPS6_EEvT0_SA_T_
uBe:_ValueCollection_System_Collections_Generic_ICollectionU3CTValueU3E_Remove_m1748672125_gshared
zuj:_isupper
U$a:__ZNSt3__26__treeINS_12__value_typeIN9ShaderLab16FastPropertyNameEN18UnityPropertySheet11UnityTexEnvEEENS_19__map_value_compareIS3_S6_NS_4lessIS3_EELb1EEENS_9allocatorIS6_EEE7destroyEPNS_11__tree_nodeIS6_PvEE
_5h:_ReadOnlyCollection_1_System_Collections_IList_Clear_m108858531_gshared
lHg:__Z102RuntimeInvoker_RuntimeObject_Int32_t2950945753_RuntimeObject_RuntimeObject_RuntimeObject_RuntimeObjectPFvvEPK10MethodInfoPvPS4_
oxi:_GUIUtility_set_guiIsExiting_m1558910088
sbe:_Context_Clear_m2678836033
fWd:_DerivedType_IsDefined_m3906894566
bSi:__ZN6il2cpp2vm13MetadataCache24GetExportedTypeFromIndexEi
VXg:__Z54RuntimeInvoker_Void_t1185182177_RaycastHit_t1056001966PFvvEPK10MethodInfoPvPS4_
Ipc:__ZN5Unity9rapidjson6WriterI16TempBufferWriterNS0_4UTF8IcEES4_13JSONAllocatorE9WriteUintEj
cxj:_getuid
_D:__ZN7mecanim5human8BoneNameEj
_2b:__Z13RegisterClassI10MonoScriptEvv
Rpg:_Matrix4x4_GetColumn_m461504848_AdjustorThunk
mDd:_Int16_System_IConvertible_ToUInt64_m134975563_AdjustorThunk
kJc:__ZN20TextRenderingPrivate8FontImpl8TransferI18StreamedBinaryReadILb0EEEEvRT_
HYe:_ScrollRect_UpdateScrollbarVisibility_m4226977273
KTi:__ZN6il2cpp6icalls8mscorlib6System8MonoType22get_IsGenericParameterEP20Il2CppReflectionType
Du:__ZN7mecanim5human14HumanPoseClearERNS0_9HumanPoseE
E6e:_SymmetricTransform_TransformFinalBlock_m4059448527
XBd:_Convert_ToUInt16_m3216249716
q0a:__ZN18StreamedBinaryReadILb0EE19TransferSTLStyleMapINSt3__23mapIN9ShaderLab16FastPropertyNameE10ColorRGBAfNS2_4lessIS5_EENS2_9allocatorINS2_4pairIKS5_S6_EEEEEEEEvRT_17TransferMetaFlags
Bta:__ZN13GfxDeviceGLES24DrawBufferRangesPlatformEP9GfxBufferiPK18VertexStreamSourceiPK16DrawBuffersRangeiP17VertexDeclaration17ShaderChannelMaskjb
Hah:_Enumerator_System_Collections_IEnumerator_Reset_m4269083576_gshared
bLe:_SoapServices_EncodeNs_m635167772
tZb:__ZN13RenderManager28AreCamerasUsingMotionVectorsEv
sca:__Z25InitializeLODGroupManagerPv
Coi:_Mark_get_IsDefined_m2539660708
Tsa:__ZN13GfxDeviceGLES12EndStereoEyeE15StereoscopicEye
Fed:_SByte_System_IConvertible_ToUInt64_m4151910932_AdjustorThunk
UMb:__ZNK12ImageFilters28ApplyAfterTransparentFiltersEv
Mng:_GameObject__ctor_m3707688467
gee:_HandshakeMessage_Compare_m2214647946
iVc:__ZN11UnityEngine7Connect15AppRunningEvent12ToJsonStringER9JSONWrite
V0a:__ZN19ShaderPropertySheet5ClearEb
Gif:_RSA_Create_m4065275734
MEf:_CultureInfo_GetCultureInfo_m630276874
sNb:__ZNK6Camera11GetPositionEv
_s:__ZN8Animator19CreatePlayableGraphEv
K$c:_ExecuteEvents_Execute_m3952332304
mIj:_emscripten_glClearDepth__wrapper
Dmb:__ZNK16MemoryFileSystem8FilenameERK13FileEntryData
Qf:_glUniform1fv
Uf:_JS_FileSystem_Sync
uEa:__ZNSt3__26__treeINS_12__value_typeI21GLESRenderTargetSetupN2gl6HandleILNS3_10ObjectTypeE9EEEEENS_19__map_value_compareIS2_S7_NS_4lessIS2_EELb1EEENS_9allocatorIS7_EEE7destroyEPNS_11__tree_nodeIS7_PvEE
o5e:_KeyPairPersistence__IsUserProtected_m438961964
qxa:__ZN4crnd11crnd_deleteINS_13prefix_coding14decoder_tablesEEEvPT_
twe:_Enumerator_System_Collections_IDictionaryEnumerator_get_Value_m512771145_AdjustorThunk
Qqf:_String_Replace_m1273907647
NLe:_RealProxy_InternalGetProxyType_m2154819545
wDa:__ZN4gles15BlitFramebufferERNS_23BlitFramebufferDrawQuadER9GfxDeviceii9TextureIDiiiiiiii
xRd:_NumberFormatter_NumberToString_m827252518
Sf:__emscripten_sample_gamepad_data
m1b:__Z22DelayedDestroyCallbackP6ObjectPv
Hli:_PKCS12_set_Password_m4088935795
nFg:__Z96RuntimeInvoker_Void_t1185182177_SByte_t1669577662_ByteU5BU5DU26_t4057885439_Int32U26_t1369213839PFvvEPK10MethodInfoPvPS4_
yAg:__Z78RuntimeInvoker_Boolean_t97287965_RuntimeObject_RuntimeObject_SByte_t1669577662PFvvEPK10MethodInfoPvPS4_
xjg:_Camera_get_nearClipPlane_m837839537
U$:__Z34scripting_class_get_declaring_type17ScriptingClassPtr
pVc:__ZN11UnityEngine7Connect20BasePersistentValues13RestoreValuesER8JSONRead
Bcb:__ZN11TimeManagerD0Ev
tvi:_GUIUtility_Internal_GetGUIDepth_m1169824684
DL:__ZN12AudioManager33GetAudioEffectInternalDefinitionsEv
n3a:__ZN9Texture2D16DeleteGfxTextureEv
xlb:__ZN20LocalFileSystemPosix4OpenER13FileEntryData14FilePermission16FileAutoBehavior
dcg:_TimeSpan_Subtract_m1264203589
tQe:_InputField_GetUnclampedCharacterLineFromPosition_m2611553547
h1i:__ZN6il2cpp2gc19AppendOnlyGCHashMapIPK10Il2CppTypeP20Il2CppReflectionTypeNS_8metadata14Il2CppTypeHashENS7_26Il2CppTypeEqualityComparerEEC2Ev
cUd:_CustomAttributeData_GetCustomAttributes_m2141595938
XPi:__ZN15dense_hashtableINSt3__24pairIK10KeyWrapperIN6il2cpp5utils13dynamic_arrayIPK10Il2CppTypeLj4EEEEPFvvEEESA_NS3_8metadata19Il2CppSignatureHashEN14dense_hash_mapISA_SD_SG_NSA_14EqualsComparerINSF_22Il2CppSignatureCompareEEENS0_9allocatorISE_EEE9SelectKeyESK_SM_ED2Ev
dNc:__ZN2UI6Canvas12AddToManagerEv
kDc:_UNITY_tt_face_load_sbit
G6c:_ColorTweenCallback__ctor_m2236520273
bQd:_MonoType_GetMethodsByName_m2005909471
xzc:_cf2_hint_isTop
uYb:__ZN23ManagedAttributeManager21GetRequiredComponentsE17ScriptingClassPtr
Jji:_TlsCipherSuite_ComputeServerRecordMAC_m3941098609
H6c:_ColorTween_AddOnChangedCallback_m3959760640_AdjustorThunk
yLe:_RemotingServices_Unmarshal_m3744595373
c5h:_ReadOnlyCollection_1_System_Collections_IList_get_Item_m2174806213_gshared
o_b:__Z23InitializeStdConvertersv
ORb:__ZN19ShaderPropertySheet17UpdateTextureInfoEiRK23FastTexturePropertyNamePK10TextureRef
rmf:_SecurityElement_IsValidAttributeName_m713904709
ACc:_ps_unicodes_init
MMd:_StreamWriter_Write_m2487601391
e6b:__ZN13ProduceHelperI14PlayerSettingsLb0EE7ProduceE10MemLabelId18ObjectCreationMode
DKb:__ZZ23InitPlayerLoopCallbacksvEN38PreUpdateCheckTexFieldInputRegistrator7ForwardEv
Exa:__ZN4crnd12crn_unpacker22decode_color_endpointsEv
acj:__ZNK10KeyWrapperINSt3__24pairIPKcS3_EEE14EqualsComparerI26NamespaceAndNamePairEqualsEclERKS5_SA_
a$d:_FieldInfo_get_IsLiteral_m534699794
Sca:__Z34CleanupIntermediateRendererManagerPv
ooi:_X509Stores_Open_m1553467177
Syf:_Decimal_op_Multiply_m2389849621
_0c:_PointerEventData_get_eligibleForClick_m3788762543
Uoi:_MatchCollection_get_Count_m1667454419
A9f:_Monitor_Pulse_m82725344
yEf:_CultureInfo_get_NumberFormat_m1244033732
xKd:_FileStream_Dispose_m2599766137
Rkd:_Array_Copy_m1988217701
Qjg:_Camera_FireOnPreCull_m2869588437
gh:_JS_WebRequest_GetResponseHeaders
yFb:__ZNSt3__26__treeINS_12__value_typeI26SerializedObjectIdentifieriEENS_19__map_value_compareIS2_S3_NS_4lessIS2_EELb1EEENS_9allocatorIS3_EEE7destroyEPNS_11__tree_nodeIS3_PvEE
iCc:_otv_Script_validate
H1b:__ZN9Scripting18RaiseNullExceptionEPKcz
ifa:__ZN13RuntimeStaticI13RendererSceneLb0EE16StaticInitializeEPv
rh:_glCreateProgram
U0i:__ZN6il2cpp2vm10Reflection7IsFieldEP12Il2CppObject
EWe:_Scrollbar_set_numberOfSteps_m3603299569
RRa:__ZN24GenerateTypeTreeTransfer32TransferSTLStyleArrayWithElementI17SortingLayerEntryEEvRT_17TransferMetaFlags
MDj:_glUniformMatrix3fv__wrapper
yUa:__ZN5Light9SetupHaloEv
vOe:_Text_set_horizontalOverflow_m2473787109
Dyb:__Z18Transfer_BlittableI18StreamedBinaryReadILb1EELb1E12PropertyNameEvRK29SerializationCommandArgumentsR31RuntimeSerializationCommandInfo
P1i:__ZN15dense_hashtableINSt3__24pairIK10KeyWrapperIPK22Il2CppGenericParameterEPK24MonoGenericParameterInfoEES6_N6il2cpp5utils11PointerHashIS4_EEN14dense_hash_mapIS6_SA_SF_NS6_14EqualsComparerINS0_8equal_toIS5_EEEENS0_9allocatorISB_EEE9SelectKeyESK_SM_EC2ERKSP_j
lpj:_GC_general_register_disappearing_link
I9:__ZN23TransformChangeDispatch12CleanupClassEPv
icc:__ZN8UserList11SendMessageERK17MessageIdentifier
SRc:__Z33Canvas_Get_Custom_PropScaleFactorP12Il2CppObject
CC:__ZNK26AnimatorControllerPlayable21GetStateMachineMemoryEi
OWa:__ZN17CollisionMeshData20VertexDataHasChangedEv
mpi:_PatternCompiler_Emit_m604664654
lIf:_Array_InternalArray__ICollection_Remove_TisKeyValuePair_2_t3842366416_m278128148_gshared
xSa:__ZNK6Camera16GetTargetTextureEv
G1h:_Component_GetComponentsInChildren_TisRuntimeObject_m35549932_gshared
zYc:__ZNK20UnityWebRequestProtoI24UnityWebRequestTransport16AtomicRefCounter14RedirectHelper14ResponseHelper15DownloadHandler13UploadHandler12HeaderHelper14AsyncOperationE17GetUploadProgressEv
kqf:_String_CompareTo_m3030934538
dqb:__Z35Transfer_Blittable_SingleValueFieldI14SafeBinaryReadyEvRT_R17GeneralMonoObjectRK23StaticTransferFieldInfo
QYa:__ZN8Playable20ClearInputConnectionEi
uOb:__ZN13BatchRenderer12EndLoopFlushEv
_jd:_X509CertificateEnumerator_System_Collections_IEnumerator_Reset_m2928805663
rac:__ZNK6Sprite11GetInnerUVsE20SpriteRenderDataMode
iD:__ZN11UnityEngine9Animation28DestroyAvatarBindingConstantEPNS0_21AvatarBindingConstantERN7mecanim6memory9AllocatorE
$ef:_X509ChainElementEnumerator_System_Collections_IEnumerator_get_Current_m1913555061
Aof:_Single_System_IConvertible_ToDouble_m1584722292_AdjustorThunk
Qwg:_DataUtility_INTERNAL_CALL_GetPadding_m650254139
jvb:__Z29Transfer_Blittable_ArrayFieldI24GenerateTypeTreeTransfer11ColorRGBA32EvRT_R9ArrayInfoRK23StaticTransferFieldInfo
p4b:__ZN16MessageForwarder23RegisterMessageCallbackEiPFvPviR11MessageDataEPKN5Unity4TypeE
X7d:_MD2Managed_HashFinal_m808964912
Wvf:_DateTime_op_Equality_m1022058599
sWa:__ZN4Mesh30AcquireSharedMeshRenderingDataEv
bi:_gmtime
ii:_emscripten_glUniform3i
nua:__ZNK7ApiGLES10GetContextEv
Aob:__Z18Transfer_BlittableI14SafeBinaryReadLb1E5RectTIfEEvRK29SerializationCommandArgumentsR31RuntimeSerializationCommandInfo
Q5a:__ZN15TextureSettings14SetAnisoLimitsEii
Bg:_glGetFramebufferAttachmentParameteriv
cvb:__Z19TransferField_ArrayI24GenerateTypeTreeTransfer27Converter_SimpleNativeClassI10RectOffsetEEvRK23StaticTransferFieldInfoR31RuntimeSerializationCommandInfoRT0_
ogg:_UInt64_System_IConvertible_ToUInt32_m2784653358_AdjustorThunk
JUa:__Z40ConfigureBlockRangesWithMinIndicesPerJobP10BlockRangeii
xAa:__ZN6prcoreL17RemapGenericFloatI18TexFormatARGBFloat15TexFormatRGHalfEEvPKNS_9InnerInfoE
yvi:_GUILayout_Height_m3349769634
vnb:__ZNSt3__26vectorI4PPtrI10MonoScriptE13stl_allocatorIS3_L18MemLabelIdentifier78ELi16EEE8__appendEj
LSe:_LayoutGroup_get_flexibleWidth_m2787597997
Iog:_LayerMask_op_Implicit_m3296792737
r6b:__ZL22PrepareMeshRenderNodesILb1EEvR35RenderNodeQueuePrepareThreadContext
_lb:__ZN20LocalFileSystemPosix5TouchER13FileEntryData
Msc:__ZN9JSONWrite8TransferI13dynamic_arrayItLj2EEEEvRT_PKc17TransferMetaFlags
zi:_emscripten_glDrawElements
oEd:_NumberFormatter_AppendDecimalString_m10636623
ijg:_Bounds_get_max_m3756577669
vyc:_cf2_blues_init
Pqh:__ZL59ParameterBuilder_t1137139675_CustomAttributesCacheGeneratorP21CustomAttributesCache
eFj:_glVertexAttrib4fv__wrapper
OT:__ZN11UnityEngine15CloudWebService23WebRequestUploadHandlerD2Ev
DA:__ZN9BlobWriteD2Ev
Nob:__ZL26Transfer_SimpleNativeClassI14SafeBinaryRead8GradientLb0EEvRK29SerializationCommandArgumentsR31RuntimeSerializationCommandInfo
JEg:__Z68RuntimeInvoker_Boolean_t97287965_Int32_t2950945753_SByte_t1669577662PFvvEPK10MethodInfoPvPS4_
lPf:_Array_InternalArray__ICollection_CopyTo_TisRaycastHit2D_t2279581989_m3542049333_gshared
YSd:_Assembly_GetExecutingAssembly_m4021024968
OPe:_InputField_ClampPos_m2625258136
ONi:__ZNK15dense_hashtableINSt3__24pairIK10KeyWrapperIPKcEP11Il2CppClassEES5_N6il2cpp5utils11StringUtils12StringHasherIS4_EEN14dense_hash_mapIS5_S8_SE_NS5_14EqualsComparerINSB_13VmStringUtils21CaseSensitiveComparerEEENS0_9allocatorIS9_EEE9SelectKeyESJ_SL_E10test_emptyEj
$Me:_MessageFormatter_ReadMethodResponse_m1946725361
Gli:_PKCS12__ctor_m1587304645
uZa:__ZN13RenderTexture23VirtualRedirectTransferER18StreamedBinaryReadILb0EE
DDc:_UNITY_tt_face_lookup_table
D_c:_BaseRaycaster_ToString_m2535186737
rpc:__ZN5Unity9rapidjson13GenericReaderINS0_4UTF8IcEES3_13JSONAllocatorE9ParseHex4INS0_25GenericInsituStringStreamIS3_EEEEjRT_
pFa:__Z17ComputeMipmapSizeiii14GraphicsFormat
bzc:_cf2_stack_pushFixed
t8c:_Dropdown_OnCancel_m1495594239
q5i:__ZNK15dense_hashtableINSt3__24pairIK10KeyWrapperINS1_IP11Il2CppClassjEEES4_EES6_N6il2cpp8metadata14ArrayClassHashEN14dense_hash_mapIS6_S4_SB_NS6_14EqualsComparerINSA_17ArrayClassCompareEEENS0_9allocatorIS8_EEE9SelectKeyESF_SH_E3endEv
iwd:_CollectionBase_OnValidate_m1606907366
Oqg:_MonoBehaviour_StopCoroutineViaEnumerator_Auto_m3883784228
oHc:_TT_Get_MM_Blend
nZ:__Z16realloc_internalPvjj10MemLabelId15AllocateOptionsPKci
LUg:__Z78RuntimeInvoker_Void_t1185182177_RuntimeObject_RuntimeObject_Single_t1397266774PFvvEPK10MethodInfoPvPS4_
iRc:__Z50CanvasRenderer_CUSTOM_CreateUIVertexStreamInternalP12Il2CppObjectS0_S0_S0_S0_S0_S0_S0_S0_S0_
wea:__ZN14PlayableOutput15PrepareTraverseERK9FrameData
fDb:__ZL19RequireCorLibMethodPKcS0_S0_
r2:__ZNK5Unity9Component22GetTypeVirtualInternalEv
Bxc:_UNITY_FT_Outline_Get_CBox
$l:_emscripten_get_fullscreen_status
kBa:__ZN6prcoreL26RemapGenericIntegerToFloatI17TexFormatARGB888817TexFormatRGBFloatEEvPKNS_9InnerInfoE
VIe:_MethodDictionary_SetMethodProperty_m3032369066
hWb:__ZN15LODGroupManager27GarbageCollectCameraLODDataEv
lUg:__Z139RuntimeInvoker_Void_t1185182177_RuntimeObject_Color32_t2600501292_Int32_t2950945753_Int32_t2950945753_Single_t1397266774_Single_t1397266774PFvvEPK10MethodInfoPvPS4_
xZb:__ZN13ScreenManagerC2Ev
QZf:_Enumerator_System_Collections_IEnumerator_Reset_m3289381690_gshared
Jw:__ZN7mecanim20ValueArrayBlendBeginILb1EEEvRNS_14ValueArrayMaskE
fmc:__ZN12GUIClipState20CalculateMouseValuesER10InputEvent
pub:__Z18Transfer_BlittableI24GenerateTypeTreeTransferLb0E12PropertyNameEvRK29SerializationCommandArgumentsR31RuntimeSerializationCommandInfo
jua:__ZN7ApiGLES4InitERK14GfxContextGLESR16GfxDeviceLevelGL
VDe:_RemotingServices_CreateClientProxy_m809906894
x5:__ZNK11LightProbes14LightProbeData33GetLightProbeInterpolationWeightsERK8Vector3fRiR8Vector4fRf
QLd:_Stream_Dispose_m2589290611
DKe:_ReturnMessage_get_LogicalCallContext_m2352570297
Rfa:__ZN11TypeManager36FatalErrorOnPersistentTypeIDConflictEiPKc
MV:__ZN21UnityDefaultAllocatorI17LowLevelAllocatorED0Ev
zX:__ZN8Renderer15SetIsRenderableEb
kkh:__ZL54IEnumerator_t1853284238_CustomAttributesCacheGeneratorP21CustomAttributesCache
yBa:__Z14DecodeBC7BlockP9HDRColorAPKh
j3e:_BigInteger_op_RightShift_m2934036419
a6b:__ZNK24RendererAnimationBinding12GetPPtrValueERKN11UnityEngine9Animation10BoundCurveE
fRg:__Z95RuntimeInvoker_Boolean_t97287965_RuntimeObject_TextGenerationSettings_t1351628751_RuntimeObjectPFvvEPK10MethodInfoPvPS4_
Kpd:_Boolean_System_IConvertible_ToSByte_m806999
Vpd:_Boolean_System_IConvertible_ToUInt32_m2723177447_AdjustorThunk
l$g:__Z84RuntimeInvoker_Boolean_t97287965_RaycastResult_t3360306849_RaycastResult_t3360306849PFvvEPK10MethodInfoPvPS4_
tpj:_GC_new_proc_inner
ic:invoke_fiiffi
h0e:_MSCompatUnicodeTable_BuildTailoringTables_m1316979344
Qnb:__Z35Transfer_Blittable_FixedBufferFieldI14SafeBinaryReadiEvRK29SerializationCommandArgumentsR31RuntimeSerializationCommandInfo
ZMb:__ZNK25CameraStackRenderingState21IsRenderingLastCameraEv
IVf:_EqualityComparer_1_System_Collections_IEqualityComparer_Equals_m1538289377_gshared
Kya:__ZL24stbir__filter_catmullromff
anf:_SecurityElement_AddChild_m1606852781
UUi:__ZN6il2cpp6icalls8mscorlib6SystemL16CheckMemberMatchI9EventInfoNS_5utils10functional6FilterINSt3__212basic_stringIcNS8_11char_traitsIcEENS8_9allocatorIcEEEENS5_13VmStringUtils21CaseSensitiveComparerEEEEEbPKT_PK11Il2CppClassSN_iRKT0_
qVg:__Z83RuntimeInvoker_Boolean_t97287965_SpriteStateU26_t2382775785_SpriteState_t1362986479PFvvEPK10MethodInfoPvPS4_
aNf:_Array_LastIndexOf_TisRuntimeObject_m1677937501_gshared
qYb:__Z23ValidateScriptComponentP10MonoScriptPN4core12basic_stringIcNS1_20StringStorageDefaultIcEEEE
mXh:__ZL68Selectable_t3250028441_CustomAttributesCacheGenerator_m_InteractableP21CustomAttributesCache
yu:__ZN7mecanim9animation12GetHumanPoseIfEEvRKNS0_18ClipMuscleConstantEPKT_RNS_5human9HumanPoseE
U7a:__ZNSt3__215__inplace_mergeIRNS_4lessI4PPtrI11SpriteAtlasEEENS_11__wrap_iterIPS4_EEEEvT0_SA_SA_T_NS_15iterator_traitsISA_E15difference_typeESE_PNSD_10value_typeEi
YC:__ZN11UnityEngine9Animation30CreateAvatarBindingConstantOptER9TransformPKN7mecanim9animation14AvatarConstantERNS3_6memory9AllocatorE
pua:__ZN26SinglePassStereoSupportExt27InitSinglePassStereoSupportEP21ISinglePassStereoImplP9GfxDevice
P0c:_PointerEventData_set_button_m2912797404
DV:__ZNSt3__23mapIN19CloudServiceHandler11ServiceTypeEPS1_NS_4lessIS2_EE13stl_allocatorINS_4pairIKS2_S3_EEL18MemLabelIdentifier88ELi16EEEixERS8_
GCc:_ft_get_adobe_glyph_index
oJe:_MethodCall_get_GenericArguments_m1010093584
Grj:__ZNSt3__26__treeINS_12__value_typeINS_12basic_stringIcNS_11char_traitsIcEENS_9allocatorIcEEEEPFvvEEENS_19__map_value_compareIS7_SA_NS_4lessIS7_EELb1EEENS5_ISA_EEE25__emplace_unique_key_argsIS7_JRKNS_21piecewise_construct_tENS_5tupleIJOS7_EEENSL_IJEEEEEENS_4pairINS_15__tree_iteratorISA_PNS_11__tree_nodeISA_PvEEiEEbEERKT_DpOT0_
ujc:__Z47Register_UnityEngine_Texture_Internal_GetHeightv
hpf:_Single_ToString_m3947131094_AdjustorThunk
JEb:__Z25scripting_field_get_flags17ScriptingFieldPtr
m0e:_MSCompatUnicodeTable_Level3_m1870873670
ekb:__ZNSt3__218__insertion_sort_3IRPFbRK23TransformAccessReadOnlyS3_EPS1_EEvT0_S8_T_
kdf:_X509ChainStatus_GetInformation_m245493206
nzg:_Vector3_Lerp_m407887542
dih:_Collection_1__ctor_m2277581063_gshared
Toi:_MatchCollection__ctor_m4138850022
$Xe:_ScrollRect_set_verticalScrollbarSpacing_m1091218920
Yuc:__ZN8JSONRead8TransferIyEEvRT_PKc17TransferMetaFlagsb
uob:__Z18Transfer_BlittableI14SafeBinaryReadLb0EtEvRK29SerializationCommandArgumentsR31RuntimeSerializationCommandInfo
BSi:__ZN6il2cpp2vm13MetadataCache24InitializeMethodMetadataEj
DW:__ZNK20DynamicHeapAllocatorI17LowLevelAllocatorE8ContainsEPKv
lhd:_HMAC_HashFinal_m1921180827
mvf:_DateTime__ParseString_m2913931606
iaj:__ZN6il2cpp2vm14PlatformInvoke36MarshalCppStringToCSharpStringResultEPKc
QTb:__ZN8Material23GetStencilWriteMaterialEv
UDa:__Z12GetBlockSize14GraphicsFormat
sHf:_Array_InternalArray__ICollection_Contains_TisIntPtr_t_m272531112_gshared
TLe:_RemotingProxy_get_TypeName_m4085898624
BXd:_GenericTypeParameterBuilder_not_supported_m3358960901
QRa:__ZN10TagManager8TransferI24GenerateTypeTreeTransferEEvRT_
Mdh:_Collection_1_ConvertItem_m169929357_gshared
NId:_MonoIO_GetCurrentDirectory_m762333289
Vac:__Z35AllocExtractMeshComponentFromScriptRK4Mesh30InternalScriptingShaderChannel34InternalScriptingVertexChannelTypei
Kw:__ZN7mecanim12SetValueMaskILb1EEEvPNS_14ValueArrayMaskEb
yDe:_Dictionary_2_ContainsKey_m415531417_gshared
DRa:__ZN10TagManager23VirtualRedirectTransferER24GenerateTypeTreeTransfer
SPf:_Array_InternalArray__Insert_TisCustomAttributeNamedArgument_t287865710_m3526512389_gshared
Eya:__ZL23stbir__filter_trapezoidff
nQ:__Z44Register_UnityEngine_AudioClip_get_ambisonicv
Weg:_UInt32_System_IConvertible_ToBoolean_m1763673183
eXb:__ZN23ScriptableRenderContextD2Ev
soh:__ZL52ArrayList_t2718874744_CustomAttributesCacheGeneratorP21CustomAttributesCache
Ced:_SByte_System_IConvertible_ToUInt32_m4275534457
Qqg:_MonoBehaviour_StopCoroutine_Auto_m820288890
p_i:__ZN15dense_hashtableINSt3__24pairIK10KeyWrapperINS1_IPK10MethodInfoP11Il2CppClassEEEjEES9_17ReflectionMapHashIS8_EN14dense_hash_mapIS9_jSD_NS9_14EqualsComparerINS0_8equal_toIS8_EEEENS0_9allocatorISB_EEE9SelectKeyESI_SK_E15insert_noresizeERKSB_
wMc:__Z32TextGenerator_CUSTOM_Dispose_cppP12Il2CppObject
H7i:__ZN6il2cpp6icalls8mscorlib6System19ExtractWidenedValueE14Il2CppTypeEnumPv
Ujf:_SHA256Managed_HashFinal_m2914312286
iJb:__ZN12GPUFencePoolC2Ev
$oj:_GC_invoke_finalizers
Zqf:_String_Format_m2556382932
nKi:__ZL14adjustScale128PyS_i
JPh:__ZL59EventType_t3528516131_CustomAttributesCacheGenerator_ignoreP21CustomAttributesCache
Hob:__Z18Transfer_BlittableI14SafeBinaryReadLb0E8BitFieldEvRK29SerializationCommandArgumentsR31RuntimeSerializationCommandInfo
W2h:_Array_InternalArray__get_Item_TisTimeSpan_t881159249_m1885583191_gshared
cGf:_Guid__ctor_m3421080095
B5:__ZNK10GameObject25QueryComponentByExactTypeEPKN5Unity4TypeE
uhe:_U3CGetEnumeratorU3Ec__Iterator0_System_Collections_Generic_IEnumeratorU3CTU3E_get_Current_m52354244_gshared
Y3:__ZNK9ShaderLab22ShaderStencilStateDesc17ToGfxStencilStateEPK19ShaderPropertySheetS3_RK14GfxRasterStateR15GfxStencilState
Thh:_Collection_1_Remove_m2372638279_gshared
oXe:_U3CClickRepeatU3Ec__Iterator0_MoveNext_m2800364313
GEc:_tt_cmap0_char_next
zBa:__Z15DecodeBC6HBlockP9HDRColorAPKh
yjg:_Camera_get_farClipPlane_m538536689
u2b:__Z13RegisterClassI10GUIElementEvv
igd:_DSA_Create_m1220983153
gpj:_GC_malloc_uncollectable
Yid:_Array_Clone_m2672907798
Cmb:__ZNK16MemoryFileSystem6ParentERK13FileEntryDataRN4core12basic_stringIcNS3_20StringStorageDefaultIcEEEE
gNd:_SynchronizedWriter_Write_m1297715977
L9c:_Graphic_get_rectTransform_m1167152468
uca:__ZN15LODGroupManagerD2Ev
lNe:_ObjectReader_ReadRefTypeObjectInstance_m3311150386
awc:__ZN8JSONRead21TransferSTLStyleArrayI13dynamic_arrayIN4math12int2_storageELj4EEEEvRT_17TransferMetaFlags
NSg:__Z115RuntimeInvoker_Boolean_t97287965_RuntimeObject_RuntimeObject_Single_t1397266774_SByte_t1669577662_Int32_t2950945753PFvvEPK10MethodInfoPvPS4_
APh:__ZL62EventType_t3528516131_CustomAttributesCacheGenerator_mouseMoveP21CustomAttributesCache
B2e:_BigInteger_op_Multiply_m3801644593
Fog:_DefaultValueAttribute_Equals_m443523471
QOa:__ZN12IFileAdapter9SetLengthER13FileEntryDatay
Oic:__Z39SortingLayer_CUSTOM_GetLayerValueFromIDi
Kc:_Mix_PlayMusic
Ftf:_DateTime_System_IConvertible_ToSByte_m4130251280
glg:_CullingGroup_SendEvents_m2491312335
BAc:_cff_cmap_encoding_init
RXc:__Z34GetUnityWebRequestScriptingClassesv
cDj:___cxa_pure_virtual__wrapper
pFd:_Int32_System_IConvertible_ToSByte_m3133688512_AdjustorThunk
Rm:FUNCTION_TABLE_fii
uHb:__ZN19RuntimeSceneManager24PrepareNewBootstrapSceneEv
bSg:__Z57RuntimeInvoker_Void_t1185182177_RaycastResult_t3360306849PFvvEPK10MethodInfoPvPS4_
ljg:_Bounds_op_Equality_m3322991400
G2c:_StandaloneInputModule_Process_m309156323
LZi:__ZNK15dense_hashtableINSt3__24pairIK10KeyWrapperIPK10Il2CppTypeEjEES6_N6il2cpp8metadata14Il2CppTypeHashEN14dense_hash_mapIS6_jSB_NS6_14EqualsComparerINSA_26Il2CppTypeEqualityComparerEEENS0_9allocatorIS8_EEE9SelectKeyESF_SH_E12test_deletedEj
iKa:__ZN10SpookyHash7Hash128EPKvjPyS2_
AVb:__ZL60CombineDirectionalShadowCasterCullingIndexListsAndDestroyJobP20ShadowCullingJobData
Bwd:_Hashtable__ctor_m3890751112
Vyg:_Vector2_ToString_m1205609053_AdjustorThunk
LBc:_otv_MarkBasePos_validate
qka:__ZN9ShaderLab18SerializedPropertyC2ERKS0_
Gxc:_cff_driver_init
wag:_ThreadPool_QueueUserWorkItem_m1526970260
gt:__ZN17AnimationPlayable23ConnectNoTopologyChangeEPS_S0_ii
M4b:__ZN16ReflectionProbes20DidChangeActiveSceneEP10UnitySceneS1_
Wqf:_String_ToUpperInvariant_m2531236323
K6a:__ZN16SpriteRenderData8TransferI14SafeBinaryReadEEvRT_
SCj:_emscripten_glVertexAttrib3f__wrapper
Yfd:_DESTransform_GetStrongKey_m1464830895
Oid:_RijndaelTransform_Encrypt192_m3191066202
Lve:_Enumerator_Reset_m1314900927_gshared
Xlb:__ZN20LocalFileSystemPosix4CopyER13FileEntryDataS1_
aPi:__ZNK15dense_hashtableI10KeyWrapperIPK19Il2CppGenericMethodES4_N6il2cpp8metadata23Il2CppGenericMethodHashEN14dense_hash_setIS4_S7_NS4_14EqualsComparerINS6_26Il2CppGenericMethodCompareEEENSt3__29allocatorIS4_EEE8IdentityESB_SE_E3endEv
KTb:__ZL31SetRenderStateForStencilMarkingR9GfxDeviceR17ShaderPassContextjj
tPa:__ZN20ArchiveStorageReader20FillChunkCachedBlockEPNS_11CachedBlockE
wDe:_Dictionary_2_Add_m653869716_gshared
VLd:_StreamAsyncResult__ctor_m3118856368
Xuf:_DateTime_Equals_m611432332_AdjustorThunk
MM:__ZN10AudioMixer16ResumeProcessingEv
P9c:_Graphic_OnBeforeTransformParentChanged_m4229077069
Cqb:__ZNSt3__26vectorI17AnimationCurveTplIfE13stl_allocatorIS2_L18MemLabelIdentifier1ELi16EEE7reserveEj
Plg:_Display_GetRenderingExtImpl_m2069813991
QPc:__ZN2UI13CanvasManager21EmitGeometryForCameraEP6Camera
Q$:__Z31AudioFilterReadValidateCallback18ScriptingMethodPtr17ScriptingClassPtrP6Object
LOe:_InputField_SetDrawRangeToContainCaretPosition_m1009661083
Cla:__ZN9ShaderLab16SerializedTagMap8TransferI19StreamedBinaryWriteILb0EEEEvRT_
rLd:_MonoIO_get_PathSeparator_m4045322458
LB:__ZN7mecanim5human30HumanPoseAdjustForMissingBonesEPKNS0_5HumanEPNS0_9HumanPoseE
Aff:_X509SubjectKeyIdentifierExtension_FromHex_m1011249985
x8i:__ZN6il2cpp6icalls8mscorlib6System9Threading6Thread25SetCachedCurrentUICultureEP12Il2CppThreadP12Il2CppObject
umd:_ArithmeticException__ctor_m479063094
mNe:_ObjectReader_ReadObjectInstance_m3952621118
wDc:_UNITY_FT_Bitmap_Convert
BVb:__Z22CullDirectionalShadowsR9IndexListPK9SceneNodePK4AABBR22DirectionalCullContext
GTd:_Default_BindToMethod_m490530316
UFd:_Int32_ToString_m2507389746
Nbf:_X509KeyUsageExtension_ToString_m3542316380
xid:_RijndaelManaged__ctor_m1562735454
gbe:_SslCipherSuite__ctor_m1470082018
BRi:__ZN15dense_hashtableINSt3__24pairIK10KeyWrapperIPK11Il2CppClassEPKcEES6_N6il2cpp5utils11PointerHashIS3_EEN14dense_hash_mapIS6_S9_SE_NS6_14EqualsComparerINS0_8equal_toIS5_EEEENS0_9allocatorISA_EEE9SelectKeyESJ_SL_E4findERS7_
VTe:_LayoutUtility_U3CGetMinHeightU3Em__4_m2382889764
Ifg:_UInt32_ToString_m2574561716_AdjustorThunk
zU:__ZN11UnityEngine15CloudWebService14RestDownloader7OnAbortEv
Mnj:_alloc_mark_stack
jWi:_AnalyticsSessionInfo_CallSessionStateChanged_m2615824008
RL:__ZNK11AudioSource22GetTypeVirtualInternalEv
hsa:__ZNK13GfxDeviceGLES18GetDefaultRTFormatEv
QGc:_UNITY_FT_Get_Glyph_Name
q5:__Z13VFormatBufferPciPKcPi
dvb:__Z19TransferField_ArrayI24GenerateTypeTreeTransfer27Converter_SimpleNativeClassI8GradientEEvRK23StaticTransferFieldInfoR31RuntimeSerializationCommandInfoRT0_
Aai:_ReadOnlyCollection_1_System_Collections_IList_Remove_m913116894_gshared
Iji:_TlsCipherSuite__ctor_m3580955828
o1f:_Enumerator_System_Collections_IEnumerator_Reset_m2355925297_AdjustorThunk
ZR:__ZN11UnityEngine15CloudWebService16SessionContainer16MarkAsDispatchedERKN4core12basic_stringIcNS2_20StringStorageDefaultIcEEEE
ake:_InternalEnumerator_1_System_Collections_IEnumerator_get_Current_m2667908392_gshared
NOb:__Z16CopyActiveLightsRK12ActiveLightsRS_
Elc:__ZN16memory_pool_implILi28EE15AutoPoolWrapper10InitializeEPv
z1g:_List_1_System_Collections_IList_IndexOf_m3921550135_gshared
RIf:_Array_InternalArray__ICollection_Remove_TisUInt64_t4134040092_m2664745791_gshared
$jc:__Z26Transform_CUSTOM_IsChildOfP12Il2CppObjectS0_
gr:__ZN4core8hash_mapIN11UnityEngine9Animation14GenericBindingENS2_10BoundIndexENS2_25GenericBindingHashFunctorENS2_30GenericBindingValueArrayUniqueEE4findERKS3_
aqi:_PatternLinkStack_SetCurrent_m366511098
Usj:__ZNSt3__26vectorINS_12basic_stringIDsNS_11char_traitsIDsEENS_9allocatorIDsEEEENS4_IS6_EEE18__construct_at_endEj
xkg:_Color32__ctor_m4150508762_AdjustorThunk
p8f:_UTF7Decoder__ctor_m546843796
MAf:_Double_System_IConvertible_ToUInt32_m271206838_AdjustorThunk
tpa:__ZNK13GfxDeviceGLES11GetViewportEv
Gbc:__ZN14AsyncOperation26ClearCachedScriptingObjectEv
NGc:_UNITY_tt_face_load_cvt
Kve:_Enumerator_System_Collections_IEnumerator_Reset_m4080198166_gshared
egc:__Z31GameObject_Set_Custom_PropLayerP12Il2CppObjecti
B6h:_ReadOnlyCollection_1_System_Collections_IList_Add_m1881324749_gshared
wSi:__ZL32InitializeCustomAttributesCachesPv
YPa:__ZN20ArchiveStorageReaderD0Ev
bha:__ZN6Shader23VirtualRedirectTransferER19StreamedBinaryWriteILb0EE
xXc:__ZN19TransportJavaScript7PrepareEv
h7g:_List_1_System_Collections_IList_IndexOf_m1088859899_gshared
Yti:_Uri__ctor_m3848281005
luc:__Z35Transfer_Blittable_FixedBufferFieldI8JSONReadaEvRK29SerializationCommandArgumentsR31RuntimeSerializationCommandInfo
bmb:__ZNK20LocalFileSystemPosix20GetApplicationFolderEv
Fdd:_StreamingContext_Equals_m2722903674_AdjustorThunk
$R:__ZN11UnityEngine15CloudWebService14DataDispatcher31SetupSessionContainerToDispatchEv
NCb:__Z29Transfer_Blittable_ArrayFieldI18StreamedBinaryReadILb0EE8Vector3fEvRT_R9ArrayInfoRK23StaticTransferFieldInfo
Hfd:_CspParameters__ctor_m1928090281
i$a:__ZN9ShaderLab11shaderprops9GetVectorEPK19ShaderPropertySheetS3_NS_16FastPropertyNameE
pI:__ZN4FMOD12ChannelGroup10getDSPHeadEPPNS_3DSPE
AFc:_UNITY_tt_size_run_prep
LH:__ZN12AudioManager17MainThreadCleanupEv
Pmf:_Evidence_CopyTo_m872435527
ald:_SecurityParser_OnEndElement_m2088612360
Q1:__ZNK6Camera18ScreenToWorldPointERK8Vector3f
k8i:__ZN6il2cpp6icalls8mscorlib6System9Threading6Thread11GetDomainIDEv
qva:__ZNK13TranslateGLES13GetFormatDescE14GraphicsFormat
tx:__ZN7mecanim9animation22MotionAddOverrideLayerEPNS0_12MotionOutputEPKS1_fbbRKNS_6bitsetILj83EEE
_Ma:__ZN17ArchiveFileSystemD0Ev
Aqi:_BackslashNumber_ResolveReference_m4176908213
Wle:_InternalEnumerator_1_System_Collections_IEnumerator_get_Current_m888718134_AdjustorThunk
Oud:_SynchronizedArrayListWrapper_IndexOf_m1028529531
R9c:_GraphicRegistry_UnregisterGraphicForCanvas_m2540204166
zSb:__ZN14qsort_internal5QSortIP20ShadowCasterSortDatai26ShadowCasterSortDataSorterEEvT_S4_T0_T1_
KU:__ZN11UnityEngine15CloudWebService19SessionEventManager5StartERKN4core12basic_stringIcNS2_20StringStorageDefaultIcEEEEii
Cmc:__ZN16GUIKeyboardState16SaveFromGUIStateER8GUIState
xqb:__Z22TransferField_NonArrayI14SafeBinaryRead27Converter_SimpleNativeClassI8GradientEEvRK23StaticTransferFieldInfoR31RuntimeSerializationCommandInfoRT0_
zf:_emscripten_glBufferData
Nhi:_UnityEvent_2_FindMethod_Impl_m2569180594_gshared
RPb:__Z25DoForwardShaderRenderLoopRK17RenderLoopContextR13dynamic_arrayI16RenderObjectDataLj4EERK11CullResultsbbbN6Camera10RenderFlagE
IPc:__ZZN2UI23InitializeCanvasManagerEvEN53UIEventsCanvasManagerEmitOffScreenGeometryRegistrator7ForwardEv
Df:_glUniform3iv
Jqg:_Mesh_RecalculateBounds_m39931642
Crg:_Plane__ctor_m2890438515
uvi:_GUI_get_skin_m1874615010
m5g:_List_1_System_Collections_IList_Contains_m453976393_gshared
Wqc:__Z18Transfer_BlittableI9JSONWriteLb0E9BoundsIntEvRK29SerializationCommandArgumentsR31RuntimeSerializationCommandInfo
ndg:_Type_GetMethod_m1197120913
Rwj:_fwrite
u4d:_COMException__ctor_m3707984232
nUf:_DefaultComparer_Equals_m962817516_gshared
gPg:__Z107RuntimeInvoker_Void_t1185182177_Single_t1397266774_Single_t1397266774_Single_t1397266774_Single_t1397266774PFvvEPK10MethodInfoPvPS4_
yDb:__ZN13MonoBehaviourD0Ev
cPc:__ZN2UI6Canvas18UpdateEventIndexesEv
Rxi:_SymmetricTransform_CTS_m764800021
uwj:_pipe
Dli:_SubjectAltNameExtension_ToString_m3628154311
Ang:_RenderPipelineManager_get_currentPipeline_m1638613344
DIi:_CanvasRenderer_SetPopMaterial_m2720611463
iic:__Z50RectTransform_CUSTOM_INTERNAL_set_anchoredPositionP12Il2CppObjectRK13Vector2fIcall
fka:__ZNSt3__26vectorIN9ShaderLab19SerializedSubShaderENS_9allocatorIS2_EEE6resizeEj
KMa:__ZN4FileC2Ev
ILg:__Z81RuntimeInvoker_Void_t1185182177_RuntimeObject_Double_t594665363_Int32_t2950945753PFvvEPK10MethodInfoPvPS4_
Z3e:_BitConverterLE_UIntFromBytes_m3974925535
Ocg:_Type_GetTypeFromHandle_m1620074514
w_i:__ZN15dense_hashtableINSt3__24pairIK10KeyWrapperINS1_IPK10MethodInfoP11Il2CppClassEEEjEES9_17ReflectionMapHashIS8_EN14dense_hash_mapIS9_jSD_NS9_14EqualsComparerINS0_8equal_toIS8_EEEENS0_9allocatorISB_EEE9SelectKeyESI_SK_E12maybe_shrinkEv
qRa:__ZN14BatchAllocator16AllocateInternalEPPvijjj
Xng:_GameObject_SendMessage_m3720186693
M2b:__Z13RegisterClassI6SpriteEvv
WIf:_Array_InternalArray__ICollection_Remove_TisKeyframe_t4206410242_m3222074551_gshared
mmd:_ArgumentException_get_Message_m520762021
qje:_InternalEnumerator_1_System_Collections_IEnumerator_get_Current_m1641466962_AdjustorThunk
vOi:__ZN14dense_hash_setI10KeyWrapperIPK17Il2CppGenericInstEN6il2cpp8metadata21Il2CppGenericInstHashENS4_14EqualsComparerINS6_24Il2CppGenericInstCompareEEENSt3__29allocatorIS4_EEEC2EjRKS7_RKSA_
K7e:_HybridDictionary_Switch_m3818192922
bnj:_min_bytes_allocd
Dzb:__ZN17AnimationCurveTplIfE15InvalidateCacheEv
zZe:_Selectable_Awake_m2577497063
sLf:_Array_compare_TisUIVertex_t4057497605_m3950502696_gshared
dlc:__Z29Mesh_Get_Custom_PropCanAccessP12Il2CppObject
s7a:__ZN6Sprite8TransferI19StreamedBinaryWriteILb0EEEEvRT_
Gve:_Enumerator_System_Collections_IEnumerator_get_Current_m2979767597_gshared
POf:_Array_InternalArray__ICollection_CopyTo_TisLabelData_t360167391_m175414846_gshared
y2e:_BigInteger_op_Implicit_m378428706
frg:_PlayerConnection_DisconnectedCallback_m1697017309
Ffb:__Z14resize_trimmedINSt3__26vectorIi13stl_allocatorIiL18MemLabelIdentifier13ELi16EEEEEvRT_j
xE:__ZN7mecanim9animation18ControllerConstant15InitializeClassEv
wBf:_Enum_System_IConvertible_ToDateTime_m3823814707
uo:FUNCTION_TABLE_iiiiiiiffiiiiiiiiiffffiiii
UAf:_Double_CompareTo_m3151899116_AdjustorThunk
hRd:_NumberFormatter_Init_m2982613221
Gyc:_cf2_getMaxstack
KWd:_EnumBuilder_GetCustomAttributes_m166600193
eyi:_Check_Source_m4098695967
Awg:_SpaceAttribute__ctor_m2972541600
ZAd:_Convert_ToInt32_m2128774575
pue:_DefaultComparer_Compare_m297694671_gshared
Sze:_Enumerator_System_Collections_IEnumerator_Reset_m2917956982_gshared
Tzc:_cff_parser_run
Zoj:_GC_notify_or_invoke_finalizers
chj:__ZN6il2cpp2os6Thread5SleepEjb
iqf:_String_Compare_m1293271421
eFd:_Int32_System_IConvertible_ToDateTime_m1824716955_AdjustorThunk
RCj:_emscripten_glUniform3f__wrapper
Hn:FUNCTION_TABLE_viiiifii
EMc:__Z38Register_UnityEngine_Font_get_materialv
U4f:_List_1_set_Item_m3289315279_gshared
AFd:_Int32_CompareTo_m2864982090
Ljj:__ZN15dense_hashtableINSt3__24pairIK10KeyWrapperIPK19Il2CppGenericMethodEP10MethodInfoEES6_N6il2cpp8metadata23Il2CppGenericMethodHashEN14dense_hash_mapIS6_S9_SD_NS6_14EqualsComparerINSC_26Il2CppGenericMethodCompareEEENS0_9allocatorISA_EEE9SelectKeyESH_SJ_E4findERS7_
KRa:__ZN10TagManager23AddDefaultLayerIfNeededEv
_Ta:__ZN10FlareLayer12AddToManagerEv
Fda:__ZN18AsyncUploadManagerC2E10MemLabelId
oHa:__ZNSt3__26vectorINS_4pairI5CbKeyPN19ConstantBuffersGLES11ConstBufferEEENS_9allocatorIS6_EEE21__push_back_slow_pathIKS6_EEvRT_
E6i:__ZNK15dense_hashtableINSt3__24pairIK10KeyWrapperINS1_IP11Il2CppClassjEEES4_EES6_N6il2cpp8metadata14ArrayClassHashEN14dense_hash_mapIS6_S4_SB_NS6_14EqualsComparerINSA_17ArrayClassCompareEEENS0_9allocatorIS8_EEE9SelectKeyESF_SH_E12test_deletedEj
Wcb:__ZN13BuildSettings23VirtualRedirectTransferER24GenerateTypeTreeTransfer
Vub:__ZN24GenerateTypeTreeTransfer21TransferSTLStyleArrayINSt3__26vectorI8GUIStyle13stl_allocatorIS3_L18MemLabelIdentifier1ELi16EEEEEEvRT_17TransferMetaFlags
EAe:_Enumerator_get_Current_m926428745_AdjustorThunk
tzc:_cf2_arrstack_clear
xtc:__Z18Transfer_BlittableI8JSONReadLb1E8Vector2fEvRK29SerializationCommandArgumentsR31RuntimeSerializationCommandInfo
Pge:_SslStreamBase_BeginRead_m3146234303
jBf:_Double_ToString_m1051753975
hOc:__ZN2UI14CanvasRenderer23VirtualRedirectTransferER24GenerateTypeTreeTransfer
mLb:__Z16PresentAfterDrawN9GfxDevice11PresentModeE
Mwa:__ZN10DynamicVBO19FillQuadIndexBufferER21DynamicVBOChunkHandle
Ami:_PKCS12_Clone_m2085085101
EYf:_EqualityComparer_1__cctor_m3880019879_gshared
hkj:__ZN6il2cpp2vm6String8NewUtf16ERKNS_5utils10StringViewIDsEE
o8d:_MD5SHA1__ctor_m4081016482
_Ej:_glGenFramebuffers__wrapper
zHj:_glBindBufferBase__wrapper
XSe:_LayoutGroup_GetAlignmentOnAxis_m1696038011
H9:__ZN23TransformChangeDispatch15InitializeClassEPv
zS:__ZN9JSONWrite8TransferIyEEvRT_PKc17TransferMetaFlags
iQb:__ZN22MotionVectorRenderLoop16PerformRenderingER8JobFence
DGj:_glTexSubImage2D__wrapper
gU:__ZN11UnityEngine15CloudWebService18RestFileDownloader13OnReceiveDataEPKvj
JFc:_UNITY_TT_RunIns
MFc:_Current_Ppem
Vpc:__ZN5Unity9rapidjson6WriterI16TempBufferWriterNS0_4UTF8IcEES4_13JSONAllocatorE10StartArrayEv
Y5h:_ReadOnlyCollection_1_System_Collections_IEnumerable_GetEnumerator_m610559569_gshared
zZf:_GenericEqualityComparer_1_Equals_m3279253448_gshared
MBj:dynCall_iiiiiiiii
Wga:__ZN6ShaderD0Ev
Z1b:__ZN18BackgroundJobQueue19ScheduleJobInternalEPFvPvES0_RKNS_8JobFenceE
aej:__ZN6il2cpp2gc8GCHandle9GetTargetEj
LLb:__ZN25CameraStackRenderingState18EndStereoRenderingEv
Flb:__ZN20LocalFileSystemPosix9SetLengthER13FileEntryDatay
wHd:_IntPtr_op_Explicit_m1593085246
wTh:__ZL64StandaloneInputModule_t2760469101_CustomAttributesCacheGeneratorP21CustomAttributesCache
atj:__ZN6il2cpp5utils25NativeDelegateMethodCache17GetNativeDelegateEPFvvE
xWa:__Z27ConvertSubMeshesToTrianglesItEvR13dynamic_arrayI7SubMeshLj4EERS0_IhLj1EE
ak:_emscripten_glGetProgramiv
QFi:_InputBuffer_add_onCommandSent_m2926830140
ceb:__ZN26PlayerSettingsSplashScreen8TransferI24GenerateTypeTreeTransferEEvRT_
pAa:__ZN6prcoreL17RemapGenericFloatI18TexFormatRGBAFloat14TexFormatRHalfEEvPKNS_9InnerInfoE
mCf:_Environment_get_Platform_m520224871
$Af:_FormatException__ctor_m1479314061
zg:_glScissor
LEf:_CultureInfo_insert_into_shared_tables_m4239017467
NUc:__ZNSt3__26__treeINS_12__value_typeIN4core12basic_stringIcNS2_20StringStorageDefaultIcEEEE14CallbackArray2IRKS6_R8JSONReadEEENS_19__map_value_compareIS6_SD_NS_4lessIS6_EELb1EEE13stl_allocatorISD_L18MemLabelIdentifier6ELi16EEE7destroyEPNS_11__tree_nodeISD_PvEE
IIi:_CanvasRenderer_SplitUIVertexStreamsInternal_m3280623346
rUe:_CullStateChangedEvent__ctor_m4089558259
Xji:_TlsClientSettings_set_ClientCertificate_m3374228612
$Kd:_MemoryStream_Read_m337792459
RPf:_Array_InternalArray__Insert_TisRuntimeObject_m1619219378_gshared
KMd:_StreamWriter_LowLevelWrite_m1318762026
LQd:_MulticastDelegate_GetHashCode_m3864330728
M6g:_List_1_Insert_m1643593161_gshared
aFg:__Z133RuntimeInvoker_Int32_t2950945753_RuntimeObject_RuntimeObject_Int32_t2950945753_Int32_t2950945753_RuntimeObject_ContextU26_t3937453398PFvvEPK10MethodInfoPvPS4_
Wqa:__ZN13GfxDeviceGLES21RegisterNativeTextureE9TextureIDi16TextureDimension
Nic:__Z44Register_UnityEngine_Material_DisableKeywordv
hn:FUNCTION_TABLE_iiiiiiif
LGg:__Z118RuntimeInvoker_Int32_t2950945753_IntPtr_t_RuntimeObject_Int32_t2950945753_Int32_t2950945753_MonoIOErrorU26_t1548853198PFvvEPK10MethodInfoPvPS4_
XHj:_emscripten_glUniform4fv__wrapper
en:FUNCTION_TABLE_iiiiiiii
Sfa:__ZN4core8hash_mapIiP4RTTIN11TypeManager27HashFunctorPersistentTypeIDENSt3__28equal_toIiEEEixERKi
f7c:_DefaultControls_CreateUIElementRoot_m3904573408
Owc:__ZN19ControllerHitReportD2Ev
Qme:_InternalEnumerator_1_System_Collections_IEnumerator_get_Current_m4189894603_gshared
Lqj:__ZN6il2cpp2os11MutexHandle4WaitEv
XT:__ZN11UnityEngine15CloudWebService23WebRequestUploadHandler8GetBytesEv
tof:_Single_System_IConvertible_ToChar_m1898259383
bza:__ZN6prcoreL12RemapGenericI11TexFormatI817TexFormatARGB4444EEvPKNS_9InnerInfoE
sPf:_Array_InternalArray__ICollection_CopyTo_TisVector2_t2156229523_m4226925582_gshared
sGf:_Guid_Equals_m1866984197_AdjustorThunk
Idb:__ZNK14PlayerSettings22GetTypeVirtualInternalEv
n8h:_ReadOnlyCollection_1_System_Collections_IList_Insert_m2216746332_gshared
Vzd:_Convert_ToChar_m2261593104
hcj:__ZN15dense_hashtableINSt3__24pairIK10KeyWrapperINS1_IPKcS4_EEEiEES6_24NamespaceAndNamePairHashN14dense_hash_mapIS6_iS9_NS6_14EqualsComparerI26NamespaceAndNamePairEqualsEENS0_9allocatorIS8_EEE9SelectKeyESD_SF_EC2ERKSI_j
Cnh:__ZL61ComImportAttribute_t1295173782_CustomAttributesCacheGeneratorP21CustomAttributesCache
LBf:_Enum_FormatSpecifier_X_m2932245600
CVd:_DerivedType_GetInterfaces_m2159651138
Jjg:_Camera_ScreenToViewportPoint_m3569032523
hea:__ZN15DirectorManager12RegisterJobsEP13PlayableGraph
$yd:_Stack_Push_m2529252115
Jnc:__Z38Event_CUSTOM_Internal_GetMousePositionP12Il2CppObjectP13Vector2fIcall
FU:__ZN11UnityEngine15CloudWebService14DataDispatcher10InitializeERKN4core12basic_stringIcNS2_20StringStorageDefaultIcEEEEPvjRNS0_18ICloudJobSchedulerE
cXc:__ZN22CrashReportingSettingsC2Ev
Bzc:_cff_free_glyph_data
bgd:_DESTransform__cctor_m244488330
qqa:__ZN13GfxDeviceGLES23ResolveDepthIntoTextureE12ObjectHandleI17RenderSurface_TagP17RenderSurfaceBaseES4_
uTd:_AssemblyName_OnDeserialization_m3779987437
qV:__ZN11UnityEngine15CloudWebService14DataDispatcher17PlayerLoopHandlerEv
uAd:_Convert_ToDouble_m1177445661
Lbd:_HorizontalOrVerticalLayoutGroup_set_childControlHeight_m1806657287
Bgf:_Interpreter_GetString_m94448266
qvg:_RectTransform_set_offsetMin_m1512629941
gVc:__ZN11UnityEngine7Connect15AppRunningEventC2Ejjjj
S9i:__ZN6il2cpp2vm9Exception23GetInvalidCastExceptionEPKc
H$:__Z26GetManagedAttributeManagerv
buj:__ZN6il2cpp6icalls8mscorlib6System8DateTime16GetTimeMonotonicEv
UFa:__ZN19ComputeShaderKernelC2ERKS_
NWa:__ZN4Mesh14ClearSkinCacheEv
OEd:_NumberFormatter_InitDecHexDigits_m829694854
Crc:__Z18Transfer_BlittableI9JSONWriteLb0EjEvRK29SerializationCommandArgumentsR31RuntimeSerializationCommandInfo
Kgi:_UnityAction_2_BeginInvoke_m1769266175_gshared
aWi:__ZN6il2cpp2os4File10DeleteFileERKNSt3__212basic_stringIcNS2_11char_traitsIcEENS2_9allocatorIcEEEEPi
Xla:__ZL15GetIndexForNameRNSt3__23mapIN4core12basic_stringIcNS1_20StringStorageDefaultIcEEEEiNS_4lessIS5_EENS_9allocatorINS_4pairIKS5_iEEEEEERSA_
Og:__exit
OL:__ZN11AudioSource13AwakeFromLoadE17AwakeFromLoadMode
uHd:_IntPtr_op_Inequality_m3063970704
SSc:__ZN22BaseUnityConnectClient19OnEnterStateStoppedEv
YFb:__ZL31FindActiveTransformWithPathImplPKcR10GameObjectb
ODj:_glViewport__wrapper
DRe:_InputField_get_preferredWidth_m2499328890
l5h:_ReadOnlyCollection_1_System_Collections_Generic_ICollectionU3CTU3E_Add_m3521523143_gshared
VBj:b5
Pee:_SendRecordAsyncResult__ctor_m425551707
Ish:__ZL57DispIdAttribute_t491906453_CustomAttributesCacheGeneratorP21CustomAttributesCache
OBj:b0
PBj:b1
QBj:b2
nab:__ZN4Mesh8TransferI24GenerateTypeTreeTransferEEvRT_
RAg:__Z128RuntimeInvoker_Boolean_t97287965_Int32U26_t1369213839_RuntimeObject_SByte_t1669577662_SByte_t1669577662_ExceptionU26_t3600731591PFvvEPK10MethodInfoPvPS4_
Wsc:__ZN9JSONWrite8TransferI13dynamic_arrayI10ColorRGBAfLj4EEEEvRT_PKc17TransferMetaFlags
YBj:b8
ZBj:b9
zTi:__ZN6il2cpp2vm21ThreadPoolCompartmentC2Ev
e0a:__Z14resize_trimmedINSt3__26vectorIN4core12basic_stringIcNS2_20StringStorageDefaultIcEEEE13stl_allocatorIS6_L18MemLabelIdentifier1ELi16EEEEEvRT_j
XR:__ZN11UnityEngine15CloudWebService16SessionContainer13DeleteArchiveERKN4core12basic_stringIcNS2_20StringStorageDefaultIcEEEE
DBf:_Enum_System_IConvertible_ToSingle_m1234919892
qaf:_IPv6Address_Parse_m3004687047
gIc:_Vertical_Sweep_Step
WZi:__ZN15dense_hashtableINSt3__24pairIK10KeyWrapperIPK10Il2CppTypeEjEES6_N6il2cpp8metadata14Il2CppTypeHashEN14dense_hash_mapIS6_jSB_NS6_14EqualsComparerINSA_26Il2CppTypeEqualityComparerEEENS0_9allocatorIS8_EEE9SelectKeyESF_SH_E9copy_fromERKSK_j
LU:__ZN19CloudServiceHandler17PauseEventHandlerEb
KOc:__ZN2UI6Canvas29EncapsulateChildrenMeshBoundsEv
boa:__ZN19ShaderPropertySheetD0Ev
t0h:_Array_Sort_TisVector3_t3722313464_TisVector3_t3722313464_m3923377973_gshared
aUf:_DefaultComparer_GetHashCode_m605456464_gshared
mif:_RIPEMD160Managed_HHH_m2839246531
Keg:_UInt32_Parse_m2778221109
xub:__Z18Transfer_BlittableI24GenerateTypeTreeTransferLb0EaEvRK29SerializationCommandArgumentsR31RuntimeSerializationCommandInfo
ZQe:_InputField_ProcessEvent_m2195684349
dad:_Graphic_OnEnable_m3893553015
ER:__ZN11UnityEngine15CloudWebService18CloudServiceConfigD2Ev
GAa:__ZN6prcoreL17RemapGenericFloatI15TexFormatRGHalf15TexFormatRFloatEEvPKNS_9InnerInfoE
Wjb:__ZN2UI13RectTransform8TransferI19StreamedBinaryWriteILb0EEEEvRT_
qPd:_MonoCustomAttrs_IsDefinedInternal_m2193933235
A1d:_MonoMethod_get_IsGenericMethodDefinition_m3024870835
uPa:__ZN20ArchiveStorageReader18DestroyCachedBlockEPNS_11CachedBlockE
u1i:__ZN15dense_hashtableINSt3__24pairIK10KeyWrapperIPK14Il2CppAssemblyEPK22Il2CppMonoAssemblyNameEES6_N6il2cpp5utils11PointerHashIS4_EEN14dense_hash_mapIS6_SA_SF_NS6_14EqualsComparerINS0_8equal_toIS5_EEEENS0_9allocatorISB_EEE9SelectKeyESK_SM_E9copy_fromERKSP_j
mma:__ZN9ShaderLab4Pass24CreateFromSerializedPassERKNS_14SerializedPassEPK6Shader
yjc:__Z61Register_UnityEngine_Texture2D_INTERNAL_CALL_GetPixelBilinearv
ihd:_HMAC_Dispose_m3665032088
sl:_emscripten_set_deviceorientation_callback
c8a:__ZNK14Texture2DArray22GetTypeVirtualInternalEv
eje:_InternalEnumerator_1_System_Collections_IEnumerator_get_Current_m1277470738_gshared
K0i:__ZN6il2cpp2vm10Reflection15GetParamObjectsEPK10MethodInfoP11Il2CppClass
Cea:__ZN8Playable16ProcessPlayStateERK19DirectorVisitorInfo
pjd:_X501_ToString_m2278029064
Pm:FUNCTION_TABLE_fif
iVh:__ZL80Graphic_t1660335611_CustomAttributesCacheGenerator_Graphic_OnFillVBO_m1026749972P21CustomAttributesCache
ncb:__ZN14SafeBinaryRead21TransferSTLStyleArrayI13dynamic_arrayI9InputAxisLj4EEEEvRT_17TransferMetaFlags
k9i:__ZN6il2cpp2vm13LivenessState14TraverseObjectEP12Il2CppObjectPS1_
Eb:invoke_viifiii
CZa:__ZNK13RenderTexture12IsMemorylessEv
una:__ZN9ShaderLab20SerializedSubProgram15AddTextureParamEPKciib16TextureDimension
Dfb:__ZN14SafeBinaryRead21TransferSTLStyleArrayINSt3__26vectorIN30RuntimeInitializeOnLoadManager15ClassMethodInfoE13stl_allocatorIS4_L18MemLabelIdentifier13ELi16EEEEEEvRT_17TransferMetaFlags
xqi:_Parser_NewParseException_m686511029
UJi:_HumanBone_t2465339518_marshal_pinvoke
oWh:__ZL96Mask_t1803652131_CustomAttributesCacheGenerator_Mask_OnSiblingGraphicEnabledDisabled_m2583294479P21CustomAttributesCache
Lci:_Comparison_1_Invoke_m941130260_gshared
ddg:_Type_GetType_m3605423543
D7h:_ReadOnlyCollection_1_System_Collections_Generic_IListU3CTU3E_set_Item_m375376101_gshared
wPd:_MonoEnumInfo__ctor_m3350651181_AdjustorThunk
Ixa:__ZN4crnd12crn_unpacker22decode_alpha_selectorsEv
poj:_GC_print_heap_sects
uQg:__Z74RuntimeInvoker_Vector2_t2156229523_Vector2_t2156229523_Vector2_t2156229523PFvvEPK10MethodInfoPvPS4_
FJb:__ZN16GeometryJobTasksC2E10MemLabelId
ydc:__ZN9Scripting30CreateScriptableObjectWithTypeE28ScriptingSystemTypeObjectPtrb
XKg:__Z131RuntimeInvoker_Int32_t2950945753_RuntimeObject_Int32_t2950945753_RuntimeObject_RuntimeObject_SByte_t1669577662_Int32U26_t1369213839PFvvEPK10MethodInfoPvPS4_
Voa:__ZN13GfxDeviceGLES19SetUserBackfaceModeEb
eSb:__ZN30ForwardShaderRenderLoopScratchD2Ev
oeg:_UInt16_System_IConvertible_ToInt64_m3635199533_AdjustorThunk
Efi:_InvokableCall_1_Invoke_m4150391468_gshared
Vlj:__ZN6il2cpp6icalls8mscorlib6System7Runtime16CompilerServices14RuntimeHelpers22get_OffsetToStringDataEv
FVc:__ZN20UnityConnectSettingsD0Ev
n_c:_ExecuteEvents_get_pointerExitHandler_m659239743
AUa:__Z15GetLightManagerv
kcc:__ZN18UnityPropertySheet21AddNewSerializedPropsERKS_
LWe:_Scrollbar_OnEnable_m665096645
$Va:__ZN9GfxDevice24GetMaxStaticBatchIndicesEv
qGi:_InputBuffer_UpdateCurrentInputLine_m2113149539
wpg:_Mathf_Floor_m1195858412
ili:_ExtendedKeyUsageExtension_Decode_m2326833343
SHa:__ZN9GfxDevice13SetViewMatrixERK10Matrix4x4f
Lza:__ZN6prcoreL12RemapGenericI17TexFormatRGBA888817TexFormatARGB1555EEvPKNS_9InnerInfoE
ywg:_SortingLayer_GetLayerValueFromID_m1947934714
ysd:_Char_ToLower_m3999837485
J$c:_ExecuteEvents_Execute_m1185511561
TSa:__ZN13MonoBehaviour30InvokeMethodOrCoroutineCheckedE18ScriptingMethodPtr18ScriptingObjectPtrP21ScriptingExceptionPtr
PLa:__ZNSt3__27__sort3IRN18AssetBundleManager27SortPreloadDataByIdentifierEPNS1_11PreloadDataEEEjT0_S6_S6_T_
Zoa:__ZN9GfxDevice21SetWorldMatrixAndTypeERK10Matrix4x4f13TransformType
Wwd:_Hashtable_set_Item_m1120781262
de:emscriptenWebGLComputeImageSize
Jqa:__ZN13GfxDeviceGLES32CreateDepthRenderSurfacePlatformEP17RenderSurfaceBase17DepthBufferFormat
