xc:_glClearStencil
ceg:_UInt16_System_IConvertible_ToChar_m2096055221_AdjustorThunk
hJf:_Array_TrueForAll_TisRuntimeObject_m1084992726_gshared
x8g:_List_1_Contains_m2043664690_gshared
iij:__ZN6il2cpp2vm5Array13GetByteLengthEP11Il2CppArray
Fxi:_KeyBuilder_get_Rng_m3373220441
rXc:__ZN15DownloadHandler7OnAbortEv
rSa:__Z30GetIntermediateRendererManagerv
tdi:_U3CCreateWhereIteratorU3Ec__Iterator1D_1_System_Collections_Generic_IEnumeratorU3CTSourceU3E_get_Current_m1909387290_gshared
Vxa:__Z21SourceMipLevelForBlitiiii
TWa:__ZN31CanvasBatchIntermediateRenderer15AddAsRenderNodeER15RenderNodeQueueRK20DeprecatedSourceData
tbg:_TimeSpan_get_Hours_m550761902
iRh:__ZL95CanvasRenderer_t2598313366_CustomAttributesCacheGenerator_CanvasRenderer_SetMaterial_m824577244P21CustomAttributesCache
aQh:__ZL72GUISkin_t1244372282_CustomAttributesCacheGenerator_m_verticalSliderThumbP21CustomAttributesCache
kJh:__ZL63PlayableOutputHandle_t4208053793_CustomAttributesCacheGeneratorP21CustomAttributesCache
kOd:_UnmanagedMemoryStream_Write_m930787521
yTc:__ZN11UnityEngine7Connect14AppUpdateEventD0Ev
wmh:__ZL66RuntimeArray_CustomAttributesCacheGenerator_Array_Sort_m3287581440P21CustomAttributesCache
WW:__ZdlPv
yr:__ZN11UnityEngine9Animation28GenericAnimationBindingCacheD2Ev
U8f:_UTF8Encoding_GetHashCode_m641510078
moi:_X509Store_LoadCrl_m1881903843
h0h:_Array_Sort_TisUICharInfo_t75501106_TisUICharInfo_t75501106_m722747892_gshared
xvd:_CaseInsensitiveComparer__ctor_m2101975011
LEg:__Z67RuntimeInvoker_Byte_t1134296376_Int32_t2950945753_Int32_t2950945753PFvvEPK10MethodInfoPvPS4_
R6a:__ZNSt3__26vectorI13dynamic_arrayI8Vector2fLj4EENS_9allocatorIS3_EEEC2INS_11__wrap_iterIPS3_EEEET_SB_RKS5_PNS_9enable_ifIXaasr21__is_forward_iteratorISB_EE5valuesr16is_constructibleIS3_NS_15iterator_traitsISB_E9referenceEEE5valueEvE4typeE
oDg:__Z53RuntimeInvoker_UInt32_t2560061978_Decimal_t2948259380PFvvEPK10MethodInfoPvPS4_
ZXb:__Z18RestoreRenderStateR20CameraRenderOldStateR17ShaderPassContext
tyb:__Z18Transfer_BlittableI18StreamedBinaryReadILb1EELb1E5RectTIfEEvRK29SerializationCommandArgumentsR31RuntimeSerializationCommandInfo
lub:__Z18Transfer_BlittableI24GenerateTypeTreeTransferLb0E11ColorRGBA32EvRK29SerializationCommandArgumentsR31RuntimeSerializationCommandInfo
eDb:__Z25scripting_class_from_name17ScriptingImagePtrPKcS1_
cMf:_Array_InternalArray__IndexOf_TisKeyValuePair_2_t3699644050_m1021241249_gshared
O2i:__ZN14dense_hash_mapI10KeyWrapperINSt3__24pairIPK12PropertyInfoP11Il2CppClassEEEj17ReflectionMapHashIS8_ENS9_14EqualsComparerINS1_8equal_toIS8_EEEENS1_9allocatorINS2_IKS9_jEEEEE15set_deleted_keyERSH_
FEb:__Z29scripting_class_enum_basetype17ScriptingClassPtr
w8g:_List_1_Clear_m3097985365_gshared
KX:__ZNK12BaseRenderer18GetRenderNodeCountEv
TZd:_PropertyBuilder_get_CanWrite_m2657562188
fte:_InternalEnumerator_1_get_Current_m1477715453_gshared
J$f:_Enumerator__ctor_m2827156589_AdjustorThunk
Ilb:__ZNK20LocalFileSystemPosix6ParentERK13FileEntryDataRN4core12basic_stringIcNS3_20StringStorageDefaultIcEEEE
nvg:_RectTransform_GetWorldCorners_m3553547973
Keh:_Collection_1_System_Collections_IList_Remove_m1476284619_gshared
X$e:_ContractionComparer__ctor_m3439667810
kQd:_MonoType_IsPrimitiveImpl_m2401722705
vjf:_SHA1CryptoServiceProvider__ctor_m4195188793
Xkg:_CSSMeasureFunc_BeginInvoke_m3802154595
u8c:_Dropdown_Hide_m504034854
GLa:__ZN17PersistentManager22CheckInstanceIDsLoadedEPii
O3a:__ZN9Texture2D25CreateScaledAndPaddedDataEPP17SharedTextureDataS2_
hzg:_Vector2_get_up_m2647420593
zva:__ZN7ApiGLES17CopyBufferSubDataEjjlll
dPf:_Array_InternalArray__ICollection_CopyTo_TisUInt64_t4134040092_m691431926_gshared
oeh:__ZN23InterfaceActionInvoker2Ii22OrderBlock_t1585977831E6InvokeEjP11Il2CppClassP12Il2CppObjectiS0_
iaf:_IPAddress_ToString_m1181734207
$6f:_StringBuilder_Append_m1965104174
Woc:__ZN5Unity9rapidjson15GenericDocumentINS0_4UTF8IcEE13JSONAllocatorS4_E11ParseStreamILj1ES3_NS0_25GenericInsituStringStreamIS3_EEEERS5_RT1_
FMi:__ZNSt3__26vectorIPK10Il2CppTypeNS_9allocatorIS3_EEE7reserveEj
GVf:_EqualityComparer_1__cctor_m3766928733_gshared
eQb:__ZN25CameraStackRenderingState20GetOrCreateBuiltinRTE24BuiltinRenderTextureTypeii17DepthBufferFormat19RenderTextureFormatj22RenderTextureReadWrite14VRTextureUsagei
Bgi:_UnityAction_1_Invoke_m610765085_gshared
vO:__ZN11AudioModule26SetDefaultMicrophoneDriverEPv
U5d:_Kernel_modInverse_m652700340
j8a:__ZNK14Texture2DArray26CanReuploadDataToGfxDeviceEv
tUb:__ZN17PrePassRenderLoop14RenderBasePassEP13RenderTextureRK14LightingLayersR13dynamic_arrayI16RenderObjectDataLj4EERbR10MinMaxAABB
qQa:__ZN17GlobalGameManager23VirtualRedirectTransferER17RemapPPtrTransfer
LEc:_sfnt_stream_close
Lmc:__ZN5IMGUI18RepaintModalWindowER8GUIState
H7e:_HybridDictionary_get_IsSynchronized_m2987560362
i4:__ZNK15dense_hashtableINSt3__24pairIKN9ShaderLab7Program23ShaderKeywordSetAndHashEPKNS2_10SubProgramEEES4_NS3_24ShaderKeywordHashFunctorEN14dense_hash_mapIS4_S8_SA_NS0_8equal_toIS4_EE13stl_allocatorIS9_L18MemLabelIdentifier67ELi16EEE9SelectKeyESD_SG_E23find_position_with_hashERS5_j
KDf:_CompareInfo_Finalize_m404687489
U6a:__Z23SetSpriteMeshIndexCountP14SharedMeshDataj
X8f:_UTF8Decoder_GetChars_m1236346907
zxg:_TouchScreenKeyboard_Open_m231964201
W_a:__ZN7Texture13SetFilterModeEi
Xsg:_Quaternion_GetHashCode_m2636680144_AdjustorThunk
yIb:__ZNSt3__26vectorINS_4pairIiN17InstancingBatcher12PropertyTypeEEE13stl_allocatorIS4_L18MemLabelIdentifier1ELi16EEE21__push_back_slow_pathIKS4_EEvRT_
sOh:__ZL99AudioSource_t3935305588_CustomAttributesCacheGenerator_AudioSource_t3935305588____clip_PropertyInfoP21CustomAttributesCache
Kjj:__ZN6il2cpp8metadata13GenericMethod9GetMethodEPK19Il2CppGenericMethod
mq:__ZNSt3__26vectorIN4core12basic_stringIcNS1_20StringStorageDefaultIcEEEENS_9allocatorIS5_EEE7reserveEj
RTd:_Default_SelectProperty_m1220817815
WDe:_RemotingConfiguration_IsRemotelyActivatedClientType_m4117048589
pvg:_Transform_TransformPoint_m226827784
Xii:_ListPool_1_Get_m738675669_gshared
spa:__ZN13GfxDeviceGLES11SetViewportERK5RectTIiE
Bjc:__Z24Time_Get_Custom_PropTimev
Od:_emscripten_glDepthRange
Dge:_SslStreamBase_BeginNegotiateHandshake_m4180435790
m_b:__ZNSt3__26vectorINS_4pairIN4core12basic_stringIcNS2_20StringStorageDefaultIcEEEES6_EE13stl_allocatorIS7_L18MemLabelIdentifier38ELi16EEE12__move_rangeEPS7_SC_SC_
Cia:__Z14resize_trimmedINSt3__26vectorIN9ShaderLab20SerializedSubProgram12UAVParameterENS0_9allocatorIS4_EEEEEvRT_j
opc:__ZN5Unity9rapidjson13GenericReaderINS0_4UTF8IcEES3_13JSONAllocatorE11ParseObjectILj1ENS0_25GenericInsituStringStreamIS3_EENS0_15GenericDocumentIS3_S4_S4_EEEEvRT0_RT1_
O2c:_StandaloneInputModule_GetRawMoveVector_m2737091079
jXh:__ZL62Selectable_t3250028441_CustomAttributesCacheGenerator_m_ColorsP21CustomAttributesCache
Wge:_SslStreamBase_EndWrite_m4073224031
H1:__ZNSt3__218__insertion_sort_3IRNS_6__lessI14ObjectLoadDataS2_EEPS2_EEvT0_S6_T_
EOh:__ZL92Event_t2956885303_CustomAttributesCacheGenerator_Event_Internal_GetMousePosition_m1101229675P21CustomAttributesCache
E1g:_List_1_System_Collections_ICollection_get_SyncRoot_m1244917400_gshared
pxa:__ZN4crndL20crnd_default_reallocEPvjPjbS0_
SZg:__Z54RuntimeInvoker_CustomAttributeNamedArgument_t287865710PFvvEPK10MethodInfoPvPS4_
Cxj:__ZNSt3__212basic_stringIcNS_11char_traitsIcEENS_9allocatorIcEEEC2ERKS5_
K7a:__ZN18SpriteAtlasManager19AddRequestingSpriteE4PPtrI6SpriteE
mjc:__Z33Texture_CUSTOM_Internal_GetHeightP12Il2CppObject
cPh:__ZL102GUIStyle_t3956901511_CustomAttributesCacheGenerator_GUIStyle_INTERNAL_CALL_GetRectOffsetPtr_m152975056P21CustomAttributesCache
eM:__ZNK4PPtrI9AudioClipEptEv
mBe:_ValueCollection_System_Collections_ICollection_get_SyncRoot_m3381653267_gshared
H4c:_CanvasScaler_get_defaultSpriteDPI_m871626936
cXb:__ZN23ScriptableRenderContextC2Ev
ibd:_GridLayoutGroup_get_spacing_m2409263614
DSa:__ZN4PPtrI13RenderTextureE8TransferI18StreamedBinaryReadILb0EEEEvRT_
fAe:_Enumerator_MoveNext_m3051926902_gshared
M2f:_List_1_CheckIndex_m581273900_gshared
FGc:_UNITY_FT_Stream_GetChar
$zg:_WaitForSeconds_t1699091251_marshal_pinvoke
mji:_ObjectPool_1_get_countAll_m819305395_gshared
Uyb:__Z18Transfer_BlittableI18StreamedBinaryReadILb1EELb1EdEvRK29SerializationCommandArgumentsR31RuntimeSerializationCommandInfo
b4g:_List_1_ToArray_m190175978_gshared
NEb:__Z26BuildSerializationCacheFor17ScriptingClassPtrRb
R_c:_EventSystem_get_firstSelectedGameObject_m1576206896
zDa:__ZN7ApiGLES15BlitFramebufferEN2gl6HandleILNS0_10ObjectTypeE9EEENS0_15FramebufferReadES3_S3_iiiiiiiiNS0_15FramebufferTypeE
L3i:_il2cpp_class_get_name
WMg:__Z112RuntimeInvoker_RuntimeObject_RuntimeObject_RuntimeObject_RuntimeObject_RuntimeObject_RuntimeObject_RuntimeObjectPFvvEPK10MethodInfoPvPS4_
use:_InternalEnumerator_1_System_Collections_IEnumerator_get_Current_m3553395619_AdjustorThunk
Yoh:__ZL70AssemblyVersionCompatibility_t766556580_CustomAttributesCacheGeneratorP21CustomAttributesCache
nnd:_Array_SetValue_m3998268557
Gvc:__ZN8JSONRead8TransferI8Vector4fEEvRT_PKc17TransferMetaFlagsb
E5c:_ColorBlock_set_highlightedColor_m2089444414_AdjustorThunk
XVg:__Z59RuntimeInvoker_Boolean_t97287965_X509ChainStatus_t133602714PFvvEPK10MethodInfoPvPS4_
_ug:_RectTransform_INTERNAL_set_anchoredPosition_m939517950
ode:_Context_EndSwitchingSecurityParameters_m4148956166
JBc:_otv_PairPos_validate
Syh:__ZL63ThreadStateException_t3003788475_CustomAttributesCacheGeneratorP21CustomAttributesCache
aw:__ZN7mecanim9animation14CopyHumanPosesEPKNS0_18AnimationNodeStateEPS1_RKNS_6bitsetILj83EEE
IUi:__ZN6il2cpp6icalls8mscorlib6SystemL8IsStaticEPK12PropertyInfo
cGb:__Z9InitInputv
_1i:__ZN30dense_hashtable_const_iteratorINSt3__24pairIK10KeyWrapperIPK22Il2CppGenericParameterEPK24MonoGenericParameterInfoEES6_N6il2cpp5utils11PointerHashIS4_EEN14dense_hash_mapIS6_SA_SF_NS6_14EqualsComparerINS0_8equal_toIS5_EEEENS0_9allocatorISB_EEE9SelectKeyESK_SM_E30advance_past_empty_and_deletedEv
EDc:_UNITY_tt_face_build_cmaps
j_i:__ZN6il2cpp2gc19AppendOnlyGCHashMapINSt3__24pairIPK10MethodInfoP11Il2CppClassEEP22Il2CppReflectionMethod17ReflectionMapHashIS9_ENS2_8equal_toIS9_EEE3AddERKS9_SB_
Nmb:__ZN16MemoryFileSystem6DeleteER13FileEntryDatab
GHg:__Z81RuntimeInvoker_Void_t1185182177_RuntimeObject_Int64_t3736567304_Int32_t2950945753PFvvEPK10MethodInfoPvPS4_
X3f:_List_1_set_Item_m1979164443_gshared
lya:__ZL21BlitScaleStbImageImplRK14ImageReferenceRS_NS_10ColorSpaceE
Spd:_Boolean_System_IConvertible_ToUInt16_m3465173538_AdjustorThunk
FPe:_InputField_get_keyboardType_m1248105267
cqb:__Z29Transfer_Blittable_ArrayFieldI14SafeBinaryReadyEvRT_R9ArrayInfoRK23StaticTransferFieldInfo
kM:__ZN20SoundChannelInstance15setChannelGroupEPN4FMOD12ChannelGroupE
Koi:_Match__ctor_m2425511580
Xph:__ZL63FileNotFoundException_t225391025_CustomAttributesCacheGeneratorP21CustomAttributesCache
JFh:__ZL84Behaviour_t1437897464_CustomAttributesCacheGenerator_Behaviour_set_enabled_m20417929P21CustomAttributesCache
lc:invoke_vifffii
EBb:__Z35Transfer_Blittable_FixedBufferFieldI18StreamedBinaryReadILb0EEaEvRK29SerializationCommandArgumentsR31RuntimeSerializationCommandInfo
B9i:__ZN6il2cpp2vm9Exception27RaiseNullReferenceExceptionEv
vOa:__ZNK25MultiBlocksMemoryFileData5CloneEv
lme:_InternalEnumerator_1_System_Collections_IEnumerator_Reset_m3873091784_AdjustorThunk
qpj:_GC_add_ext_descriptor
AYi:__ZNK15dense_hashtableINSt3__24pairIK10KeyWrapperINS1_IPK14Il2CppAssemblyP11Il2CppClassEEEjEES9_17ReflectionMapHashIS8_EN14dense_hash_mapIS9_jSD_NS9_14EqualsComparerINS0_8equal_toIS8_EEEENS0_9allocatorISB_EEE9SelectKeyESI_SK_E23find_position_with_hashERSA_j
b2h:_LayoutGroup_SetProperty_TisSingle_t1397266774_m793506911_gshared
sqj:__ZN6il2cpp2os14WindowsRuntime22GetRestrictedErrorInfoEv
ufd:_CryptoConfig_CreateFromName_m1538277313
vah:_Queue_1__ctor_m263978079_gshared
ANa:__ZN17ArchiveFileSystem11CreateAsDirER13FileEntryData
Dzj:dynCall_iiiiiiiiiiii
QPe:_InputField_set_caretPositionInternal_m3823580651
HJa:__ZN22VertexDeclarationCacheD0Ev
rZe:_Selectable_set_interactable_m3105888815
dXa:__ZL26KeywordSetToStringDontSortRKNSt3__26vectorIN4core12basic_stringIcNS1_20StringStorageDefaultIcEEEENS_9allocatorIS5_EEEERS5_
dAa:__ZN6prcoreL17RemapGenericFloatI16TexFormatRGFloat17TexFormatRGBAHalfEEvPKNS_9InnerInfoE
tG:__ZN12AudioManager22CreateFMODSoundFromWWWEP10IWWWStream15FMOD_SOUND_TYPE17FMOD_SOUND_FORMATjjbbP10SampleClip
S5b:__ZNK32RendererMaterialAnimationBinding15GenerateBindingERKN4core12basic_stringIcNS0_20StringStorageDefaultIcEEEEbRN11UnityEngine9Animation14GenericBindingE
S2d:_TargetException__ctor_m4172127019
Z2g:_List_1_CheckCollection_m274117203_gshared
MRh:__ZL70EventSystem_t1003666588_CustomAttributesCacheGenerator_m_FirstSelectedP21CustomAttributesCache
b_:__ZN8Remapper23GetOrGenerateInstanceIDERK26SerializedObjectIdentifier
q6c:_ColorTween_get_startColor_m3792586410_AdjustorThunk
HNa:__ZN17FileSystemHandler10AtomicMoveER13FileEntryDataS1_
Ya:invoke_iiiiiifffiiifii
DEg:__Z85RuntimeInvoker_Void_t1185182177_Int32_t2950945753_Int32_t2950945753_Int32_t2950945753PFvvEPK10MethodInfoPvPS4_
VMe:_BinaryFormatter_get_SurrogateSelector_m2111882017
Qjd:_X509CertificateCollection__ctor_m3365535796
GRd:_CustomInfo__ctor_m426096741
h$c:_EventSystem_ToString_m3779610692
d7a:__ZN6Sprite8TransferI24GenerateTypeTreeTransferEEvRT_
jLe:_SoapTypeAttribute_get_IsInteropXmlType_m629667929
qkc:__Z48Register_UnityEngine_Transform_SetAsFirstSiblingv
p1a:__ZNK18DelayedCallManager22GetTypeVirtualInternalEv
g7a:__ZN7SubMesh8TransferI24GenerateTypeTreeTransferEEvRT_
Wsi:_Literal_IsComplex_m4067122560
JVi:_NativeTypeAttribute__ctor_m133676646
CJb:__ZN19GfxThreadableDevice20SetShadersThreadableEPP10GpuProgramPPK20GpuProgramParametersPKPKh
yhh:_Collection_1_System_Collections_IList_Contains_m296643274_gshared
mId:_DirectoryInfo__ctor_m126519516
r$d:_MethodBase_GetMethodFromIntPtr_m3014201362
Qeh:__ZN21InterfaceFuncInvoker1I19Color32_t2600501292iE6InvokeEjP11Il2CppClassP12Il2CppObjecti
_ri:_Reference_get_CapturingGroup_m3861468528
kEg:__Z40RuntimeInvoker_TypeAttributes_t113483779PFvvEPK10MethodInfoPvPS4_
scc:__ZN9Transform23SetSiblingIndexInternalEib
L3g:_List_1_Clear_m1143167521_gshared
W_d:_AddEventAdapter__ctor_m2428277574
vjh:_Collection_1_SetItem_m794903769_gshared
Fyd:_Enumerator_MoveNext_m635366482
dkd:_X509Extension_Equals_m1222951829
uu:__ZN7mecanim5human12HumanPoseSubERNS0_9HumanPoseERKS1_S4_
y$g:__Z37RuntimeInvoker_Enumerator_t1789501480PFvvEPK10MethodInfoPvPS4_
Hdj:__ZN6il2cpp8metadata15GenericMetadata15GetGenericClassEiPK17Il2CppGenericInst
Fsd:_Char_GetTypeCode_m2433327340_AdjustorThunk
Dob:__Z18Transfer_BlittableI14SafeBinaryReadLb0E10Matrix4x4fEvRK29SerializationCommandArgumentsR31RuntimeSerializationCommandInfo
cEb:__Z24GetFixedBehaviourManagerv
hlh:__ZL69IntPtr_t_CustomAttributesCacheGenerator_IntPtr_op_Equality_m408849716P21CustomAttributesCache
ETi:__ZN6il2cpp2vm10ThreadPool4WaitEP17Il2CppAsyncResultPPv
y$e:_Text_UpdateGeometry_m3634850647
Yni:_X509Crl_VerifySignature_m1377612461
Ruj:_vfprintf
inc:__ZN10GUIManager12AddGUIScriptER8ListNodeI13MonoBehaviourE
dBf:_NumberFormatInfo_get_PositiveInfinitySymbol_m1141345134
Uyd:_Stack_Clear_m2010200235
M0a:__ZL13SortTexByNameRKNSt3__24pairIN9ShaderLab16FastPropertyNameEN18UnityPropertySheet11UnityTexEnvEEES7_
nyc:_cf2_getVStore
Z0c:_PointerEventData_set_pointerPressRaycast_m1363193059
aOb:__ZN20DynamicPropertySheetD0Ev
g5d:_SafeHandle_Dispose_m4229010569
q_b:__ZN14SafeBinaryRead17RegisterConverterEPKcS1_PFbPvRS_E
rKh:__ZL77RuntimePlatform_t4159857903_CustomAttributesCacheGenerator_OSXDashboardPlayerP21CustomAttributesCache
m8:__ZN35RegisterRuntimeInitializeAndCleanup8RegisterEPFvPvES2_iS0_
Cli:_SubjectAltNameExtension_get_IPAddresses_m1641002124
xXd:_FieldBuilder_SetValue_m828035213
dQf:_Array_InternalArray__Insert_TisSingle_t1397266774_m3161726127_gshared
y9h:_ReadOnlyCollection_1_System_Collections_IList_get_IsFixedSize_m733459177_gshared
Elh:__ZL72Enum_t4135868527_CustomAttributesCacheGenerator_Enum_ToObject_m121962870P21CustomAttributesCache
v3f:__ZN23InterfaceActionInvoker2IP24ObjectU5BU5D_t2843939325iE6InvokeEjP11Il2CppClassP12Il2CppObjectS1_i
ukc:__Z21Object_CUSTOM_DestroyP12Il2CppObjectf
HKh:__ZL99SetupCoroutine_t2062820429_CustomAttributesCacheGenerator_SetupCoroutine_InvokeMoveNext_m3199342729P21CustomAttributesCache
foa:__ZN8Material26ResetAllCachedMaterialDataEP6Shader
yLg:__Z63RuntimeInvoker_Void_t1185182177_RuntimeObject_Int16_t2552820387PFvvEPK10MethodInfoPvPS4_
RGc:_UNITY_TT_Get_MM_Var
dOe:_ObjectManager_AddFixup_m2154325362
wue:_Comparer_1__cctor_m3761458313_gshared
hwf:_DateTimeOffset_CompareTo_m1350732322_AdjustorThunk
aa:invoke_diddi
QOc:__ZNK2UI6Canvas13GetRenderModeEv
Lmg:_PersistentCall__ctor_m1217622171
hLf:_Array_compare_TisCustomAttributeTypedArgument_t2723150157_m1384644047_gshared
W6e:_StrongName_get_TokenAlgorithm_m1794722022
bId:_BinaryReader_ReadInt32_m2994982418
Onb:__Z18Transfer_BlittableI14SafeBinaryReadLb0EiEvRK29SerializationCommandArgumentsR31RuntimeSerializationCommandInfo
qSi:__ZN6il2cpp2vm13MetadataCache30GetPropertyDefinitionFromIndexEi
Nxi:_SymmetricTransform_Transform_m1683494363
fug:_Rect_Contains_m1232228501
AVc:__ZN22BaseUnityConnectClient17InitializeSessionERKN4core12basic_stringIcNS0_20StringStorageDefaultIcEEEES6_N19CloudServiceHandler13InitModeFlagsE
qRg:__Z74RuntimeInvoker_RuntimeObject_Int32_t2950945753_RuntimeObject_RuntimeObjectPFvvEPK10MethodInfoPvPS4_
T8g:_List_1_get_Item_m200663048_gshared
KKe:_ReturnMessage_get_Exception_m3375728265
zFj:_emscripten_glDeleteBuffers__wrapper
joe:_InternalEnumerator_1_MoveNext_m3664960764_AdjustorThunk
Vdc:__ZN13MonoBehaviour34StopCoroutineFromEnumeratorManagedE18ScriptingObjectPtr
r1g:_List_1__ctor_m1345008423_gshared
PEc:_gray_raster_reset
$hg:_Application_set_targetFrameRate_m3682352535
mzg:_Vector3__ctor_m1719387948_AdjustorThunk
dgb:__ZN30RuntimeInitializeOnLoadManager8TransferI18StreamedBinaryReadILb0EEEEvRT_
tvf:_DateTimeOffset__ctor_m2084804982
eDc:_UNITY_tt_face_load_pclt
Anb:__ZN9profiling17ScriptingProfiler31UpdateRegisteredScriptingEventsEv
pdc:__ZL34GetComponentsImplementationRecurseILb1ELi0ELi2EEbR10GameObjectbRK17CompareParametersRK39GetComponentsImplementation_ReturnValue
QFa:__ZN20ComputeShaderVariantD2Ev
bpg:_Material_GetTexture_m3545614349
pCg:__Z64RuntimeInvoker_RuntimeObject_Int32_t2950945753_Int16_t2552820387PFvvEPK10MethodInfoPvPS4_
I3e:_ASN1_get_Length_m1923878580
CWf:_EqualityComparer_1__cctor_m4244842342_gshared
xNb:__ZNK6Camera18WorldToScreenPointERK8Vector3fPb
kwg:_SendMouseEvents_DoSendMouseEvents_m2140870850
Kpi:_PatternCompiler_EmitJump_m3915926156
ICa:__Z18IsCompressedFormat14GraphicsFormat
Pu:__ZN7mecanim9animation19AdjustPoseForMotionERKNS0_14AvatarConstantERKNS0_14SkeletonTQSMapERKN4math4trsXERNS_10ValueArrayERNS_8skeleton13SkeletonPoseTIS8_EESG_
Rcd:_SerializationEntry_get_Name_m1530029541_AdjustorThunk
b9e:_TypeConverterAttribute_GetHashCode_m948291090
Ibg:__Z33il2cpp_codegen_check_add_overflowxx
dZ:__ZNSt3__227__insertion_sort_incompleteIRPFbRKN18AwakeFromLoadQueue4ItemES4_EPS2_EEbT0_S9_T_
jRg:__Z71RuntimeInvoker_Boolean_t97287965_AnimatorControllerPlayable_t1015767841PFvvEPK10MethodInfoPvPS4_
zKh:__ZL73RuntimePlatform_t4159857903_CustomAttributesCacheGenerator_MetroPlayerARMP21CustomAttributesCache
FHd:_InvalidOperationException__ctor_m1685032583
qQi:__ZN14dense_hash_mapI10KeyWrapperIN6il2cpp5utils13dynamic_arrayIPK10Il2CppTypeLj4EEEEPFvvENS1_8metadata19Il2CppSignatureHashENS8_14EqualsComparerINSB_22Il2CppSignatureCompareEEENSt3__29allocatorINSG_4pairIKS8_SA_EEEEE15set_deleted_keyERSJ_
ocg:_TimeSpan_op_Subtraction_m3592306516
AYf:_EqualityComparer_1_System_Collections_IEqualityComparer_GetHashCode_m1517903420_gshared
F4a:__ZN26EnlightenSystemInformation8TransferI14SafeBinaryReadEEvRT_
ifb:__ZN24GenerateTypeTreeTransfer8TransferINSt3__26vectorIN15ResourceManager10DependencyE13stl_allocatorIS4_L18MemLabelIdentifier52ELi16EEEEEEvRT_PKc17TransferMetaFlags
HIi:_CanvasRenderer_SplitUIVertexStreams_m2753637362
OSg:__Z119RuntimeInvoker_Void_t1185182177_RuntimeObject_Single_t1397266774_Single_t1397266774_SByte_t1669577662_Int32_t2950945753PFvvEPK10MethodInfoPvPS4_
PWc:__ZN11UnityEngine15PlatformWrapper20SetPlayerPrefsUInt64ERKN4core12basic_stringIcNS1_20StringStorageDefaultIcEEEEy
ubb:__ZN12MeshRendererD0Ev
IP:__ZN12AudioManager35GetCurrentSpatializerDefinitionNameEv
Exg:_TouchScreenKeyboard_get_active_m4267591905
w1i:__ZNK15dense_hashtableINSt3__24pairIK10KeyWrapperIPK14Il2CppAssemblyEPK22Il2CppMonoAssemblyNameEES6_N6il2cpp5utils11PointerHashIS4_EEN14dense_hash_mapIS6_SA_SF_NS6_14EqualsComparerINS0_8equal_toIS5_EEEENS0_9allocatorISB_EEE9SelectKeyESK_SM_E8min_sizeEjj
zh:_utime
kMh:__ZL56PlayableGraph_t3515989261_CustomAttributesCacheGeneratorP21CustomAttributesCache
csi:_BalancingGroup_Compile_m2575117193
HB:__Z28SetExposedSkeletonTransformsRKN7mecanim9animation14AvatarConstantERKN11UnityEngine9Animation30AnimatorGenericBindingConstantERKNS_8skeleton13SkeletonPoseTIN4math4trsXEEERKNSA_INSB_7affineXEEERNS5_21AvatarBindingConstantEy
HXi:__ZNSt3__26vectorIN6il2cpp2vm17TypeNameParseInfoENS_9allocatorIS3_EEE8allocateEj
Foi:_Mark_get_Index_m3048692661_AdjustorThunk
tki:_TlsServerSettings_get_CertificateRequest_m842655670
qn:FUNCTION_TABLE_viiiiif
aue:_DefaultComparer_Compare_m3931992727_gshared
vn:FUNCTION_TABLE_viiiiii
Yse:_InternalEnumerator_1_System_Collections_IEnumerator_get_Current_m1847780851_AdjustorThunk
Dwi:_GUILayoutUtility_get_spaceStyle_m3392862907
tFd:_Int32_System_IConvertible_ToType_m3009233912_AdjustorThunk
uvf:_DateTimeOffset__ctor_m74032857
hD:__ZN7mecanim9animation22DestroyAvatarWorkspaceEPNS0_15AvatarWorkspaceERNS_6memory9AllocatorE
hdg:_Type_type_is_assignable_from_m76737532
MUe:_MaskableGraphic_ParentMaskStateChanged_m1092090553
xUb:__ZN15LightmapSTCacheC2ER13BatchRendererR15RenderLoopStats
i1a:__ZN14PlayableOutput17SetSourcePlayableEP8Playable
nff:_X509ExtensionCollection_get_IsSynchronized_m2607599544
xC:__ZN7mecanim9animation29MotionOutputGetDeltaTransformEPKNS0_12MotionOutputE
NBh:__ZL64MissingFieldException_t1989070983_CustomAttributesCacheGeneratorP21CustomAttributesCache
rbi:_ReadOnlyCollection_1_System_Collections_Generic_ICollectionU3CTU3E_Add_m2369252587_gshared
Xki:_ValidationResult_get_ErrorCode_m1533688152
Pjc:__Z43Transform_CUSTOM_INTERNAL_get_localRotationP12Il2CppObjectP11Quaternionf
pEf:_CultureInfo_get_Parent_m672689885
Kpj:__ZN6il2cpp6icalls8mscorlib6System10Reflection4Emit13ModuleBuilder13RegisterTokenEP29Il2CppReflectionModuleBuilderP12Il2CppObjecti
dKg:__Z50RuntimeInvoker_Int64_t3736567304_SByte_t1669577662PFvvEPK10MethodInfoPvPS4_
FDj:_glGetShaderInfoLog__wrapper
ONe:_ObjectReader_ReadObjectGraph_m340866276
pze:_Transform_1_EndInvoke_m2716226219_gshared
ci:_emscripten_glGetTexParameteriv
aTc:__ZN11UnityEngine7Connect15DeviceInfoEvent7GFXInfoD2Ev
aFj:_glGenTextures__wrapper
B5i:__ZN15dense_hashtableINSt3__24pairIK10KeyWrapperINS1_IP11Il2CppClassjEEES4_EES6_N6il2cpp8metadata14ArrayClassHashEN14dense_hash_mapIS6_S4_SB_NS6_14EqualsComparerINSA_17ArrayClassCompareEEENS0_9allocatorIS8_EEE9SelectKeyESF_SH_EC2EjRKSB_RKSF_RKSJ_
J7f:_UnicodeEncoding_GetHashCode_m354003420
Zia:__ZN9ShaderLab20SerializedSubProgram14ConstantBufferaSERKS1_
A2b:__Z13RegisterClassI4MeshEvv
GNh:__ZL74SharedBetweenAnimatorsAttribute_t2857104338_CustomAttributesCacheGeneratorP21CustomAttributesCache
iCf:_Enum_Equals_m3617313991
FPg:__Z98RuntimeInvoker_Boolean_t97287965_PlayableOutputHandle_t4208053793_PlayableOutputHandle_t4208053793PFvvEPK10MethodInfoPvPS4_
gVg:__Z74RuntimeInvoker_Boolean_t97287965_LineTypeU26_t2430394419_Int32_t2950945753PFvvEPK10MethodInfoPvPS4_
H_a:__ZN8PlayableD0Ev
wg:emscriptenWebGLGetBufferBinding
YH:__ZN12AudioManager8TransferI19StreamedBinaryWriteILb0EEEEvRT_
UZe:_Slider_UpdateCachedReferences_m3259451627
Kge:_SslStreamBase_get_KeyExchangeStrength_m217695965
UJg:__Z50RuntimeInvoker_Double_t594665363_Double_t594665363PFvvEPK10MethodInfoPvPS4_
BIg:__Z60RuntimeInvoker_Void_t1185182177_StreamingContext_t3711869237PFvvEPK10MethodInfoPvPS4_
Kzb:__ZN18StreamedBinaryReadILb1EE21TransferSTLStyleArrayI13dynamic_arrayI11ColorRGBA32Lj4EEEEvRT_17TransferMetaFlags
t6i:__ZN15dense_hashtableINSt3__24pairIK10KeyWrapperINS1_IP11Il2CppClassjEEES4_EES6_N6il2cpp8metadata14ArrayClassHashEN14dense_hash_mapIS6_S4_SB_NS6_14EqualsComparerINSA_17ArrayClassCompareEEENS0_9allocatorIS8_EEE9SelectKeyESF_SH_E6insertERKS8_
R8c:_U3CShowU3Ec__AnonStorey1_U3CU3Em__0_m2340880019
fZe:_Selectable_OnSetProperty_m1693943217
I2f:_List_1_GetIndex_m2300811709_gshared
R5b:__ZNK32RendererMaterialAnimationBinding12GetPPtrValueERKN11UnityEngine9Animation10BoundCurveE
PAb:__Z18Transfer_BlittableI18StreamedBinaryReadILb0EELb0E8Vector2fEvRK29SerializationCommandArgumentsR31RuntimeSerializationCommandInfo
dQc:__ZN2UI11CanvasGroup12CleanupClassEv
Rki:_TlsStream_Flush_m3793197834
E3f:_List_1_GetIndex_m2832472557_gshared
qlb:__ZN22LocalFileSystemHandler9MakeLocalER13FileEntryDatab
glj:__ZN6il2cpp2vm8Profiler10AllocationEP12Il2CppObjectP11Il2CppClass
cVh:__ZL61Graphic_t1660335611_CustomAttributesCacheGenerator_m_MaterialP21CustomAttributesCache
mLc:__ZNSt3__23mapIN20TextRenderingPrivate7FontRefENS1_6OSFontENS_4lessIS2_EENS_9allocatorINS_4pairIKS2_S3_EEEEEixERS8_
mga:__Z13FormatOrderedPKcz
dVi:__ZN6il2cpp2vm8basepathEPKc
Hdf:_X509Chain_GetAuthorityKeyIdentifier_m614536199
MIc:__ZN14SafeBinaryRead21TransferSTLStyleArrayI10vector_mapINSt3__24pairIttEEfN20TextRenderingPrivate8FontImpl14KerningCompareENS2_9allocatorINS3_IS4_fEEEEEEEvRT_17TransferMetaFlags
bce:_TlsServerFinished__ctor_m1445633918
QDd:_NumberFormatter_FastIntegerToString_m390846811
AKh:__ZL68RuntimePlatform_t4159857903_CustomAttributesCacheGenerator_WP8PlayerP21CustomAttributesCache
z5e:_PKCS1_RSASP1_m3912327535
iUb:__ZN25DeferredRenderLoopScratchD0Ev
Sw:__ZN27AnimationLayerMixerPlayable14SetInputWeightEif
C0c:_PhysicsRaycaster_Raycast_m776323695
Hyg:_UnityException__ctor_m1456865679
qu:__ZN7mecanim9animation17EvaluateHumanPoseERKNS0_18ClipMuscleConstantERKNS0_15ClipMuscleInputEPKfRKNS0_12MotionOutputERNS_5human9HumanPoseE
FSh:__ZL92PointerEventData_t3807901092_CustomAttributesCacheGenerator_U3CscrollDeltaU3Ek__BackingFieldP21CustomAttributesCache
hia:__ZN15dense_hashtableINSt3__24pairIKiN4core17string_with_labelILi1EEEEEi18SInt32HashFunctionN14dense_hash_mapIiS5_S7_NS0_8equal_toIiEE13stl_allocatorIS6_L18MemLabelIdentifier1ELi16EEE9SelectKeyESA_SD_E9copy_fromERKSG_j
pUd:_CustomAttributeNamedArgument_GetHashCode_m2317130892
Feb:__ZN15ResourceManagerD0Ev
AWf:_EqualityComparer_1_get_Default_m990790318_gshared
qMe:_WellKnownClientTypeEntry_ToString_m1119458503
v4:__ZN22CreateGpuProgramOutputD2Ev
W7g:_List_1_get_Item_m1378751541_gshared
gwb:__Z18Transfer_BlittableI19StreamedBinaryWriteILb0EELb1EsEvRK29SerializationCommandArgumentsR31RuntimeSerializationCommandInfo
iwh:__ZL52HMACSHA512_t923916539_CustomAttributesCacheGeneratorP21CustomAttributesCache
BBe:_ValueCollection_CopyTo_m2188334703_gshared
xjf:_SHA1CryptoServiceProvider_Finalize_m1793183797
_Ah:__ZL78Convert_t2465617642_CustomAttributesCacheGenerator_Convert_ToUInt64_m409548990P21CustomAttributesCache
f_f:_HashSet_1_System_Collections_Generic_ICollectionU3CTU3E_CopyTo_m408073502_gshared
K8d:_EncryptedPrivateKeyInfo_get_EncryptedData_m491452551
Bkb:__ZN12HandlerChain4OpenER13FileEntryData14FilePermission16FileAutoBehavior
HYg:__Z72RuntimeInvoker_Void_t1185182177_Int32_t2950945753_RaycastHit_t1056001966PFvvEPK10MethodInfoPvPS4_
AAh:__ZL79Convert_t2465617642_CustomAttributesCacheGenerator_Convert_ToUInt16_m1147931813P21CustomAttributesCache
n_i:__ZN15dense_hashtableINSt3__24pairIK10KeyWrapperINS1_IPK10MethodInfoP11Il2CppClassEEEjEES9_17ReflectionMapHashIS8_EN14dense_hash_mapIS9_jSD_NS9_14EqualsComparerINS0_8equal_toIS8_EEEENS0_9allocatorISB_EEE9SelectKeyESI_SK_E6insertERKSB_
K8f:_UTF8Encoding_GetCharCount_m2272165989
lnd:_Array_SetValue_m394135409
$0:__ZN14FileCacherReadD2Ev
Dhb:__ZN13RendererScene23UpdatePreviousFrameDataEii
Mqf:_String_Remove_m562998446
Nfc:__Z50Register_UnityEngine_CullingGroup_FinalizerFailurev
M3h:_Mesh_GetAllocArrayFromChannel_TisVector2_t2156229523_m1057679375_gshared
kmf:_SecurityPermission_IsSubsetOf_m545000671
lib:__ZN27UnloadUnusedAssetsOperationD0Ev
Jx:__ZN26AnimatorControllerPlayable6MemoryD2Ev
EPb:__ZN28LightProbeProxyVolumeContextC2E10MemLabelId
Bxj:__ZNKSt3__221__basic_string_commonILb1EE20__throw_out_of_rangeEv
mlg:_Cursor_get_lockState_m2828192107
WEg:__Z78RuntimeInvoker_Boolean_t97287965_RuntimeObject_RuntimeObject_Int32_t2950945753PFvvEPK10MethodInfoPvPS4_
qWi:_UpdatedEventHandler_Invoke_m1320302085
Mbj:__ZNK15dense_hashtableINSt3__24pairIK10KeyWrapperIP14Il2CppIUnknownEjEES5_N6il2cpp5utils11PointerHashIS3_EEN14dense_hash_mapIS5_jSB_NS5_14EqualsComparerINS0_8equal_toIS4_EEEENS0_9allocatorIS7_EEE9SelectKeyESG_SI_E12test_deletedERK24dense_hashtable_iteratorIS7_S5_SB_SK_SG_SI_E
LF:__ZN9AudioClip23VirtualRedirectTransferER18StreamedBinaryReadILb0EE
s8g:_List_1_AddEnumerable_m2724989594_gshared
lma:__ZNSt3__26vectorIPN9ShaderLab9SubShaderENS_9allocatorIS3_EEE21__push_back_slow_pathIKS3_EEvRT_
u9g:_List_1_Contains_m2043463915_gshared
QRg:__Z82RuntimeInvoker_Vector2_t2156229523_Vector2_t2156229523_RuntimeObject_RuntimeObjectPFvvEPK10MethodInfoPvPS4_
qHa:__ZN18GlslGpuProgramGLESC2ERK13dynamic_arrayIhLj1EER22CreateGpuProgramOutput
vlc:__Z70Register_UnityEngine_Playables_PlayableHandle_GetPlayableType_Injectedv
kIb:__ZNK4PPtrI23ShaderVariantCollectionEcvPS0_Ev
D7d:_ARC4Managed_TransformBlock_m1687647868
Ej:_glCopyTexSubImage2D
Z5b:__ZNK24RendererAnimationBinding13GetFloatValueERKN11UnityEngine9Animation10BoundCurveE
NT:__ZNK15DownloadHandler14HasPendingDataEv
Myg:_UnitySynchronizationContext_ExecuteTasks_m1310741010
dif:_RIPEMD160Managed_CompressFinal_m497690796
GZb:__ZN18ScreenManagerWebGL13SetShowCursorEb
Ike:_InternalEnumerator_1_MoveNext_m1773160976_gshared
DJb:__ZN13DrawImmediateC2ER9GfxDevice
avj:_frexp
g6d:_Kernel_MultiplyMod2p32pmod_m451690680
zob:__Z18Transfer_BlittableI14SafeBinaryReadLb0E5RectTIfEEvRK29SerializationCommandArgumentsR31RuntimeSerializationCommandInfo
QGd:_NumberFormatter_NumberToString_m2562899600
Nkf:_SymmetricAlgorithm_get_FeedbackSize_m3666584308
xFi:__ZL25UnresolvedVirtualCall_234P12Il2CppObject19Vector2_t2156229523PK10MethodInfo
RBc:_otv_u_C_x_Ox
Vwa:__ZN18AsyncUploadManager19AsyncResourceUploadER9GfxDeviceii9TextureID
fua:__ZN14GfxContextGLES14GetFramebufferEv
QFj:_emscripten_glGenVertexArrays__wrapper
shg:_Version_Clone_m1749041863
Eye:_ShimEnumerator_get_Key_m4155849607_gshared
Qya:__ZN6prcoreL21CreateRemapAnyBlitterE13TextureFormatS0_
g9d:_RSAManaged_ExportParameters_m1754454264
xbc:__ZN17AnimationCurveTplIfE16StripInvalidKeysEv
dqd:_Boolean_Equals_m535526264_AdjustorThunk
L_g:__Z71RuntimeInvoker_KeyValuePair_2_t71524366_Int32_t2950945753_RuntimeObjectPFvvEPK10MethodInfoPvPS4_
XOc:__ZNK2UI6Canvas17GetSortingLayerIDEv
Rpd:_Convert_ToUInt16_m3116648921
olh:__ZL40UIntPtr_t_CustomAttributesCacheGeneratorP21CustomAttributesCache
E4i:_il2cpp_method_has_attribute
s2b:__Z13RegisterClassI17GlobalGameManagerEvv
n6:__ZN8Renderer24SetupNewRendererForSceneEv
cdg:_Type_internal_from_name_m1721940673
F0h:_Array_swap_TisCustomAttributeTypedArgument_t2723150157_TisCustomAttributeTypedArgument_t2723150157_m365781156_gshared
pCf:_Environment_get_TickCount_m2088073110
lJe:_RemotingServices_GetMethodBaseFromName_m3194612939
Qtc:__Z35Transfer_Blittable_FixedBufferFieldI8JSONReadtEvRK29SerializationCommandArgumentsR31RuntimeSerializationCommandInfo
QTa:__ZN4PPtrI7TextureE8TransferI14SafeBinaryReadEEvRT_
H8b:__ZN14PlayableOutput6HandleEv
C6a:__ZNK6Sprite22GetTypeVirtualInternalEv
hZc:__ZN13RuntimeStaticINSt3__26vectorI23UnityVRDeviceDefinition13stl_allocatorIS2_L18MemLabelIdentifier90ELi16EEEELb0EE13StaticDestroyEPv
pn:FUNCTION_TABLE_iiiiiiiiiiiiii
kXc:__ZN19UnityConnectService18OnPlayerQuitStaticEPS_
ICc:_UNITY_tt_get_cmap_info
kge:_SslClientStream_RaiseServerCertificateValidation_m3477149273
lvb:__Z29Transfer_Blittable_ArrayFieldI24GenerateTypeTreeTransfer5RectTIiEEvRT_R9ArrayInfoRK23StaticTransferFieldInfo
KXa:__ZN16ReflectionProbes8ScheduleEN18ReflectionProbeJob7JobTypeEP15ReflectionProbei
fce:_ClientSessionInfo_KeepAlive_m1020179566
fPc:__ZN13dynamic_arrayIN2UI13UIInstructionELj4EE12emplace_backEv
L9g:_List_1_ToArray_m4056539300_gshared
hph:__ZL51Calendar_t1661121569_CustomAttributesCacheGeneratorP21CustomAttributesCache
kMa:__Z18IsDirectoryCreatedRKN4core12basic_stringIcNS_20StringStorageDefaultIcEEEE
Zlf:_String_FormatHelper_m3913915042
WNc:__ZN2UI13CanvasManagerD2Ev
WTd:_ConstructorInfo__cctor_m1016079270
BNi:__ZN15dense_hashtableINSt3__24pairIK10KeyWrapperIPKcEP11Il2CppClassEES5_N6il2cpp5utils11StringUtils12StringHasherIS4_EEN14dense_hash_mapIS5_S8_SE_NS5_14EqualsComparerINSB_13VmStringUtils21CaseSensitiveComparerEEENS0_9allocatorIS9_EEE9SelectKeyESJ_SL_E15set_deleted_keyERKS9_
QSg:__Z38RuntimeInvoker_ContentType_t1787303396PFvvEPK10MethodInfoPvPS4_
jld:_AttrListImpl_get_Names_m977594476
mvh:__ZL53IFormatter_t3549834567_CustomAttributesCacheGeneratorP21CustomAttributesCache
PKc:_UNITY_FT_GlyphLoader_Done
fPh:__ZL89GUIStyle_t3956901511_CustomAttributesCacheGenerator_GUIStyle_get_stretchWidth_m3556443132P21CustomAttributesCache
K2d:_Pointer_Box_m389276611
dAf:_StackTrace_get_FrameCount_m344690939
ZNd:_UnexceptionalStreamWriter_Write_m363195622
XVb:__ZNK21IntermediateRenderers16GetBoundingBoxesEv
kLc:__ZN20TextRenderingPrivate25ReadFontFileAndAddToCacheERKN4core12basic_stringIcNS0_20StringStorageDefaultIcEEEE
JDc:_tt_cmap14_char_var_index
NBb:__Z35Transfer_Blittable_FixedBufferFieldI18StreamedBinaryReadILb0EEdEvRK29SerializationCommandArgumentsR31RuntimeSerializationCommandInfo
DQe:_Selectable_OnPointerDown_m1086067264
UHc:_psh_globals_new
j8c:_Dropdown_SetupTemplate_m628218778
b9f:_Thread_GetCompressedStack_m2923422412
Vud:_SynchronizedArrayListWrapper_CopyTo_m4207791406
Wbf:_X509BasicConstraintsExtension_ToString_m1809935297
Eoa:__ZN9GfxDevice20SetMaxBufferedFramesEi
Jii:_TweenRunner_1_StartTween_m1055628540_gshared
G6h:_ReadOnlyCollection_1_System_Collections_IList_Remove_m4129318771_gshared
P1h:_GameObject_GetComponents_TisRuntimeObject_m1246177135_gshared
KK:__ZN24AudioScriptBufferManagerD2Ev
Tzj:dynCall_vdd
IOd:_MethodAccessException__ctor_m3542088436
L$b:__Z23ConvertIntegerToTypePtrIsEbPvR14SafeBinaryRead
Gtd:_ArrayListWrapper_get_Capacity_m51087796
iSe:_LayoutElement_get_minHeight_m4160507569
RVf:_EqualityComparer_1_System_Collections_IEqualityComparer_GetHashCode_m2230215241_gshared
qYh:__ZL60ContentSizeFitter_t3850442145_CustomAttributesCacheGeneratorP21CustomAttributesCache
bxd:_Hashtable_Contains_m2145146412
eFh:__ZL64UnmarshalledAttribute_t1517743549_CustomAttributesCacheGeneratorP21CustomAttributesCache
Dac:__ZN4Mesh24UpdateSubMeshVertexRangeEi
vng:_MaterialEffectPlayable_Equals_m3750885802
xYi:__ZNK15dense_hashtableINSt3__24pairIK10KeyWrapperINS1_IPK14Il2CppAssemblyP11Il2CppClassEEEjEES9_17ReflectionMapHashIS8_EN14dense_hash_mapIS9_jSD_NS9_14EqualsComparerINS0_8equal_toIS8_EEEENS0_9allocatorISB_EEE9SelectKeyESI_SK_E12test_deletedEj
osj:__ZN6il2cpp2os9FastMutex4LockEv
FDd:_Int32_FindCurrency_m3541026887
Lhf:_Interval_CompareTo_m3282557545
OGj:_pthread_cond_wait__wrapper
vTb:__ZNK14RenderSettings19GetFlatAmbientColorEv
qya:__ZN6prcoreL10inner_flipILj4EEEvPhS1_j
ndb:__ZN18StreamedBinaryReadILb0EE21TransferSTLStyleArrayI10vector_mapIPKN5Unity4TypeE7Hash128NSt3__24lessIS6_EENS8_9allocatorINS8_4pairIS6_S7_EEEEEEEvRT_17TransferMetaFlags
Py:__ZNK27StateMachineBehaviourPlayer15IsSenderEnabledEv
MXh:__ZL58Text_t1901882714_CustomAttributesCacheGenerator_m_FontDataP21CustomAttributesCache
TXd:_GenericTypeParameterBuilder_IsPrimitiveImpl_m1952010459
l6h:_ReadOnlyCollection_1_CopyTo_m3474153465_gshared
Jid:_RijndaelManagedTransform_TransformBlock_m1610137419
lkc:__Z40Register_UnityEngine_Transform_SetParentv
kxh:__ZL94WindowsIdentity_t2948242406_CustomAttributesCacheGenerator_WindowsIdentity_Dispose_m3466258450P21CustomAttributesCache
r8a:__ZN14Texture2DArray17UploadToGfxDeviceEv
FJ:__Z14FMODMemoryFreePvjPKc
OJh:__ZL100RectTransform_t3704657025_CustomAttributesCacheGenerator_RectTransform_INTERNAL_get_rect_m3130887130P21CustomAttributesCache
k1f:_Enumerator__ctor_m2029608698_gshared
Emg:_NetFxCoreExtensions_GetMethodInfo_m444570327
ARb:__Z14SetSHConstantsR13BatchRendererR17ShaderPassContextRK20SphericalHarmonicsL2b
Erd:_Char_System_IConvertible_ToDecimal_m3534906463
Uyc:_cf2_glyphpath_moveTo
t7g:_List_1_AddCollection_m1469681717_gshared
Znh:__ZL86MSCompatUnicodeTable_t1453885583_CustomAttributesCacheGenerator_U3CU3Ef__switchU24map4P21CustomAttributesCache
Twg:_StackTraceUtility_SetProjectFolder_m830524047
qv:__ZN7mecanim23TransformValueArrayLoopEiiiRKN4math4trsXES3_RNS_10ValueArrayEf
uce:_ClientSessionInfo_Finalize_m2165787049
dnc:__ZN5IMGUI14GUIWindowStateD2Ev
rbe:_ClientContext_Clear_m1774063253
Pac:__ZN4Mesh17SetIndicesComplexEPKvjj16GfxPrimitiveTypeij
Luf:_DateTime_AddSeconds_m332574389_AdjustorThunk
Ayg:_RequestAtlasCallback_Invoke_m378128467
Mqd:_Byte_System_IConvertible_ToSByte_m1869482168
VHg:__Z99RuntimeInvoker_RuntimeObject_RuntimeObject_RuntimeObject_StreamingContext_t3711869237_RuntimeObjectPFvvEPK10MethodInfoPvPS4_
JB:__ZN7mecanim5human10RetargetToEPKNS0_5HumanEPKNS0_9HumanPoseES6_RKN4math4trsXEPS4_PNS_8skeleton13SkeletonPoseTIS8_EESF_
iv:__ZN7mecanim9animation8SeekClipERKNS0_12StreamedClipERNS0_18StreamedClipMemoryEf
Ong:_GameObject_Internal_AddComponentWithType_m3797731663
km:_emscripten_glIsTexture
Rk:_emscripten_glHint
yCi:__ZL24UnresolvedVirtualCall_73P12Il2CppObjectPK10MethodInfo
fyi:_Check_SourceAndPredicate_m2332465641
iRg:__Z67RuntimeInvoker_Boolean_t97287965_TextGenerationSettings_t1351628751PFvvEPK10MethodInfoPvPS4_
DGc:_ft_var_readpackeddeltas
onf:_String_op_Inequality_m215368492
oTf:_Dictionary_2_Clear_m1938428402_gshared
pyb:__Z35Transfer_Blittable_FixedBufferFieldI18StreamedBinaryReadILb1EEtEvRK29SerializationCommandArgumentsR31RuntimeSerializationCommandInfo
kfg:_UInt32_System_IConvertible_ToInt64_m2261037378
nm:_SDL_UpperBlit
GXa:__Z35GetTextureDecodeValuesWithIntensity16TextureUsageMode17TextureColorSpace10ColorSpacef
gIf:_Array_InternalArray__ICollection_Remove_TisChar_t3634460470_m4143749387_gshared
RJb:__ZN15dense_hashtableINSt3__24pairIK9TextureIDiEES2_14GfxGenericHashIS2_EN14GfxDoubleCacheIS2_iS6_NS0_8equal_toIS2_EEN31GfxDoubleCacheConcurrencyPolicy11LocklessGetE42GfxDoubleCacheDefaultEmptyDeletedGeneratorIS2_EE9SelectKeyES9_13stl_allocatorIS4_L18MemLabelIdentifier24ELi16EEE14squash_deletedEv
H2i:__ZN15dense_hashtableINSt3__24pairIK10KeyWrapperINS1_IPK9EventInfoP11Il2CppClassEEEjEES9_17ReflectionMapHashIS8_EN14dense_hash_mapIS9_jSD_NS9_14EqualsComparerINS0_8equal_toIS8_EEEENS0_9allocatorISB_EEE9SelectKeyESI_SK_E15set_deleted_keyERKSB_
O$i:__ZN15dense_hashtableINSt3__24pairIK10KeyWrapperINS1_IPK12PropertyInfoP11Il2CppClassEEEjEES9_17ReflectionMapHashIS8_EN14dense_hash_mapIS9_jSD_NS9_14EqualsComparerINS0_8equal_toIS8_EEEENS0_9allocatorISB_EEE9SelectKeyESI_SK_ED2Ev
G5f:_Encoding_GetBytes_m3823106599
duf:_GregorianCalendar__ctor_m979779718
Jfe:_SslClientStream__ctor_m2402546929
kEb:__ZN14SafeBinaryRead20OverrideRootTypeNameEPKc
i8e:_DictionaryNodeEnumerator_get_Entry_m2309234501
GKi:__ZNK10KeyWrapperIPK22Il2CppGenericParameterE14EqualsComparerINSt3__28equal_toIS2_EEEclERKS3_SA_
d1:__ZN14FileCacherRead16UnlockCacheBlockEj
x0f:_Enumerator_Dispose_m951715887_AdjustorThunk
Tle:_InternalEnumerator_1_System_Collections_IEnumerator_Reset_m521819017_AdjustorThunk
fJd:_IsolatedStorageException__ctor_m1022659452
r9:__ZN10InstancingL21OnGraphicsCapsChangedEv
Vrb:__Z18Transfer_BlittableI17RemapPPtrTransferLb1E8Vector3fEvRK29SerializationCommandArgumentsR31RuntimeSerializationCommandInfo
Fsh:__ZL61ClassInterfaceType_t4029497327_CustomAttributesCacheGeneratorP21CustomAttributesCache
bbg:_WaitHandle_get_Handle_m3260446580
s1f:_Enumerator_VerifyState_m1745883925_AdjustorThunk
Jc:_emscripten_glUniform1f
_xd:_SortedList__ctor_m1261191695
Lbi:_ReadOnlyCollection_1_System_Collections_IList_get_IsReadOnly_m165706550_gshared
dDg:__Z75RuntimeInvoker_Int32_t2950945753_DecimalU26_t3714369516_Int64U26_t200113976PFvvEPK10MethodInfoPvPS4_
sLc:__Z20ParseImageParametersR11UTF16StringRiRN20TextRenderingPrivate16TextFormatChangeE
fYh:__ZL55CanvasScaler_t2767979955_CustomAttributesCacheGeneratorP21CustomAttributesCache
Gih:_Collection_1_RemoveItem_m2942561924_gshared
Oc:_emscripten_glUniform1i
Jtb:__Z18Transfer_BlittableI24GenerateTypeTreeTransferLb1EN4math12int3_storageEEvRK29SerializationCommandArgumentsR31RuntimeSerializationCommandInfo
RB:__ZN12_GLOBAL__N_119PreProcessAnimationER35AnimationPlayableEvaluationConstantR17AnimationPlayable
vWe:__Z14bankers_roundff
bka:__ZN9ShaderLab16SerializedTagMapaSERKS0_
hS:__ZN11UnityEngine15CloudWebService16SessionContainer20RestoreSessionHeaderERKN4core12basic_stringIcNS2_20StringStorageDefaultIcEEEES8_RNS0_13SessionHeaderE
EYc:__ZN22UnityWebRequestManager13BackendRetainEv
lcc:__ZN8Material28ApplyMaterialPropertyDrawersEv
Arj:__ZN6il2cpp2os12Cryptography23GetCryptographyProviderEv
lLi:__ZN24dense_hashtable_iteratorINSt3__24pairIK10KeyWrapperIPK22Il2CppGenericParameterEP11Il2CppClassEES6_N6il2cpp5utils11PointerHashIS4_EEN14dense_hash_mapIS6_S9_SE_NS6_14EqualsComparerINS0_8equal_toIS5_EEEENS0_9allocatorISA_EEE9SelectKeyESJ_SL_E30advance_past_empty_and_deletedEv
XC:__ZN11UnityEngine9Animation27CreateAvatarBindingConstantER9TransformPKN7mecanim9animation14AvatarConstantERNS3_6memory9AllocatorE
wPc:__ZN2UI14CanvasRenderer13SyncTransformENS0_8SyncFlagEb
sUe:_MaskableGraphic_get_onCullStateChanged_m3331479633
jHg:__Z151RuntimeInvoker_RuntimeObject_Int32_t2950945753_RuntimeObject_ObjectU5BU5DU26_t712384779_RuntimeObject_RuntimeObject_RuntimeObject_ObjectU26_t2146539884PFvvEPK10MethodInfoPvPS4_
hec:__ZN9BlobWriteC2ER13dynamic_arrayIhLj16EE24TransferInstructionFlags19BuildTargetPlatform
V4c:_CanvasUpdateRegistry__ctor_m2005397069
DHh:__ZL77Input_t1431474628_CustomAttributesCacheGenerator_Input_GetAxisRaw_m2316819917P21CustomAttributesCache
r$:__ZN14MessageHandler3GetEv
g0d:_MonoMethodInfo_GetCallingConvention_m3156036493
YSe:_LayoutGroup_SetLayoutInputForAxis_m2458344630
ad:_emscripten_glAttachShader
Doa:__ZN9GfxDevice13SetActiveTierE12GraphicsTier
Lcd:_Image__cctor_m1927508576
M9f:_SendOrPostCallback_EndInvoke_m2485163446
tka:__ZNSt3__26vectorIN4core12basic_stringIcNS1_20StringStorageDefaultIcEEEENS_9allocatorIS5_EEE6assignIPS5_EENS_9enable_ifIXaasr21__is_forward_iteratorIT_EE5valuesr16is_constructibleIS5_NS_15iterator_traitsISC_E9referenceEEE5valueEvE4typeESC_SC_
xrj:__ZN6il2cpp6icalls8mscorlib6System21CurrentSystemTimeZone15GetTimeZoneDataEiPP11Il2CppArrayS6_
Dwe:_Enumerator__ctor_m1195706188_gshared
Ekh:__ZL76String_t_CustomAttributesCacheGenerator_String_Concat_m1809518182____values0P21CustomAttributesCache
gob:__Z18Transfer_BlittableI14SafeBinaryReadLb0E11QuaternionfEvRK29SerializationCommandArgumentsR31RuntimeSerializationCommandInfo
vBb:__Z18Transfer_BlittableI18StreamedBinaryReadILb0EELb1E12PropertyNameEvRK29SerializationCommandArgumentsR31RuntimeSerializationCommandInfo
IW:_tlsf_walk_heap
_Gg:__Z49RuntimeInvoker_Void_t1185182177_OpCode_t123070264PFvvEPK10MethodInfoPvPS4_
I6i:__ZNK15dense_hashtableINSt3__24pairIK10KeyWrapperIP11Il2CppClassES4_EES5_N6il2cpp8metadata16SZArrayClassHashEN14dense_hash_mapIS5_S4_SA_NS5_14EqualsComparerINS9_19SZArrayClassCompareEEENS0_9allocatorIS7_EEE9SelectKeyESE_SG_E10test_emptyERK24dense_hashtable_iteratorIS7_S5_SA_SI_SE_SG_E
cQg:__Z69RuntimeInvoker_Void_t1185182177_Int32_t2950945753_HitInfo_t3229609740PFvvEPK10MethodInfoPvPS4_
wNh:__ZL59AnimatorClipInfo_t3156717155_CustomAttributesCacheGeneratorP21CustomAttributesCache
eCd:_Convert_ToUInt32_m3592050311
jb:invoke_vif
E1h:_Component_GetComponents_TisRuntimeObject_m2416546752_gshared
kb:invoke_vid
Mpe:_InternalEnumerator_1__ctor_m2202456613_AdjustorThunk
Txj:__ZNSt3__212basic_stringIcNS_11char_traitsIcEENS_9allocatorIcEEE6insertEjPKc
lb:invoke_vii
YMb:__ZNK12ImageFilters8DoRenderER17ShaderPassContextP13RenderTextureS3_RKNSt3__26vectorI11ImageFilterNS4_9allocatorIS6_EEEE
ZKa:__ZN12TLSAllocatorI14StackAllocatorE16ThreadInitializeEP13BaseAllocator
yIg:__Z82RuntimeInvoker_Boolean_t97287965_SByte_t1669577662_RuntimeObject_SByte_t1669577662PFvvEPK10MethodInfoPvPS4_
cpa:__ZN9GfxDevice32UpdateStereoViewProjectionMatrixE21MonoOrStereoscopicEye
XQc:__Z41CanvasRenderer_CUSTOM_DisableRectClippingP12Il2CppObject
$Qf:_Dictionary_2__ctor_m1324730059_gshared
TPd:_MonoType_GetConstructorImpl_m441167626
r7c:_DefaultControls_CreateRawImage_m4219873755
ddh:_Collection_1_IsFixedSize_m3709118201_gshared
gPa:__ZN25SingleBlockMemoryFileDataD0Ev
eLa:__ZNSt3__26vectorI14ConstantStringNS_9allocatorIS1_EEE6assignINS_11__wrap_iterIPS1_EEEENS_9enable_ifIXaasr21__is_forward_iteratorIT_EE5valuesr16is_constructibleIS1_NS_15iterator_traitsISA_E9referenceEEE5valueEvE4typeESA_SA_
Pbi:_ReadOnlyCollection_1_CopyTo_m586367390_gshared
cS:__ZN11UnityEngine15CloudWebService16SessionContainer21ConvertFromFolderTimeERKN4core12basic_stringIcNS2_20StringStorageDefaultIcEEEEPjPt
afd:_CodeAccessPermission_Equals_m1555575992
Tpb:__ZNSt3__26vectorI8GUIStyle13stl_allocatorIS1_L18MemLabelIdentifier1ELi16EEE7reserveEj
O6h:_ReadOnlyCollection_1_Contains_m3869904379_gshared
y8i:__ZN6il2cpp6icalls8mscorlib6System9Threading6Thread27GetSerializedCurrentCultureEP12Il2CppThread
Rce:_Context_set_ReadSequenceNumber_m2154909392
Eid:_RijndaelTransform_SubByte_m3037693507
c1b:__Z31CalculateHierarchyTransformType23TransformAccessReadOnly
O2b:__Z13RegisterClassI11TimeManagerEvv
wJ:__ZN4FMOD8ChannelI11setPositionEjj
sog:_Input_INTERNAL_CALL_GetTouch_m3481893561
tnj:_GC_set_fl_marks
Kfb:__ZNSt3__26vectorIN30RuntimeInitializeOnLoadManager15ClassMethodInfoE13stl_allocatorIS2_L18MemLabelIdentifier13ELi16EEE7reserveEj
fpa:__ZN9GfxDevice17SetStereoViewportE15StereoscopicEyeRK5RectTIiE
Jfa:__ZN17BaseObjectManager13StaticDestroyEPv
YKa:__ZNK12TLSAllocatorI14StackAllocatorE24GetBookKeepingMemorySizeEv
sIi:_CanvasRenderer_INTERNAL_CALL_GetColor_m597074473
Iue:_Comparer_1__cctor_m3891417387_gshared
v8f:_UTF7Decoder_GetChars_m3413809261
nIh:__ZL81Shader_t4151988712_CustomAttributesCacheGenerator_Shader_PropertyToID_m1030499873P21CustomAttributesCache
Mlh:__ZL70RuntimeArray_CustomAttributesCacheGenerator_Array_get_Rank_m3448755881P21CustomAttributesCache
OWd:_EnumBuilder_GetEvent_m4074915332
yh:_sysconf
_xg:_Vector3_get_forward_m3100859705
VAf:_Double_Equals_m2309369974_AdjustorThunk
oI:__ZN4FMOD6Reverb13setPropertiesEPK22FMOD_REVERB_PROPERTIES
N5i:__ZN15dense_hashtableINSt3__24pairIK10KeyWrapperIP11Il2CppClassES4_EES5_N6il2cpp8metadata16SZArrayClassHashEN14dense_hash_mapIS5_S4_SA_NS5_14EqualsComparerINS9_19SZArrayClassCompareEEENS0_9allocatorIS7_EEE9SelectKeyESE_SG_E5clearEv
JOb:__ZN9DepthPass13PrepareSubsetEjRK10RenderNodeifRK17ShaderReplaceData
Ypf:_String_IndexOf_m3406607758
gja:__ZN9ShaderLab20SerializedSubProgram16TextureParameter8TransferI14SafeBinaryReadEEvRT_
T6d:_ASN1__ctor_m3517592395
Wac:__Z35SetMeshComponentFromArrayFromScriptR4Mesh30InternalScriptingShaderChannel34InternalScriptingVertexChannelTypei17ScriptingArrayPtri
xla:__ZN4PPtrI6ShaderE8TransferI19StreamedBinaryWriteILb0EEEEvRT_
INf:_Array_InternalArray__ICollection_Add_TisCustomAttributeNamedArgument_t287865710_m4157175270_gshared
fq:__ZN4core20StringStorageDefaultIcE6assignEPKcj
pgg:_UInt64_System_IConvertible_ToUInt64_m2135047981_AdjustorThunk
l6d:_BigInteger_ModPow_m3776562770
Tej:__ZN15dense_hashtableINSt3__24pairIK10KeyWrapperIP12Il2CppObjectEN6il2cpp2gc9CachedCCWEEES5_NS7_5utils11PointerHashIS3_EEN14dense_hash_mapIS5_S9_SD_NS5_14EqualsComparerINS0_8equal_toIS4_EEEENS0_9allocatorISA_EEE9SelectKeyESI_SK_E3endEv
cId:_BinaryReader_ReadInt64_m939370142
Qee:_RecordProtocol_ProcessChangeCipherSpec_m15839975
gtd:_ArrayList_IndexOf_m305368842
l9g:_List_1_Add_m2996644200_gshared
KXb:__ZN6Camera6SetFarEf
IMe:_FormatterConverter_ToBoolean_m1680758923
Gza:__ZN6prcoreL12RemapGenericI17TexFormatABGR888817TexFormatARGB8888EEvPKNS_9InnerInfoE
aQa:__ZN11GameManager17MainThreadCleanupEv
Ryd:_Stack_get_Count_m2258661097
I4h:_ReadOnlyCollection_1__ctor_m1345363288_gshared
DSc:__Z50Register_UnityEngine_UISystemProfilerApi_EndSamplev
nCe:_Dictionary_2_System_Collections_ICollection_get_SyncRoot_m2020472285_gshared
Fre:_InternalEnumerator_1_System_Collections_IEnumerator_Reset_m1775752715_AdjustorThunk
Hb:invoke_vffff
kFh:__ZL91Application_t1852185770_CustomAttributesCacheGenerator_Application_get_isPlaying_m100394690P21CustomAttributesCache
pFe:_ConfigHandler_OnProcessingInstruction_m4212209262
X4g:_List_1_Reverse_m3290386475_gshared
HNe:_SerializationCallbacks_GetSerializationCallbacks_m2939476649
Jwd:_Hashtable__cctor_m4112166779
mFc:_UNITY_tt_slot_init
SKb:__ZZ23InitPlayerLoopCallbacksvEN41PostLateUpdateUpdateResolutionRegistrator7ForwardEv
gDb:__Z25scripting_array_class_get17ScriptingClassPtrj
Src:__ZL22Transfer_ManagedObjectI9JSONWriteLb1EEvRK29SerializationCommandArgumentsR31RuntimeSerializationCommandInfo
tF:__ZNK10SampleClip22GetTypeVirtualInternalEv
oqa:__ZN9GfxDevice20DestroyRenderSurfaceER12ObjectHandleI17RenderSurface_TagP17RenderSurfaceBaseE
Oyd:_Stack__ctor_m2602729586
zBg:__Z77RuntimeInvoker_Byte_t1134296376_RuntimeObject_Int32_t2950945753_RuntimeObjectPFvvEPK10MethodInfoPvPS4_
Fzh:__ZL81Convert_t2465617642_CustomAttributesCacheGenerator_Convert_ToDateTime_m1031474510P21CustomAttributesCache
vJa:__ZN9GfxDevice22UpdateComputeResourcesEjPK9TextureIDPK16TextureDimensionPKijPKjjPK15ComputeBufferIDS7_PK20ComputeBufferCounterjSC_S2_S5_S9_SF_
U1:__ZN12_GLOBAL__N_15qAsinEff
Nlg:_Display__ctor_m3105658851
Axd:_HashValues_get_IsSynchronized_m3461082747
ile:_InternalEnumerator_1_System_Collections_IEnumerator_get_Current_m2629988057_AdjustorThunk
_Ka:__ZN12TLSAllocatorI14StackAllocatorE13ThreadCleanupEv
VF:__Z18GetAudioManagerPtrv
Nle:_InternalEnumerator_1_Dispose_m2043273260_AdjustorThunk
alj:__ZThn4_N6il2cpp2vm13ComObjectBase16MarshalInterfaceEP13Il2CppIStreamRK10Il2CppGuidPvjS7_j
AAd:_Convert_ToDouble_m996590115
UFb:__Z27FindActiveTransformWithPathPKc
S8h:_ReadOnlyCollection_1_System_Collections_IList_Remove_m4169110229_gshared
Qeg:_UInt16_ToString_m3020002356
uTe:_LayoutRebuilder_LayoutComplete_m68578143
NVi:_RequiredByNativeCodeAttribute__ctor_m119855101
$Ra:__ZN12BaseRendererD0Ev
C$b:__Z29StdTemplateConversionFunctionIbyEbPvR14SafeBinaryRead
zid:_RijndaelManaged_GenerateKey_m1736287430
pwi:_GUIStyle_get_fixedWidth_m2576616348
rSh:__ZL90PointerEventData_t3807901092_CustomAttributesCacheGenerator_U3ClastPressU3Ek__BackingFieldP21CustomAttributesCache
oyd:_SortedList_Find_m3363512987
nY:__ZNK6Camera7GetNearEv
EXd:_GenericTypeParameterBuilder_GetConstructorImpl_m863833310
BCa:__ZN7ApiGLES11UnmapBufferEjN2gl12BufferTargetE
olj:__ZN6il2cpp5utilsL24Utf32CharToSurrogatePairEjRA2_Ds
k3a:__Z25GetNextAllowedTextureSizeib13TextureFormat
MFb:__ZN20LocalFileSystemWebGL4CopyER13FileEntryDataS1_
HU:__ZN19CloudServiceHandler6RetainEv
otj:__ZN6il2cpp2os9Semaphore4WaitEb
y5h:_ReadOnlyCollection_1_System_Collections_IList_IndexOf_m198887188_gshared
Onc:__Z36Event_CUSTOM_Internal_SetNativeEventPv
N7f:_UTF32Encoding_GetBytes_m3180303867
C3:__ZN12BaseRenderer20FlattenToRenderQueueER15RenderNodeQueueRK20DeprecatedSourceData
v9g:_List_1_CopyTo_m4034402519_gshared
e7h:_ReadOnlyCollection_1_System_Collections_IList_Clear_m2007013334_gshared
Aib:__Z34scripting_liveness_calculation_endPv
Ngj:__ZN6il2cpp2os6ThreadC2Ev
Ahe:_U3CGetEnumeratorU3Ec__Iterator0_System_Collections_Generic_IEnumeratorU3CTU3E_get_Current_m1566629109_gshared
wwf:_DateTimeOffset_get_UtcDateTime_m1021718282_AdjustorThunk
Cfa:__ZN16memory_pool_implILi64EE15AutoPoolWrapper12UninitializeEPv
Fu:__ZN21AnimationClipPlayable22ProcessAnimationNoClipEPK35AnimationPlayableEvaluationConstantPK32AnimationPlayableEvaluationInputP33AnimationPlayableEvaluationOutput
G7e:_HybridDictionary_get_Count_m1166314536
Mki:_TlsStream_Write_m1412844442
stc:__Z18Transfer_BlittableI8JSONReadLb0E8Vector3fEvRK29SerializationCommandArgumentsR31RuntimeSerializationCommandInfo
Q6i:__ZN6il2cpp2vm6Thread6DetachEP12Il2CppThread
nli:_GeneralNames_get_DNSNames_m3788548987
u3f:_List_1_AddCollection_m2026039026_gshared
fff:_X509ChainStatus_get_Status_m2572005749_AdjustorThunk
kCi:__ZL24UnresolvedVirtualCall_59P12Il2CppObjectS0_aPK10MethodInfo
wwc:__GLOBAL__sub_I_runtime_dynamics_2_cpp
bGi:_Hacker_OnUserInput_m1095014035
Mcd:_SerializationEntry_t648286436_marshal_pinvoke
bD:__ZN7mecanim8skeleton30SkeletonBuildReverseIndexArrayEPiPKiPKNS0_8SkeletonES6_
Tlc:__Z19GetGUIBlendMaterialv
yOd:_Math_Round_m3018379666
vJg:__Z41RuntimeInvoker_Boolean_t97287965_IntPtr_tPFvvEPK10MethodInfoPvPS4_
Chj:__ZN6il2cpp2os10ThreadImpl5SleepEjb
A5h:_ReadOnlyCollection_1_System_Collections_IList_Remove_m1965826685_gshared
yzf:_Delegate_CreateDelegate_m1051651521
nJf:_PlayableHandle_IsPlayableOfType_TisRuntimeObject_m503495943_AdjustorThunk
qFj:_glBindSampler__wrapper
UPa:__ZNSt3__26vectorIN20ArchiveStorageHeader12StorageBlockE13stl_allocatorIS2_L18MemLabelIdentifier55ELi16EEE8__appendEj
Hf:_emscripten_set_mouseup_callback
Cpg:_Mathf_Clamp_m3350697880
kJa:__ZN9GfxDevice27SetRandomWriteTargetTextureEi9TextureID
eSf:_Dictionary_2_System_Collections_Generic_ICollectionU3CSystem_Collections_Generic_KeyValuePairU3CTKeyU2CTValueU3EU3E_Contains_m3033743418_gshared
LIg:__Z165RuntimeInvoker_Void_t1185182177_UInt32U26_t3735378166_Int32_t2950945753_UInt32U26_t3735378166_Int32_t2950945753_Int32_t2950945753_Int32_t2950945753_Int32_t2950945753PFvvEPK10MethodInfoPvPS4_
k3f:_List_1_System_Collections_IList_Remove_m3140917266_gshared
z5f:_Encoding_get_DecoderFallback_m1525880676
Huh:__ZL59ITrackingHandler_t1244553475_CustomAttributesCacheGeneratorP21CustomAttributesCache
uqi:_CompositeExpression__ctor_m2434860303
Dgd:_DSASignatureDeformatter__ctor_m2759753186
Yef:_X509ChainElementCollection_System_Collections_IEnumerable_GetEnumerator_m3829089536
whh:_Collection_1_System_Collections_IEnumerable_GetEnumerator_m801406918_gshared
KZb:__ZNK18ScreenManagerWebGL8GetWidthEv
lSi:__ZN6il2cpp2vm13MetadataCache33GetFieldDefaultValueDataFromIndexEi
qF:__ZN10SampleClipD2Ev
Dfi:_InvokableCall_1_remove_Delegate_m790146436_gshared
yei:_Predicate_1_Invoke_m2389850270_gshared
Bhj:__ZN6il2cpp2os10ThreadImpl13SetWaitObjectEPNS0_5posix15PosixWaitObjectE
Vhb:__Z13GetGISettingsv
qeh:_Collection_1_RemoveAt_m1813368096_gshared
rU:__ZN11UnityEngine15CloudWebService20WebRequestRestClientC2Ev
FAc:_cff_cmap_unicode_init
tHf:_Array_InternalArray__ICollection_Contains_TisRuntimeObject_m4067783231_gshared
g1:__ZN14FileCacherRead13GetFileLengthEv
Dgi:_UnityAction_1_EndInvoke_m542551745_gshared
Gbh:_Collection_1_IsValidItem_m3080586124_gshared
k8c:_DropdownItem_set_text_m3702712387
v5c:_ClipperRegistry_Register_m2407166513
twj:_readlink
i0i:__ZN15dense_hashtableINSt3__24pairIK10KeyWrapperINS1_IPK9EventInfoP11Il2CppClassEEEjEES9_17ReflectionMapHashIS8_EN14dense_hash_mapIS9_jSD_NS9_14EqualsComparerINS0_8equal_toIS8_EEEENS0_9allocatorISB_EEE9SelectKeyESI_SK_E12resize_deltaEjj
b0d:_MonoCMethod_Invoke_m2700167622
Fxd:_KeyMarker__cctor_m2590194914
zwe:_Enumerator_Reset_m627751027_AdjustorThunk
Vbb:__ZNK6Sprite9GetBoundsE8Vector2fbb
qTa:__ZNK19RenderEventsContext21CleanupCommandBuffersEv
DHi:_TextGenerator_PopulateWithErrors_m1222498386
h4f:_List_1_System_Collections_Generic_ICollectionU3CTU3E_get_IsReadOnly_m507350231_gshared
iua:__ZN11ContextGLES6CreateEi
hIi:_WillRenderCanvases_BeginInvoke_m1804779886
nQg:__Z52RuntimeInvoker_Boolean_t97287965_Vector3_t3722313464PFvvEPK10MethodInfoPvPS4_
k2g:_List_1_set_Capacity_m3382070520_gshared
tUg:__Z68RuntimeInvoker_Boolean_t97287965_RuntimeObject_ObjectU26_t2146539884PFvvEPK10MethodInfoPvPS4_
URe:_U3CMouseDragOutsideRectU3Ec__Iterator1_Dispose_m267465418
wyf:_Decimal_CompareTo_m3502307243_AdjustorThunk
jCb:__Z19TransferField_ArrayI18StreamedBinaryReadILb0EE27Converter_SimpleNativeClassI17AnimationCurveTplIfEEEvRK23StaticTransferFieldInfoR31RuntimeSerializationCommandInfoRT0_
BKa:__ZN14StackAllocator16FrameMaintenanceEb
MMa:__Z18ReadStringFromFilePN4core17string_with_labelILi1EEERKNS_12basic_stringIcNS_20StringStorageDefaultIcEEEE
uWe:_Scrollbar_get_value_m760470106
sY:__ZNK10GameObject20QueryComponentByTypeEPKN5Unity4TypeE
Lxf:_Decimal_System_IConvertible_ToInt32_m1488426794_AdjustorThunk
_Od:_MonoCustomAttrs_IsUserCattrProvider_m2878058089
KVh:__ZL71InputField_t3762917431_CustomAttributesCacheGenerator_m_HideMobileInputP21CustomAttributesCache
w2a:__ZN11TextureData5ResetEv
ugc:__Z53Register_UnityEngine_GameObject_get_activeInHierarchyv
jlf:_ToBase64Transform_InternalTransformFinalBlock_m360524956
qld:_ActivationContext_Dispose_m2038725770
Lrb:__Z35Transfer_Blittable_FixedBufferFieldI17RemapPPtrTransferiEvRK29SerializationCommandArgumentsR31RuntimeSerializationCommandInfo
J_:__ZL30InitializeCoreScriptingClassesv
C9h:_ReadOnlyCollection_1_Contains_m1699971074_gshared
npe:_InternalEnumerator_1_Dispose_m630370856_AdjustorThunk
Eg:_glBlitFramebuffer
LNa:__ZN17ArchiveFileSystem5TouchER13FileEntryData
p1f:_Enumerator_System_Collections_IEnumerator_get_Current_m3594024719_gshared
Grb:__Z35Transfer_Blittable_SingleValueFieldI14SafeBinaryReadhEvRT_R17GeneralMonoObjectRK23StaticTransferFieldInfo
H9b:__ZN12CachedWriter15CompleteWritingEv
B1a:__ZNK12CubemapArray22GetTypeVirtualInternalEv
Mn:FUNCTION_TABLE_vif
Nn:FUNCTION_TABLE_vid
On:FUNCTION_TABLE_vii
Lib:__Z40scripting_liveness_calculation_from_root18ScriptingObjectPtrPv
Pcd:_SerializationEntry__ctor_m1411687997_AdjustorThunk
Vth:__ZL65IContributeDynamicSink_t2255997386_CustomAttributesCacheGeneratorP21CustomAttributesCache
y_a:__ZN7Texture23VirtualRedirectTransferER24GenerateTypeTreeTransfer
iKc:_UNITY_FT_Set_Transform
Q5b:__ZNK32RendererMaterialAnimationBinding12SetPPtrValueERKN11UnityEngine9Animation10BoundCurveEi
Wdj:__ZN6il2cpp8metadata15GenericMetadata20RegisterGenericClassEP18Il2CppGenericClass
VEj:_glDeleteFramebuffers__wrapper
gFg:__Z220RuntimeInvoker_Boolean_t97287965_RuntimeObject_Int32U26_t1369213839_Int32_t2950945753_Int32_t2950945753_Int32_t2950945753_RuntimeObject_SByte_t1669577662_Int32_t2950945753_ContractionU26_t961830454_ContextU26_t3937453398PFvvEPK10MethodInfoPvPS4_
$ze:_Enumerator__ctor_m920120158_AdjustorThunk
Rrg:_Playable_Equals_m328753404_AdjustorThunk
Fph:__ZL78TextInfo_t3810425522_CustomAttributesCacheGenerator_TextInfo_Clone_m3838580862P21CustomAttributesCache
Nyc:_cff_blend_build_vector
_af:_WebHeaderCollection_ToString_m1263025316
Woe:_InternalEnumerator_1_MoveNext_m1015797184_gshared
o6b:__ZZN12MeshRenderer15InitializeClassEvEN29FunctorImpl_134kDidDeleteMesh4CallEPviR11MessageData
DHg:__Z91RuntimeInvoker_Void_t1185182177_RuntimeObject_RuntimeObject_RuntimeObject_Int32_t2950945753PFvvEPK10MethodInfoPvPS4_
j2d:_GetterAdapter_Invoke_m3767885970
m3g:_List_1__ctor_m747758800_gshared
$ni:_X509Extension_get_Oid_m4107042796
IYd:_MethodBuilder_get_ReflectedType_m3038768129
vrf:_String_CreateString_m2818852475
d0f:_Enumerator_get_Current_m335492761_AdjustorThunk
H4a:__ZN28EnlightenRendererInformation8TransferI14SafeBinaryReadEEvRT_
QIi:_CanvasRenderer_get_hasMoved_m2236392341
jrg:_MessageEvent__ctor_m1231650089
vha:__ZNK15Lz4Decompressor16DecompressMemoryEPKvPjPvS2_
HOd:_MemberAccessException__ctor_m3713703094
USa:__Z11IsCoroutine18ScriptingMethodPtrRK22CommonScriptingClasses
zqh:__ZL117GenericTypeParameterBuilder_t1988827940_CustomAttributesCacheGenerator_GenericTypeParameterBuilder_Equals_m3260957994P21CustomAttributesCache
Q1b:__ZN4core8hash_mapINS_12basic_stringIcNS_20StringStorageDefaultIcEEEE10vector_setI4PPtrI11SpriteAtlasENSt3__24lessIS8_EE13stl_allocatorIS8_L18MemLabelIdentifier81ELi16EEENS_4hashIS4_EENS9_8equal_toIS4_EEEixERKS4_
uh:_glGetAttribLocation
_Bi:__ZL24UnresolvedVirtualCall_47P12Il2CppObject20DateTime_t3738529785PK10MethodInfo
y0a:__Z35UnityPropertySheet_MakeSortedColorsRKNSt3__23mapIN9ShaderLab16FastPropertyNameE10ColorRGBAfNS_4lessIS2_EENS_9allocatorINS_4pairIKS2_S3_EEEEEER10vector_mapIS2_S3_S5_NS6_INS7_IS2_S3_EEEEE
_Ch:__ZL72PKCS12_t4101533061_CustomAttributesCacheGenerator_U3CU3Ef__switchU24map8P21CustomAttributesCache
_Cc:_UNITY_tt_face_load_os2
BFh:__ZL90Coroutine_t3829159415_CustomAttributesCacheGenerator_Coroutine_ReleaseCoroutine_m809189848P21CustomAttributesCache
_qb:__Z29Transfer_Blittable_ArrayFieldI14SafeBinaryRead8Vector4fEvRT_R9ArrayInfoRK23StaticTransferFieldInfo
JTd:_Default_check_arguments_m3882727959
Pwd:_Hashtable_get_IsSynchronized_m1426775249
P8f:_UTF8Encoding_GetMaxCharCount_m3762459613
UUd:_ModuleBuilder_RegisterToken_m4166846047
JKb:__ZZ23InitPlayerLoopCallbacksvEN51PostLateUpdateUpdateCustomRenderTexturesRegistrator7ForwardEv
DVe:_RawImage_OnPopulateMesh_m1115858855
HGg:__Z74RuntimeInvoker_MonoFileType_t221779374_IntPtr_t_MonoIOErrorU26_t1548853198PFvvEPK10MethodInfoPvPS4_
zSi:__ZN6il2cpp2vm13MetadataCache25GetStringLiteralFromIndexEi
Sld:_Hashtable_ToPrime_m33531354
bv:__ZN7mecanim9animation12EvaluateClipEPKNS0_4ClipEPKNS0_9ClipInputEPNS0_10ClipMemoryEPNS0_10ClipOutputE
bih:_Collection_1_IsSynchronized_m1117613618_gshared
Yqb:__ZN15SerializeTraitsI13dynamic_arrayI5RectTIfELj4EEE19ResizeSTLStyleArrayERS3_i
Vdg:_TypeInitializationException__ctor_m3546444694
ycc:__ZNK9Transform16GetLocalRotationEv
S4a:__ZN4PPtrI11LightProbesE8TransferI18StreamedBinaryReadILb0EEEEvRT_
VT:__ZN11UnityEngine15CloudWebService23WebRequestUploadHandler17ConsumeUploadDataEj
tTi:__ZNSt3__214__split_bufferI6pollfdRNS_9allocatorIS1_EEEC2EjjS4_
_Ee:_CrossAppDomainData_get_DomainID_m3516796532
hTg:__Z68RuntimeInvoker_Void_t1185182177_Single_t1397266774_SByte_t1669577662PFvvEPK10MethodInfoPvPS4_
YKd:_MemoryStream_set_Position_m3169779190
CWb:__ZN13RenderManager29SetCurrentCameraAndStackStateEP6CameraP25CameraStackRenderingState
g0c:_ExecuteEvents_get_scrollHandler_m2659345019
PRa:__ZNSt3__26__treeINS_12__value_typeIjN4core12basic_stringIcNS2_20StringStorageDefaultIcEEEEEENS_19__map_value_compareIjS7_NS_4lessIjEELb1EEE13stl_allocatorIS7_L18MemLabelIdentifier7ELi16EEE7destroyEPNS_11__tree_nodeIS7_PvEE
B6i:__ZN15dense_hashtableINSt3__24pairIK10KeyWrapperINS1_IP11Il2CppClassjEEES4_EES6_N6il2cpp8metadata14ArrayClassHashEN14dense_hash_mapIS6_S4_SB_NS6_14EqualsComparerINSA_17ArrayClassCompareEEENS0_9allocatorIS8_EEE9SelectKeyESF_SH_E12resize_deltaEjj
Th:_JS_WebRequest_Release
DS:__ZN11UnityEngine15CloudWebService14DataErrorEventD0Ev
qaj:__ZN6il2cpp6icalls8mscorlib6System4Type20internal_from_handleEi
ZEh:__ZL72RequiredByNativeCodeAttribute_t4130846357_CustomAttributesCacheGeneratorP21CustomAttributesCache
oGe:_Context__ctor_m254302079
Sdj:__ZN6il2cpp8metadata15GenericMetadata7InflateEPK19Il2CppGenericMethodPK20Il2CppGenericContext
l6e:_KeyGeneratedEventHandler_EndInvoke_m3057317531
Y3a:__ZN19ShaderPropertySheet16SetArrayPropertyEN9ShaderLab16FastPropertyNameENS_12PropertyTypeEPKvj
cXe:_Selectable_FindSelectable_m2348614027
S6c:_FloatTween_get_duration_m1227071020
zej:__ZN15dense_hashtableINSt3__24pairIK10KeyWrapperIP12Il2CppObjectEN6il2cpp2gc9CachedCCWEEES5_NS7_5utils11PointerHashIS3_EEN14dense_hash_mapIS5_S9_SD_NS5_14EqualsComparerINS0_8equal_toIS4_EEEENS0_9allocatorISA_EEE9SelectKeyESI_SK_E16reset_thresholdsEv
T8c:_DropdownItem_OnPointerEnter_m1492957598
KNc:__ZN2UI11CanvasGroup23VirtualRedirectTransferER19StreamedBinaryWriteILb0EE
s2d:_ParameterInfo_get_ParameterType_m4197803362
dGg:__Z91RuntimeInvoker_Void_t1185182177_Int32U26_t1369213839_Int32U26_t1369213839_Int32_t2950945753PFvvEPK10MethodInfoPvPS4_
lnc:__ZN8GUIState8EndOnGUIEv
tFc:_UNITY_TT_Get_VMetrics
UBg:__Z49RuntimeInvoker_Char_t3634460470_Int16_t2552820387PFvvEPK10MethodInfoPvPS4_
PPg:__Z69RuntimeInvoker_Color_t2555686324_Color_t2555686324_Single_t1397266774PFvvEPK10MethodInfoPvPS4_
QWf:_EqualityComparer_1__ctor_m2283513024_gshared
wud:_SimpleEnumerator__cctor_m2844299657
mOd:_LocalDataStoreSlot__ctor_m4104083971
c$h:_Array_qsort_TisVector3_t3722313464_m4117329442_gshared
j9h:_ReadOnlyCollection_1_System_Collections_Generic_IListU3CTU3E_RemoveAt_m3849058645_gshared
fAi:_AudioSource_ReadExtensionName_m725112169
nni:_X509CertificateEnumerator_System_Collections_IEnumerator_Reset_m2039524926
ULg:__Z128RuntimeInvoker_Void_t1185182177_RuntimeObject_BooleanU26_t4125257963_SByte_t1669577662_Int32U26_t1369213839_Int32U26_t1369213839PFvvEPK10MethodInfoPvPS4_
$wa:__ZN7Texture21GetMasterTextureLimitEv
Vze:_Enumerator_Dispose_m3503748991_AdjustorThunk
rYb:__Z12CanAddScriptR10GameObject17ScriptingClassPtrPS1_S2_
i3i:__ZN6il2cpp2vm10Reflection12HasAttributeEP12Il2CppObjectP11Il2CppClass
URg:__Z103RuntimeInvoker_Boolean_t97287965_RuntimeObject_Vector2_t2156229523_RuntimeObject_Vector3U26_t3464235976PFvvEPK10MethodInfoPvPS4_
cci:_Comparison_1_BeginInvoke_m3263247262_gshared
N9:__ZN9ShaderLabL25StaticInitializeShaderLabEPv
U:Math_max
AYh:__ZL64HorizontalLayoutGroup_t2586782146_CustomAttributesCacheGeneratorP21CustomAttributesCache
RCi:__ZL24UnresolvedVirtualCall_92P12Il2CppObjectPK10MethodInfo
K3i:_il2cpp_class_get_methods
twg:_HitInfo_SendMessage_m1343099429_AdjustorThunk
Mtb:__Z18Transfer_BlittableI24GenerateTypeTreeTransferLb0EN4math12int2_storageEEvRK29SerializationCommandArgumentsR31RuntimeSerializationCommandInfo
cAf:_StackTrace_get_trace_m1194606084
Xof:_Single_CompareTo_m2785801815_AdjustorThunk
Vgj:__ZN6il2cpp2os6Thread16GetCurrentThreadEv
uQf:_Array_InternalArray__Insert_TisUILineInfo_t4195266810_m3191124053_gshared
N7b:__ZN10GameObject13ComponentPair15SetComponentPtrEPN5Unity9ComponentE
oDj:_glBlitFramebuffer__wrapper
B2b:__Z13RegisterClassI10MeshFilterEvv
eUh:__ZL75U3COnFinishSubmitU3Ec__Iterator0_t3413438900_CustomAttributesCacheGeneratorP21CustomAttributesCache
VRa:__ZN10TagManager8TransferI19StreamedBinaryWriteILb0EEEEvRT_
eib:__ZN11PreloadData23VirtualRedirectTransferER18StreamedBinaryReadILb0EE
H7a:__ZN13sorted_vectorI4PPtrI11SpriteAtlasENSt3__24lessIS2_EE13stl_allocatorIS2_L18MemLabelIdentifier1ELi16EEE21sort_clear_duplicatesEv
Bsg:_PropertyNameUtils_PropertyNameFromString_Injected_m1259736140
TUh:__ZL60FontData_t746620069_CustomAttributesCacheGenerator_m_MinSizeP21CustomAttributesCache
Crd:_Char_System_IConvertible_ToDateTime_m3564102661
xye:_ShimEnumerator_get_Key_m317201915_gshared
A6a:__ZN6Sprite17MainThreadCleanupEv
wDj:_glBlendFuncSeparate__wrapper
bL:__ZN10AudioMixer14UpdateMuteSoloEv
b0:__Z17GetMonoManagerPtrv
gRa:__ZN9Transform35SetLocalPositionWithoutNotificationERKN4math7_float3Ey
jPh:__ZL87GUIUtility_t1868551600_CustomAttributesCacheGenerator_U3CguiIsExitingU3Ek__BackingFieldP21CustomAttributesCache
BLg:__Z69RuntimeInvoker_UInt64_t4134040092_Int32_t2950945753_SByte_t1669577662PFvvEPK10MethodInfoPvPS4_
Ui:_JS_Eval_ClearTimeout
dWe:_Raycast2DCallback_Invoke_m1500574149
LBa:__ZN7ApiGLES16SetPatchVerticesEi
ysi:_CharacterClass_Compile_m3296067317
Mij:__ZN6il2cpp2gc16GarbageCollector16InvokeFinalizersEv
Lqd:_Byte_System_IConvertible_ToInt64_m285584218_AdjustorThunk
Wtg:_Rect_get_size_m477575021_AdjustorThunk
aLi:__ZN6il2cpp2vm5Class20FromGenericParameterEPK22Il2CppGenericParameter
eV:__ZN19CloudServiceHandler11FlushEventsEv
$ea:__ZN15GlobalCallbacksC2Ev
wJe:_MethodCall_System_Runtime_Remoting_Messaging_IInternalMessage_set_Uri_m1919576807
KNf:_Array_InternalArray__ICollection_Add_TisLabelData_t360167391_m1648183135_gshared
Dve:_Comparer_1_System_Collections_IComparer_Compare_m2016223770_gshared
HZh:__ZL57BaseMeshEffect_t2440176439_CustomAttributesCacheGeneratorP21CustomAttributesCache
SKg:__Z74RuntimeInvoker_DateTime_t3738529785_DateTime_t3738529785_Int32_t2950945753PFvvEPK10MethodInfoPvPS4_
xLc:_UNITY_FT_New_Memory_Face
Ieh:_Collection_1_System_Collections_IList_IndexOf_m3271188411_gshared
BJc:__ZN20TextRenderingPrivate21TextMeshGeneratorImpl5FlushEv
KKd:_MonoIO_GetFileStat_m678141354
pBc:_UNITY_FT_Load_Sfnt_Table
x7c:__Z15CastclassSealedP12Il2CppObjectP11Il2CppClass
d2b:__ZN15ApplicationInfo14GetSandboxTypeEv
Nrb:__Z18Transfer_BlittableI17RemapPPtrTransferLb1EhEvRK29SerializationCommandArgumentsR31RuntimeSerializationCommandInfo
lyf:_Decimal_IsZero_m4250358244_AdjustorThunk
_Nd:_UnmanagedMemoryStream_get_CanRead_m3770815400
ijj:__ZNSt3__26vectorIjNS_9allocatorIjEEE26__swap_out_circular_bufferERNS_14__split_bufferIjRS2_EE
jXb:__ZN16ReflectionProbes40UpdateRealtimeReflectionProbesTimeslicedEv
Wcj:__ZNSt3__26__treeINS_12__value_typeIP24Il2CppReflectionAssemblyPvEENS_19__map_value_compareIS3_S5_NS_4lessIS3_EELb1EEENS_9allocatorIS5_EEE16__insert_node_atEPNS_16__tree_node_baseIS4_EERSF_SF_
byf:_Decimal_u64_m3374804932
meg:_UInt16_System_IConvertible_ToInt32_m1950778303_AdjustorThunk
tfb:__ZNK30RuntimeInitializeOnLoadManager22GetTypeVirtualInternalEv
KPi:__ZN15dense_hashtableINSt3__24pairIK10KeyWrapperIN6il2cpp5utils13dynamic_arrayIPK10Il2CppTypeLj4EEEEPFvvEEESA_NS3_8metadata19Il2CppSignatureHashEN14dense_hash_mapISA_SD_SG_NSA_14EqualsComparerINSF_22Il2CppSignatureCompareEEENS0_9allocatorISE_EEE9SelectKeyESK_SM_E12resize_deltaEjj
w5b:__ZN16ReflectionProbes15InitializeClassEv
Hlh:__ZL71Enum_t4135868527_CustomAttributesCacheGenerator_Enum_Format_m2588135982P21CustomAttributesCache
aRi:__ZNK15dense_hashtableINSt3__24pairIK10KeyWrapperIPK11Il2CppClassEPKcEES6_N6il2cpp5utils11PointerHashIS3_EEN14dense_hash_mapIS6_S9_SE_NS6_14EqualsComparerINS0_8equal_toIS5_EEEENS0_9allocatorISA_EEE9SelectKeyESJ_SL_E12test_deletedEj
xRh:__ZL127RectTransformUtility_t1743242446_CustomAttributesCacheGenerator_RectTransformUtility_INTERNAL_CALL_PixelAdjustPoint_m1064459754P21CustomAttributesCache
i1h:_Dictionary_2_Do_ICollectionCopyTo_TisKeyValuePair_2_t3699644050_m4159638770_gshared
Rbj:__ZN6il2cpp2vm5Image9GetCorlibEv
Ezg:_Vector3_get_left_m2428419009
eA:__ZN8Animator13BatchedFKPassERK13dynamic_arrayIP14PlayableOutputLj4EE
_rh:__ZL50Pointer_t2088917139_CustomAttributesCacheGeneratorP21CustomAttributesCache
ioj:_GC_reclaim_uninit
mhb:__ZN16LightmapSettings11UnshareDataEv
V$c:_ExecuteEvents_Execute_m113814934
wba:__ZN13RuntimeStaticINSt3__23mapIN4core12basic_stringIcNS2_20StringStorageDefaultIcEEEES6_NS0_4lessIS6_EE13stl_allocatorINS0_4pairIKS6_S6_EEL18MemLabelIdentifier13ELi16EEEELb0EE13StaticDestroyEPv
R_h:_Array_qsort_TisColor32_t2600501292_m1362211604_gshared
Jve:_Enumerator_System_Collections_IEnumerator_get_Current_m2979767597_AdjustorThunk
$hd:_MD5CryptoServiceProvider_ProcessFinalBlock_m2241588515
mYe:_ScrollRect_GetBounds_m449872505
Tj:_glIsVertexArray
Bkd:_SmallXmlParser_Read_m3485223434
uDd:_Int16_Parse_m2276856944
_oe:_InternalEnumerator_1__ctor_m3443175323_AdjustorThunk
a6:__ZN5Unity9Component8TransferI18StreamedBinaryReadILb0EEEEvRT_
Drh:__ZL131CustomAttributeData_t1084486650_CustomAttributesCacheGenerator_CustomAttributeData_t1084486650____ConstructorArguments_PropertyInfoP21CustomAttributesCache
ea:invoke_fff
iwj:_mbsinit
cCj:b14
Vgf:_RepeatContext_get_Expression_m255006542
VMc:__ZN2UI6Canvas17MainThreadCleanupEv
oza:__ZN6prcoreL12RemapGenericI17TexFormatARGB155517TexFormatRGBA8888EEvPKNS_9InnerInfoE
WMi:__ZN13Il2CppHashMapIPK19Il2CppGenericMethodPK26Il2CppGenericMethodIndicesN6il2cpp8metadata23Il2CppGenericMethodHashENS7_26Il2CppGenericMethodCompareENSt3__29allocatorINSA_4pairIK10KeyWrapperIS2_ES5_EEEEEC2EjRKS8_RKS9_
y_d:_TypeBuilder_HasElementTypeImpl_m1871001960
aof:_SecurityFrame__ctor_m2140076703_AdjustorThunk
nVf:_DefaultComparer_Equals_m2458578172_gshared
nDa:__ZN7ApiGLES13CreateProgramEv
Hwe:_Enumerator_VerifyState_m4003066746_gshared
oxa:__ZN4crnd12crn_unpackerD2Ev
ek:_emscripten_glTexImage2D
xue:_Comparer_1_System_Collections_IComparer_Compare_m2537217645_gshared
x_:__ZN18ScriptingArguments9AddStringEPKc
Coj:_setup_header
I_f:_KeyValuePair_2__ctor_m3953574590_AdjustorThunk
Bsd:_Char_ToString_m3588025615
AJf:_SetPropertyUtility_SetStruct_TisAspectMode_t3417192999_m1565063249_gshared
lch:_Collection_1_get_Count_m2853642267_gshared
n7h:_ReadOnlyCollection_1_System_Collections_IList_get_IsReadOnly_m375760151_gshared
Muh:__ZL53IEnvoyInfo_t2180778907_CustomAttributesCacheGeneratorP21CustomAttributesCache
r4e:_CryptoConvert_ToCapiKeyBlob_m3371450375
wya:__ZL23stbir__resize_arbitraryPvPKviiiS_iiiffffPfiij14stbir_datatype12stbir_filterS4_10stbir_edgeS5_16stbir_colorspace
eub:__Z18Transfer_BlittableI24GenerateTypeTreeTransferLb1E8Vector4fEvRK29SerializationCommandArgumentsR31RuntimeSerializationCommandInfo
gCj:b18
pk:_pthread_detach
QSi:__ZN6il2cpp2vm19SocketPollingThread7RunLoopEv
z9c:_FontUpdateTracker_UntrackText_m1981515690
v4g:_List_1_System_Collections_ICollection_get_SyncRoot_m1937857346_gshared
p8b:__ZN15DirectorManager20ScheduleGraphDestroyERK14HPlayableGraph
YCb:__ZNSt3__213__stable_sortIRN10vector_mapI17ScriptingClassPtrPKN5Unity4TypeENS_4lessIS2_EENS_9allocatorINS_4pairIS2_S6_EEEEE13value_compareENS_11__wrap_iterIPSB_EEEEvT0_SJ_T_NS_15iterator_traitsISJ_E15difference_typeEPNSM_10value_typeEi
a1e:_SimpleCollator_FillSurrogateSortKeyRaw_m725998232
B5g:_List_1_AddEnumerable_m1284696147_gshared
laf:_IPAddress_Equals_m1823478787
fHe:_Context_CreateNewContext_m3053563976
nHh:__ZL83RectOffset_t1369453676_CustomAttributesCacheGenerator_RectOffset_set_top_m713260669P21CustomAttributesCache
Wka:__ZN9ShaderLab25SerializedTextureProperty8TransferI24GenerateTypeTreeTransferEEvRT_
U0h:_Array_swap_TisVector2_t2156229523_TisVector2_t2156229523_m345092822_gshared
Dbh:_Collection_1_get_Item_m1773274637_gshared
a1i:__ZN6il2cpp2gc19AppendOnlyGCHashMapINSt3__24pairIPK14Il2CppAssemblyP11Il2CppClassEEP24Il2CppReflectionAssembly17ReflectionMapHashIS9_ENS2_8equal_toIS9_EEEC2Ev
IDc:_tt_cmap14_char_next
Rwb:__Z18Transfer_BlittableI19StreamedBinaryWriteILb0EELb0EdEvRK29SerializationCommandArgumentsR31RuntimeSerializationCommandInfo
Zka:__ZN11NamedObject8TransferI18StreamedBinaryReadILb0EEEEvRT_
AGa:__ZNK17GPUSkinPoseBuffer12GetBoneCountEv
Amg:_InvokableCall_remove_Delegate_m1376110510
axd:_Hashtable_Clear_m3112193608
x8f:_UTF8Encoding_InternalGetByteCount_m771565606
wbj:__ZNK15dense_hashtableINSt3__24pairIK10KeyWrapperIP14Il2CppIUnknownEjEES5_N6il2cpp5utils11PointerHashIS3_EEN14dense_hash_mapIS5_jSB_NS5_14EqualsComparerINS0_8equal_toIS4_EEEENS0_9allocatorIS7_EEE9SelectKeyESG_SI_E12test_deletedEj
y4e:_DSAManaged_GenerateKeyPair_m2236915969
E0g:_List_1_System_Collections_IList_Remove_m3654336679_gshared
tHh:__ZL51GUILayer_t2783472903_CustomAttributesCacheGeneratorP21CustomAttributesCache
moh:__ZL56IDictionary_2_t3177279192_CustomAttributesCacheGeneratorP21CustomAttributesCache
DKf:_Array_InternalArray__IEnumerable_GetEnumerator_TisUInt64_t4134040092_m1382862496_gshared
Mk:_emscripten_glMatrixMode
QUe:_MaskableGraphic_UnityEngine_UI_IClippable_get_gameObject_m1739855597
lFf:_NumberFormatInfo_get_RawPercentGroupSizes_m97703232
Ps:__ZN8Animator23VirtualRedirectTransferER18StreamedBinaryReadILb0EE
lGf:_Guid__ctor_m3562600567_AdjustorThunk
YR:__ZN11UnityEngine15CloudWebService14DataDispatcher16PrepareDataBlockERNS0_16SessionContainerE
XHa:__ZN18GfxFramebufferGLES5ClearE13GfxClearFlagsRK10ColorRGBAffib
jNf:_MonoProperty_StaticGetterAdapterFrame_TisRuntimeObject_m4131530968_gshared
ABb:__ZL26Transfer_SimpleNativeClassI18StreamedBinaryReadILb0EE10RectOffsetLb0EEvRK29SerializationCommandArgumentsR31RuntimeSerializationCommandInfo
Xne:_InternalEnumerator_1_get_Current_m2316281569_gshared
sOb:__ZL12DepthPassJobPN21GfxDeviceAsyncCommand10ArgScratchEPKNS_3ArgE
ija:__ZNSt3__26vectorIN9ShaderLab20SerializedSubProgram16TextureParameterENS_9allocatorIS3_EEE6assignINS_11__wrap_iterIPS3_EEEENS_9enable_ifIXaasr21__is_forward_iteratorIT_EE5valuesr16is_constructibleIS3_NS_15iterator_traitsISC_E9referenceEEE5valueEvE4typeESC_SC_
Jze:_Transform_1_EndInvoke_m1701794896_gshared
Lpc:__ZN5Unity9rapidjson6WriterI16TempBufferWriterNS0_4UTF8IcEES4_13JSONAllocatorE11WriteDoubleEd
dag:_Thread_SetCachedCurrentUICulture_m1729523031
TQc:__Z55Register_UnityEngine_CanvasGroup_get_ignoreParentGroupsv
GRe:_InputField_get_minHeight_m2822964544
$2b:__Z13RegisterClassI19LowerResBlitTextureEvv
qbe:_ClientContext_set_ClientHelloProtocol_m4189379912
Nm:FUNCTION_TABLE_iiiiiiiiiiii
d5g:_List_1_get_Item_m1686506901_gshared
fUa:__ZN16GraphicsSettingsD0Ev
h$b:__Z29StdTemplateConversionFunctionIshEbPvR14SafeBinaryRead
n:cttz_i8
Byc:_UNITY_FT_GlyphLoader_Add
BAi:_AudioListener_INTERNAL_CALL_ReadExtensionPropertyName_m330480156
Ash:__ZL62ActivationArguments_t4219999170_CustomAttributesCacheGeneratorP21CustomAttributesCache
RNg:__Z53RuntimeInvoker_Interval_t1802865632_Int32_t2950945753PFvvEPK10MethodInfoPvPS4_
QBd:_Convert_ToUInt16_m867476252
Jl:_emscripten_glViewport
Pkj:__ZN6il2cpp6icalls8mscorlib6System15MonoCustomAttrs17IsDefinedInternalEP12Il2CppObjectP20Il2CppReflectionType
r0f:_Enumerator__ctor_m40451936_AdjustorThunk
lQg:__Z53RuntimeInvoker_Vector3_t3722313464_Single_t1397266774PFvvEPK10MethodInfoPvPS4_
YJi:_SkeletonBone_t4134054672_marshal_pinvoke_back
buh:__ZL115SynchronizationAttribute_t3946661254_CustomAttributesCacheGenerator_SynchronizationAttribute_IsContextOK_m324067792P21CustomAttributesCache
_Td:_CustomAttributeData_get_Constructor_m489601093
Zzc:_cff_parse_font_bbox
j0e:_MSCompatUnicodeTable_Category_m1834196420
tec:__Z35Application_Get_Custom_PropIsEditorv
Kdb:__ZN14PlayerSettings23VirtualRedirectTransferER18StreamedBinaryReadILb0EE
TAf:_Double_CompareTo_m3151899116
Jtj:__ZN6il2cpp2os5Event5ResetEv
FTb:__Z26CombineDepthNormalsTextureRK17RenderLoopContextR13dynamic_arrayI16RenderObjectDataLj4EE
rDc:_tt_name_ascii_from_other
czi:_ToggleGroup__ctor_m3308114662
Ddj:__ZN6il2cpp8metadata15GenericMetadata17InflateParametersEPK13ParameterInfohPK20Il2CppGenericContextb
gSa:__ZN6Camera13AwakeFromLoadE17AwakeFromLoadMode
l0h:_Array_Sort_TisUILineInfo_t4195266810_m3737783007_gshared
Wrg:_PlayableAsset_Internal_CreatePlayable_m2550417712
Xv:__ZNK17AnimationPlayable27GetNextCompatibleDescendantEi
cCh:__ZL59ResolveEventArgs_t1779456501_CustomAttributesCacheGeneratorP21CustomAttributesCache
oKa:__ZN4PPtrI6SpriteE8TransferI18StreamedBinaryReadILb0EEEEvRT_
Cpd:_Convert_ToInt16_m3324557887
Vki:_TlsStream_Write_m188217214
jzb:__ZN4PPtrI9Texture2DE8TransferI18StreamedBinaryReadILb1EEEEvRT_
zGb:__Z25SetNeedToPerformRenderingb
cyj:__ZN10__cxxabiv116__shim_type_infoD2Ev
uri:_Alternation__ctor_m1629257642
cgg:_UInt64_System_IConvertible_ToInt32_m949522652_AdjustorThunk
tQa:__ZN10GameObjectD2Ev
HOb:__ZN14qsort_internal30FindAndMovePivotToLastPositionIP15RODataDepthPassi17ROSorterDepthPassEEvT_S4_T0_T1_
JOd:_MethodAccessException__ctor_m3411913042
FBi:__ZL24UnresolvedVirtualCall_26P12Il2CppObjectS0_iiPK10MethodInfo
eYf:_EqualityComparer_1__ctor_m1767308726_gshared
sWb:__ZN12CullingGroup10SendEventsEPK17CullingGroupEventj
vTi:__ZNSt3__214__split_bufferI6pollfdRNS_9allocatorIS1_EEED2Ev
pFf:_NumberFormatInfo_get_PerMilleSymbol_m1360140831
z9d:_EncryptedData_get_EncryptionAlgorithm_m905084934
mKf:_Array_InternalArray__IEnumerable_GetEnumerator_TisCustomAttributeTypedArgument_t2723150157_m1333528454_gshared
v1c:_PointerInputModule__ctor_m3728889932
EX:__ZThn32_NK8Renderer8GetLayerEv
Q0f:_Enumerator_System_Collections_IEnumerator_Reset_m2915500989_gshared
cAc:_cff_parse_vsindex
rcj:__ZN30dense_hashtable_const_iteratorINSt3__24pairIK10KeyWrapperINS1_IPKcS4_EEEiEES6_24NamespaceAndNamePairHashN14dense_hash_mapIS6_iS9_NS6_14EqualsComparerI26NamespaceAndNamePairEqualsEENS0_9allocatorIS8_EEE9SelectKeyESD_SF_E30advance_past_empty_and_deletedEv
GDd:_Int32_ValidDigit_m1059003769
GHj:_emscripten_glTexParameterfv__wrapper
wCh:__ZL54MemberFilter_t426314064_CustomAttributesCacheGeneratorP21CustomAttributesCache
ESe:_LayoutGroup_get_rectTransform_m442863741
nob:__Z18Transfer_BlittableI14SafeBinaryReadLb1E9BoundsIntEvRK29SerializationCommandArgumentsR31RuntimeSerializationCommandInfo
B4i:_il2cpp_method_get_param_count
ccc:__ZN10systeminfo19ISOToSystemLanguageERN4core12basic_stringIcNS0_20StringStorageDefaultIcEEEE
U$i:__ZNK15dense_hashtableINSt3__24pairIK10KeyWrapperINS1_IPK12PropertyInfoP11Il2CppClassEEEjEES9_17ReflectionMapHashIS8_EN14dense_hash_mapIS9_jSD_NS9_14EqualsComparerINS0_8equal_toIS8_EEEENS0_9allocatorISB_EEE9SelectKeyESI_SK_E3endEv
d2h:_LayoutGroup_SetProperty_TisAxis_t3613393006_m3591044743_gshared
Rgg:_UnauthorizedAccessException__ctor_m40101894
Xlh:__ZL69RuntimeArray_CustomAttributesCacheGenerator_Array_SetValue_m282347242P21CustomAttributesCache
uHc:_ps_dimension_done
JMc:__Z46Register_UnityEngine_TextGenerator_Dispose_cppv
HHg:__Z67RuntimeInvoker_GCHandle_t3351438187_RuntimeObject_Int32_t2950945753PFvvEPK10MethodInfoPvPS4_
YAf:_Double_Parse_m4153729520
$hi:_IndexedSet_1_AddUnique_m861843892_gshared
zDh:__ZL59HybridDictionary_t4070033136_CustomAttributesCacheGeneratorP21CustomAttributesCache
m4a:__ZN16LightmapSettings8TransferI14SafeBinaryReadEEvRT_
voa:__ZN17BufferManagerGLES13ReleaseBufferEP14DataBufferGLES
pae:_CipherSuite_Write_m1172814058
jNd:_SynchronizedWriter_Write_m301917713
F8:__ZN9profiling6MarkerC2EPKc13ProfilerGroupNS0_5FlagsE
eue:__ZN21InterfaceFuncInvoker1Ii22UILineInfo_t4195266810E6InvokeEjP11Il2CppClassP12Il2CppObjectS0_
nuc:__Z18Transfer_BlittableI8JSONReadLb1EjEvRK29SerializationCommandArgumentsR31RuntimeSerializationCommandInfo
YUd:_ConstructorBuilder_get_IsCompilerContext_m3364441562
Blg:_Debug_LogWarning_m3752629331
vbi:_ReadOnlyCollection_1_System_Collections_Generic_IListU3CTU3E_RemoveAt_m4037795630_gshared
bJg:__Z117RuntimeInvoker_Void_t1185182177_RuntimeObject_Int32_t2950945753_Int32_t2950945753_Int32_t2950945753_Int32_t2950945753PFvvEPK10MethodInfoPvPS4_
gWh:__ZL81U3CMouseDragOutsideRectU3Ec__Iterator1_t3909241878_CustomAttributesCacheGeneratorP21CustomAttributesCache
p4c:_U3COnFinishSubmitU3Ec__Iterator0_Reset_m3632769946
$o:stackSave
s6c:_ColorTween_get_targetColor_m1724075482_AdjustorThunk
PHc:_ps_dimension_end
hlc:__Z41Register_UnityEngine_Mesh_Internal_Createv
Wmb:__ZN16MemoryFileSystem5TouchER13FileEntryData
Bdj:__ZNK15dense_hashtableI10KeyWrapperIP18Il2CppGenericClassES3_N6il2cpp8metadata22Il2CppGenericClassHashEN14dense_hash_setIS3_S6_NS3_14EqualsComparerINS5_25Il2CppGenericClassCompareEEENSt3__29allocatorIS3_EEE8IdentityESA_SD_E12test_deletedERK30dense_hashtable_const_iteratorIS3_S3_S6_SF_SA_SD_E
r1f:_Enumerator_Dispose_m2498245804_AdjustorThunk
jzd:_Console_Open_m3077673205
uni:_X509StoreManager_get_CurrentUser_m4040993045
RXb:__ZN6Camera9SetAspectEf
jMf:_Array_InternalArray__IndexOf_TisDateTime_t3738529785_m2463359116_gshared
va:invoke_viiffiii
HFi:_Display_Start_m3623905221
Ume:_InternalEnumerator_1_MoveNext_m4138204635_gshared
XIj:_emscripten_glBindVertexArray__wrapper
tgj:__ZN6il2cpp6icalls8mscorlib6System4Enum19get_underlying_typeEP20Il2CppReflectionType
gti:_Parser_IsECMAScript_m674158805
nF:__ZN10ObjectPoolIN4FMOD3DSPENS0_4DSPIEE7GetFreeEi
oRa:__ZN9Transform37InitializeTransformHierarchyRecursiveER18TransformHierarchyRii
LHa:__ZN26SinglePassStereoSupportExt23SetupStereoMatrixParamsE21MonoOrStereoscopicEye24BuiltinShaderMatrixParamRK10Matrix4x4f
z$h:_Array_Resize_TisVector2_t2156229523_m1564542050_gshared
dwj:_fscanf
iYc:__ZNK25UnityWebRequestJavaScript16GetUploadedBytesEv
XP:__Z46AudioListener_CUSTOM_GetNumExtensionPropertiesP12Il2CppObject
$Ti:__ZN6il2cpp6icalls8mscorlib6SystemL16CheckMemberMatchI9FieldInfoNS_5utils10functional6FilterINSt3__212basic_stringIcNS8_11char_traitsIcEENS8_9allocatorIcEEEENS5_13VmStringUtils23CaseInsensitiveComparerEEEEEbPKT_PK11Il2CppClassSN_iRKT0_
__:__Z14GetMonoManagerv
wMf:_Array_InternalArray__IndexOf_TisMonoResource_t4103430009_m1351751258_gshared
Qej:__ZN6il2cpp2gc16GarbageCollector12RunFinalizerEPvS2_
SCf:_FieldAccessException__ctor_m3583219052
dkc:__Z57Register_UnityEngine_Transform_INTERNAL_set_localPositionv
RJh:__ZL105RectTransform_t3704657025_CustomAttributesCacheGenerator_RectTransform_INTERNAL_get_anchorMax_m1239315619P21CustomAttributesCache
zsa:__ZN13GfxDeviceGLES26SetRandomWriteTargetBufferEi15ComputeBufferID
Boj:_GC_split_block
u$h:_Array_Resize_TisUICharInfo_t75501106_m3903846016_gshared
g8h:_ReadOnlyCollection_1_System_Collections_Generic_ICollectionU3CTU3E_get_IsReadOnly_m3887826072_gshared
L$i:__ZNK15dense_hashtableINSt3__24pairIK10KeyWrapperINS1_IPK12PropertyInfoP11Il2CppClassEEEjEES9_17ReflectionMapHashIS8_EN14dense_hash_mapIS9_jSD_NS9_14EqualsComparerINS0_8equal_toIS8_EEEENS0_9allocatorISB_EEE9SelectKeyESI_SK_E8min_sizeEjj
xKb:__ZZ23InitPlayerLoopCallbacksvEN49EarlyUpdateResetFrameStatsAfterPresentRegistrator7ForwardEv
Fwj:_poll
i8h:_ReadOnlyCollection_1_System_Collections_IEnumerable_GetEnumerator_m1671097018_gshared
Cgg:_UInt64_ToString_m1529093114_AdjustorThunk
xXh:__ZL85Selectable_t3250028441_CustomAttributesCacheGenerator_Selectable_IsPressed_m907486548P21CustomAttributesCache
j5d:_TypeLibImportClassAttribute__ctor_m2302178978
K1e:_Escape_t3294788190_marshal_pinvoke
_Qe:_InputField_OnUpdateSelected_m1118869681
Vbj:__ZN6il2cpp2vmL36AddNestedTypesToNametoClassHashTableEP40Il2CppNameToTypeDefinitionIndexHashTablePKcRKNSt3__212basic_stringIcNS5_11char_traitsIcEENS5_9allocatorIcEEEEP11Il2CppClass
Wcd:_SerializationException__ctor_m3131447373
yxa:__ZN4crnd12crn_unpacker11unpack_dxt1EPPhjjj
Nbc:__ZNK11ICallString6ToUTF8Ev
e_g:__Z39RuntimeInvoker_MonoResource_t4103430009PFvvEPK10MethodInfoPvPS4_
gLi:__ZN15dense_hashtableINSt3__24pairIK10KeyWrapperIPK22Il2CppGenericParameterEP11Il2CppClassEES6_N6il2cpp5utils11PointerHashIS4_EEN14dense_hash_mapIS6_S9_SE_NS6_14EqualsComparerINS0_8equal_toIS5_EEEENS0_9allocatorISA_EEE9SelectKeyESJ_SL_E15insert_noresizeERKSA_
nze:_Transform_1_Invoke_m2468053724_gshared
SHg:__Z51RuntimeInvoker_Void_t1185182177_TimeSpan_t881159249PFvvEPK10MethodInfoPvPS4_
IOb:__ZNSt3__211__sift_downIR17ROSorterDepthPassP15RODataDepthPassEEvT0_S5_T_NS_15iterator_traitsIS5_E15difference_typeES5_
X$a:__ZN18UnityPropertySheet11UnityTexEnvC2Ev
lec:__ZNSt3__214__split_bufferIPN9BlobWrite11TypeContextENS_9allocatorIS3_EEE10push_frontERKS3_
kmd:_ArgumentException__ctor_m3200406061
zA:__ZN8Animator17ApplyOnAnimatorIKEiRNS_11AnimatorJobE
o1:__ZN12FileAccessor4ReadEyyPvPy
Dsf:_EncoderExceptionFallback__ctor_m3745979420
X6g:_List_1_set_Capacity_m2777925136_gshared
sXb:__ZN13RenderTexture9SetHeightEi
mu:__ZN7mecanim9animation17ClearMotionOutputEPNS0_18AnimationNodeStateE
bbe:_CipherSuiteCollection_get_IsFixedSize_m3127823890
zXa:__ZN16LevelGameManager8TransferI24GenerateTypeTreeTransferEEvRT_
ete:_InternalEnumerator_1_System_Collections_IEnumerator_get_Current_m3537550566_gshared
tWe:_Scrollbar_UpdateVisuals_m2492252165
kmi:_PKCS12_get_Keys_m2165478388
L8i:__ZN6il2cpp6icalls8mscorlib6System2IO6MonoIO17GetFileAttributesEP12Il2CppStringPi
qhd:_HMACMD5__ctor_m3008609295
nvf:_DateTime__ParseAmPm_m3478436123
Tvf:_DateTime_ToString_m2992030064_AdjustorThunk
kEc:_tt_cmap8_char_index
Y_:__Z24scripting_class_get_name17ScriptingClassPtr
ULd:_Stream_WriteByte_m1519852120
Bzi:_VerticalLayoutGroup_CalculateLayoutInputHorizontal_m1404590745
eca:__ZN13RuntimeStaticI15GUIEventManagerLb0EE13StaticDestroyEPv
MPd:_ShortComparer_Compare_m1881262465
eqb:__Z29Transfer_Blittable_ArrayFieldI14SafeBinaryReadjEvRT_R9ArrayInfoRK23StaticTransferFieldInfo
JZg:__Z53RuntimeInvoker_Keyframe_t4206410242_Int32_t2950945753PFvvEPK10MethodInfoPvPS4_
ee:_emscripten_set_keydown_callback
e5f:_EncoderReplacementFallback__ctor_m1483565116
Zgf:_Interpreter_IsWordChar_m2858055765
Zwd:_Hashtable_CopyTo_m2905447224
w1:__ZN12FileAccessorC2Ev
cYf:_EqualityComparer_1_System_Collections_IEqualityComparer_Equals_m3855544238_gshared
ZBc:_otv_u_O_O_u_O_O
qy:__ZThn152_NK26AnimatorControllerPlayable25GetStateMachineBehavioursEv
Whi:_EventFunction_1_Invoke_m2429482587_gshared
Fbf:_AsnEncodedData_SubjectAltName_m4049949414
oVi:__ZN6il2cpp2vm7Runtime12GetConfigDirEv
Azi:_VerticalLayoutGroup__ctor_m321345421
_q:__ZN4PPtrI13MonoBehaviourE8TransferI18StreamedBinaryReadILb0EEEEvRT_
o0f:_Enumerator_MoveNext_m1177880931_AdjustorThunk
VZe:_Slider_UpdateVisuals_m3662961057
HOh:__ZL82Event_t2956885303_CustomAttributesCacheGenerator_Event_get_commandName_m4275147343P21CustomAttributesCache
BHi:_TextGenerator_Populate_m194003733
FFh:__ZL111ScriptableObject_t2528358522_CustomAttributesCacheGenerator_ScriptableObject_CreateInstanceFromType_m1997111014P21CustomAttributesCache
$Vd:_DerivedType_get_FullName_m1025358827
wfd:_CryptoConfig_MapNameToOID_m2044758263
OVh:__ZL70InputField_t3762917431_CustomAttributesCacheGenerator_m_OnValueChangedP21CustomAttributesCache
rHb:__ZN13RenderManager22OnWindowSizeHasChangedEv
PEb:__Z39WriteQueueForTransferSignatureIntoCacheRK31TransferFunctionScriptingTraitsRK24TransferRequestSignature17ScriptingClassPtrR23CachedSerializationDataRb
_gb:__ZN13RenderManager18UpdateAllRenderersEv
q6f:_Encoding_get_UTF8UnmarkedUnsafe_m320312322
mag:_Thread_Thread_free_internal_m333849022
brc:__Z35Transfer_Blittable_FixedBufferFieldI9JSONWritexEvRK29SerializationCommandArgumentsR31RuntimeSerializationCommandInfo
soi:_CostDelegate_BeginInvoke_m2828452701
QSc:__ZN22BaseUnityConnectClient30OnEnteringStatePausedOrStoppedEv
Fgh:_Collection_1_ConvertItem_m1556170494_gshared
Au:__ZN7mecanim5human12HumanPoseAddERNS0_9HumanPoseERKS1_S4_
Ntf:_DateTime_ToUniversalTime_m1945318289
vtd:_ArrayList_ToArray_m3827492363
l_e:_Slider_get_stepSize_m1423227661
xgg:_UInt64_Parse_m819899889
Pkf:_SymmetricAlgorithm_set_IV_m3196220308
rYd:_GenericTypeParameterBuilder_GetHashCode_m852224381
aCd:_Convert_ToUInt32_m1453583008
NDf:_CompareInfo_Compare_m894311506
YQa:__Z24MergeTransformComponentsR9TransformS0_b
bPi:__ZNK15dense_hashtableI10KeyWrapperIPK19Il2CppGenericMethodES4_N6il2cpp8metadata23Il2CppGenericMethodHashEN14dense_hash_setIS4_S7_NS4_14EqualsComparerINS6_26Il2CppGenericMethodCompareEEENSt3__29allocatorIS4_EEE8IdentityESB_SE_E10test_emptyEj
e_c:_EventSystem_UpdateModules_m3643806022
Jij:__ZN6il2cpp2gc16GarbageCollector10StartWorldEv
DJi:_AnimationOffsetPlayable__cctor_m1029460816
SFh:__ZL86Camera_t4157153871_CustomAttributesCacheGenerator_Camera_get_targetTexture_m2278634983P21CustomAttributesCache
Mmf:_Evidence_get_SyncRoot_m2835084965
zJf:_SetPropertyUtility_SetStruct_TisTouchScreenKeyboardType_t1530597702_m2455393348_gshared
lUf:_DefaultComparer__ctor_m2280347240_gshared
kwh:__ZL59ICryptoTransform_t2733259762_CustomAttributesCacheGeneratorP21CustomAttributesCache
Rkj:__ZN6il2cpp2vm13ComObjectBase19GetRuntimeClassNameEPP15Il2CppHString__
tzd:_Convert_ToBoolean_m2833489984
Rj:_emscripten_glVertexAttribPointer
Cyj:__ZNSt11logic_errorD0Ev
OVa:__ZNK20IntermediateRenderer12GetSceneMaskEv
CHb:__ZN14PreloadManager26UpdatePreloadingSingleStepENS_21UpdatePreloadingFlagsEi
Bii:_TweenRunner_1__ctor_m340723704_gshared
$Ye:_ScrollRect_SetLayoutHorizontal_m3078869633
z0e:_SimpleCollator__ctor_m1587210019
pic:__Z57Register_UnityEngine_RectTransform_INTERNAL_set_anchorMinv
YBd:_Convert_ToUInt16_m1480956416
Xya:__ZN6prcoreL25inner_stretch_i8_bilinearEPKNS_9InnerInfoE
sib:__ZL30RegisterFilteredObjectCallbackPP12Il2CppObjectiPv
Tai:_ReadOnlyCollection_1_System_Collections_Generic_IListU3CTU3E_RemoveAt_m3317217538_gshared
fOh:__ZL54AudioSource_t3935305588_CustomAttributesCacheGeneratorP21CustomAttributesCache
UHb:__Z19InitializeGfxDevicev
sS:__ZN11UnityEngine15CloudWebService16SessionContainer24GetSessionHeaderJsonDataERKN4core12basic_stringIcNS2_20StringStorageDefaultIcEEEERNS2_13StringBuilderE
EVd:_DerivedType_GetEvent_m4157575360
Sba:__ZN13RuntimeStaticI21AssetReferenceStorageLb0EE13StaticDestroyEPv
zed:_SByte_System_IConvertible_ToType_m4075253447_AdjustorThunk
jwd:_Comparer__ctor_m2831654082
LQf:_Array_InternalArray__set_Item_TisKeyValuePair_2_t2530217319_m258011711_gshared
pTg:__Z72RuntimeInvoker_Bounds_t2266837910_RuntimeObject_Matrix4x4U26_t3606180965PFvvEPK10MethodInfoPvPS4_
Egj:__ZN6il2cpp6icalls8mscorlib6System9AppDomain22InternalGetProcessGuidEP12Il2CppString
iyc:_cf2_builder_moveTo
HAh:__ZL79Convert_t2465617642_CustomAttributesCacheGenerator_Convert_ToUInt32_m3188121845P21CustomAttributesCache
RCg:__Z48RuntimeInvoker_RuntimeObject_Decimal_t2948259380PFvvEPK10MethodInfoPvPS4_
Cag:_ThreadStart_EndInvoke_m3768045394
uNa:__ZNK17FileSystemHandler10IsReadOnlyERK13FileEntryData
gUi:__ZNSt3__214__split_bufferIP9FieldInfoRNS_9allocatorIS2_EEEC2EjjS5_
Bdd:_StreamingContext__ctor_m2604757771_AdjustorThunk
Bub:__Z18Transfer_BlittableI24GenerateTypeTreeTransferLb1EjEvRK29SerializationCommandArgumentsR31RuntimeSerializationCommandInfo
p$i:__ZNK15dense_hashtableINSt3__24pairIK10KeyWrapperINS1_IPK11Il2CppImageP11Il2CppClassEEEjEES9_17ReflectionMapHashIS8_EN14dense_hash_mapIS9_jSD_NS9_14EqualsComparerINS0_8equal_toIS8_EEEENS0_9allocatorISB_EEE9SelectKeyESI_SK_E10test_emptyERK30dense_hashtable_const_iteratorISB_S9_SD_SM_SI_SK_E
eLi:__ZN6il2cpp2os12FastAutoLockD2Ev
grh:__ZL68AssemblyCopyrightAttribute_t836190902_CustomAttributesCacheGeneratorP21CustomAttributesCache
Z6:__ZN11ColorRGBA328TransferI14SafeBinaryReadEEvRT_
Kch:_Collection_1_Add_m1736908447_gshared
rAc:_cff_vstore_done
dOg:__Z68RuntimeInvoker_Void_t1185182177_UInt16_t2177724958_SByte_t1669577662PFvvEPK10MethodInfoPvPS4_
jfb:__ZN15ResourceManager10Dependency8TransferI24GenerateTypeTreeTransferEEvRT_
Phd:_MACTripleDES_HashFinal_m3613553534
Tfg:_UInt64_System_IConvertible_ToChar_m2074245892
B8f:_UTF8Encoding_InternalGetBytes_m1965760031
Jf:_emscripten_glClearDepth
U6b:__ZNK8GUILayer22GetTypeVirtualInternalEv
s5a:__ZN14SafeBinaryRead21TransferSTLStyleArrayINSt3__26vectorIN15QualitySettings14QualitySettingENS1_9allocatorIS4_EEEEEEvRT_17TransferMetaFlags
cgi:_UnityAction_1__ctor_m3007623985_gshared
WDi:__ZL25UnresolvedVirtualCall_151P12Il2CppObject39CustomAttributeNamedArgument_t287865710S1_PK10MethodInfo
QVg:__Z56RuntimeInvoker_Boolean_t97287965_ILTokenInfo_t2325775114PFvvEPK10MethodInfoPvPS4_
idb:__ZNSt3__26vectorINS_4pairIPKN5Unity4TypeE7Hash128EENS_9allocatorIS7_EEE8__appendEj
uAc:_cff_font_load
ihj:__GLOBAL__sub_I_LibraryLoader_cpp
Fcc:__Z13IsPathCreatedRKN4core12basic_stringIcNS_20StringStorageDefaultIcEEEE
AUh:__ZL99Dropdown_t2274391225_CustomAttributesCacheGenerator_Dropdown_DelayedDestroyDropdownList_m2082128994P21CustomAttributesCache
Cya:__ZL22stbir__encode_scanlineP11stbir__infoiPvPfiii
v4d:_ExternalException__ctor_m2877839282
mxc:__ZN20QuadTreeNodeRenderer13StaticDestroyEPv
oT:__ZN11UnityEngine15CloudWebService20WebRequestRestClient5AbortEv
sri:_Regex_Matches_m2080913806
Z3b:__ZN9Transform12CleanupClassEv
Bwg:_Sprite_get_rect_m2575211689
mpg:_Mathf_Sin_m3411839043
ALc:_UNITY_FT_Set_Pixel_Sizes
bSd:_OperatingSystem_Clone_m1122165140
v3h:_GameObject_AddComponent_TisRuntimeObject_m3469369570_gshared
dka:__ZNSt3__26vectorIN9ShaderLab19SerializedSubShaderENS_9allocatorIS2_EEE26__swap_out_circular_bufferERNS_14__split_bufferIS2_RS4_EE
dA:__ZN11UnityEngine9Animation33SetGenericTransformPropertyValuesERKNS0_30AnimatorGenericBindingConstantERKN7mecanim10ValueArrayEP9Transformy
nzh:__ZL59AttributeTargets_t1784037988_CustomAttributesCacheGeneratorP21CustomAttributesCache
ceh:_Collection_1_System_Collections_IList_get_Item_m3426129749_gshared
P6i:__ZN6il2cpp2vmL24thread_cleanup_on_cancelEPv
$2g:_List_1_RemoveAll_m3165362277_gshared
Wcg:_Type_type_is_subtype_of_m1406623598
a9f:_Thread_get_CurrentThread_m4142136012
eWa:__Z30ProcessDynamicBatchGeometryJobP25DynamicVBOGeometryJobDataj
cPb:__ZNSt3__27__sort4IRNS_6__lessI11CulledLightS2_EEPS2_EEjT0_S6_S6_S6_T_
ZWi:__ZN6il2cpp2vm14TypeNameParser26ParseArrayModifierOptionalEv
TZ:__Z26scripting_object_get_class18ScriptingObjectPtr
O7i:__ZN6il2cpp6icalls8mscorlib6System10Reflection8Assembly13get_code_baseEP24Il2CppReflectionAssemblyb
Vfb:__ZNSt3__26vectorIN4core12basic_stringIcNS1_20StringStorageDefaultIcEEEE13stl_allocatorIS5_L18MemLabelIdentifier13ELi16EEE7reserveEj
Egd:_DSASignatureDeformatter__ctor_m2889130126
Nef:_X509ChainElementCollection_Clear_m2271223414
C3b:__ZNK28MonoBehaviourPropertyBinding15GenerateBindingERKN4core12basic_stringIcNS0_20StringStorageDefaultIcEEEEbRN11UnityEngine9Animation14GenericBindingE
gvg:_RectTransform_INTERNAL_set_pivot_m1160676233
X7g:_List_1_set_Item_m35836043_gshared
fXh:__ZL70ScrollRect_t4137855814_CustomAttributesCacheGenerator_m_OnValueChangedP21CustomAttributesCache
Eef:_X509ChainElementCollection__ctor_m3424079155
Aoi:_LinkStack_Push_m3081279930
Sxe:_Enumerator_MoveNext_m1107569389_gshared
hUi:__ZNSt3__26vectorIP9FieldInfoNS_9allocatorIS2_EEE26__swap_out_circular_bufferERNS_14__split_bufferIS2_RS4_EE
Rhi:_UnityEvent_3_GetDelegate_m1156357290_gshared
Sij:__ZN6il2cpp6icalls8mscorlib6System11Environment15internalGetHomeEv
Foe:_InternalEnumerator_1__ctor_m4200721464_gshared
Npg:_Matrix4x4_GetHashCode_m4034747639_AdjustorThunk
y3d:_ResourceCacheItem_t51292791_marshal_pinvoke_cleanup
iX:__ZNK5Unity9Component7GetNameEv
LUi:__ZNSt3__214__split_bufferIN6il2cpp6icalls8mscorlib6System12PropertyPairERNS_9allocatorIS5_EEEC2EjjS8_
Skf:_SymmetricAlgorithm_get_KeySize_m4185004893
_0g:_List_1_GetEnumerator_m232588170_gshared
hTe:_U3CDelayedSetDirtyU3Ec__Iterator0_Reset_m160466733
$kg:_Native__cctor_m1435623442
m6g:_List_1_System_Collections_IList_Remove_m1070694895_gshared
Pvi:_LayoutCache__ctor_m3885940174
W5a:__ZN13ScreenManagerD0Ev
vJi:_AnimationMotionXToDeltaPlayable_GetHandle_m1319190040_AdjustorThunk
rB:__ZN7mecanim8skeleton26SkeletonPoseComputeGlobalQEPKNS0_8SkeletonEPKNS0_13SkeletonPoseTIN4math4trsXEEEPS7_ii
Sfg:_UInt64_System_IConvertible_ToByte_m1501504925_AdjustorThunk
uHi:_TextGenerator_Invalidate_m1072346986
Pde:_TlsClientHello_ProcessAsTls1_m2549285167
t$g:__Z74RuntimeInvoker_Boolean_t97287965_UIVertex_t4057497605_UIVertex_t4057497605PFvvEPK10MethodInfoPvPS4_
O8h:_ReadOnlyCollection_1_System_Collections_IList_Clear_m3591436538_gshared
IXe:_ScrollRect_set_decelerationRate_m723367336
TA:__ZN9BlobWrite8TransferI22OffsetPtrArrayTransferIiEEEvRT_PKc17TransferMetaFlags
Fsf:_EncoderExceptionFallback_Equals_m2760188920
Psb:__Z18Transfer_BlittableI17RemapPPtrTransferLb1EjEvRK29SerializationCommandArgumentsR31RuntimeSerializationCommandInfo
$hf:_RIPEMD160Managed_HashCore_m2350629432
VJ:__ZN4FMOD6System7releaseEv
zwb:__Z18Transfer_BlittableI19StreamedBinaryWriteILb0EELb1E8BitFieldEvRK29SerializationCommandArgumentsR31RuntimeSerializationCommandInfo
Zpd:_Boolean_CompareTo_m3665076258
Vpf:_String_Split_m3580120853
N5e:_PrivateKeyInfo__ctor_m2811023496
T0:__Z18PathToAbsolutePathRKN4core12basic_stringIcNS_20StringStorageDefaultIcEEEE
$Zd:_PropertyBuilder_GetCustomAttributes_m2917594003
Kwi:_GUILayoutUtility_LayoutFromEditorWindow_m2914699782
F5d:_BigInteger_SetBit_m1723423691
AUg:__Z78RuntimeInvoker_RuntimeObject_ObjectU26_t2146539884_RuntimeObject_RuntimeObjectPFvvEPK10MethodInfoPvPS4_
foh:__ZL65X509ExtensionCollection_t609554708_CustomAttributesCacheGeneratorP21CustomAttributesCache
eya:__ZL13BlitImageImplR14ImageReferenceiiRKS_NS_10ColorSpaceENS_8BlitModeEb
v8b:__ZN15DirectorManager17AcquireOutputNodeEv
nAa:__ZN6prcoreL17RemapGenericFloatI18TexFormatRGBAFloat17TexFormatRGBFloatEEvPKNS_9InnerInfoE
y3h:_GameObject_GetComponentInChildren_TisRuntimeObject_m1310240902_gshared
CLh:__ZL69PersistentCall_t3407714124_CustomAttributesCacheGenerator_m_ArgumentsP21CustomAttributesCache
aHa:__ZN16GeometryJobTasks20ScheduleGeometryJobsER9GfxDevicePFvP15GeometryJobDataEPK22GeometryJobInstructionjb
bee:_TlsServerCertificateRequest_ProcessAsSsl3_m1084200341
_H:__ZN12AudioManager29ShutdownReinitializeAndReloadEv
hYa:__ZN16ReflectionProbes28GetMinBakedCubemapResolutionEv
M9a:__ZN14BlendShapeData8TransferI14SafeBinaryReadEEvRT_
Oze:_Enumerator__ctor_m1849900510_gshared
$jj:__GLOBAL__sub_I_String_cpp
dLi:__ZN15dense_hashtableINSt3__24pairIK10KeyWrapperIPK22Il2CppGenericParameterEP11Il2CppClassEES6_N6il2cpp5utils11PointerHashIS4_EEN14dense_hash_mapIS6_S9_SE_NS6_14EqualsComparerINS0_8equal_toIS5_EEEENS0_9allocatorISA_EEE9SelectKeyESJ_SL_E6insertERKSA_
hRe:_InputField_GenerateCaret_m1459647218
bKh:__ZL101SpriteAtlasManager_t3158462485_CustomAttributesCacheGenerator_SpriteAtlasManager_Register_m2413332465P21CustomAttributesCache
cmi:_X509CertificateEnumerator__ctor_m85694331
$ta:__ZN14DataBufferGLES16RecreateWithDataEjPKv
N2:__Z29GetGlobalAllowNameConversionsv
vPf:_Array_InternalArray__Insert_TisTableRange_t3332867892_m558285859_gshared
YYb:__ZN8Material8SetColorEN9ShaderLab16FastPropertyNameERK10ColorRGBAf
hSh:__ZL77ExecuteEvents_t3484638744_CustomAttributesCacheGenerator_U3CU3Ef__mgU24cacheFP21CustomAttributesCache
W1f:_Enumerator_System_Collections_IEnumerator_Reset_m3754523291_gshared
sHj:_glUniform3uiv__wrapper
yzh:__ZL77Convert_t2465617642_CustomAttributesCacheGenerator_Convert_ToByte_m2375887898P21CustomAttributesCache
TL:__ZN11AudioSource23VirtualRedirectTransferER18StreamedBinaryReadILb0EE
ftg:_RangeInt_get_end_m4128831787
Vba:__ZN21AssetReferenceStorageC2Ev
Gfi:_InvokableCall_1_Find_m1741895083_gshared
exb:__ZN10RectOffset8TransferI19StreamedBinaryWriteILb0EEEEvRT_
Lzj:dynCall_iiifiii
a$:__ZL41AssemblyNameMatchesWithOrWithoutExtensionPKcS0_
e5g:_List_1_set_Item_m2082115010_gshared
I5f:_Encoding_GetBytes_m3735967069
Knd:_Array_Initialize_m3004991267
BDa:__ZN14GfxContextGLES43AddRenderSurfaceToDeferredFBOInvalidateListEPK17RenderSurfaceGLES
o8i:__ZN6il2cpp6icalls8mscorlib6System9Threading6Thread15Thread_internalEP12Il2CppThreadP14Il2CppDelegate
roa:__ZN11NamedObject23VirtualRedirectTransferER14SafeBinaryRead
f$e:_Text_get_resizeTextMinSize_m1002355407
pLc:__ZNSt3__26vectorIN20TextRenderingPrivate8FontImpl13CharacterInfoE13stl_allocatorIS3_L18MemLabelIdentifier1ELi16EEE6insertENS_11__wrap_iterIPKS3_EERS9_
mLa:__ZN23PreloadManagerOperation6IsDoneEv
K1g:_List_1_GrowIfNeeded_m3796726_gshared
x_i:__ZNK15dense_hashtableINSt3__24pairIK10KeyWrapperINS1_IPK10MethodInfoP11Il2CppClassEEEjEES9_17ReflectionMapHashIS8_EN14dense_hash_mapIS9_jSD_NS9_14EqualsComparerINS0_8equal_toIS8_EEEENS0_9allocatorISB_EEE9SelectKeyESI_SK_E8min_sizeEjj
rkj:__ZN6il2cpp5utils11StringUtils11Utf16ToUtf8ERKNSt3__212basic_stringIDsNS2_11char_traitsIDsEENS2_9allocatorIDsEEEE
d8d:_MD4Managed_Decode_m4273685594
eKg:__Z50RuntimeInvoker_Int64_t3736567304_Int16_t2552820387PFvvEPK10MethodInfoPvPS4_
Chb:__ZN21LightProbeProxyVolume18HasHardwareSupportEv
bSb:__ZN26LightProbeProxyVolumeCacheC2ER13BatchRendererR15RenderLoopStats
Sya:__ZN6prcoreL31inner_stretch_argb8888_bilinearEPKNS_9InnerInfoE
Byb:__Z18Transfer_BlittableI18StreamedBinaryReadILb1EELb1E8BitFieldEvRK29SerializationCommandArgumentsR31RuntimeSerializationCommandInfo
H5:__ZNK4PPtrI11LightProbesEcvPS0_Ev
TEc:_UNITY_FT_Outline_Decompose
bGd:_Int64_System_IConvertible_ToChar_m1509243576_AdjustorThunk
oli:_GeneralNames_get_IPAddresses_m4242915644
fzf:_Decimal_op_Implicit_m3873897383
$$f:_Enumerator_Dispose_m3500272053_AdjustorThunk
Toj:_GC_init_size_map
jTa:__Z20scripting_object_new17ScriptingClassPtr
rmh:__ZL69RuntimeArray_CustomAttributesCacheGenerator_Array_Reverse_m3714848183P21CustomAttributesCache
_5e:_KeyGeneratedEventHandler_Invoke_m2527485594
zcf:_X509Extension_set_Critical_m1180944253
zZi:__ZN24dense_hashtable_iteratorINSt3__24pairIK10KeyWrapperINS1_IPK9FieldInfoP11Il2CppClassEEEjEES9_17ReflectionMapHashIS8_EN14dense_hash_mapIS9_jSD_NS9_14EqualsComparerINS0_8equal_toIS8_EEEENS0_9allocatorISB_EEE9SelectKeyESI_SK_E30advance_past_empty_and_deletedEv
rti:_Repetition_get_Expression_m2673886232
nxf:_Decimal__ctor_m1925875020_AdjustorThunk
LNe:_SerializationCallbacks__ctor_m3863304525
tLa:__ZN23PreloadManagerOperation21MustCompleteNextFrameEv
zvh:__ZL59SerializationInfo_t950877179_CustomAttributesCacheGeneratorP21CustomAttributesCache
P:Math_exp
rjg:_Vector3_Min_m1803158933
Do:FUNCTION_TABLE_iiifi
ngj:__ZN6il2cpp2os5posix13PosixAutoLockD2Ev
vki:_TlsServerSettings_set_CertificateTypes_m2047242411
Qxi:_SymmetricTransform_OFB_m3690147804
nse:_InternalEnumerator_1_MoveNext_m3713722659_AdjustorThunk
Rxc:_cff_get_advances
jEb:__ZN13MonoBehaviour9SetScriptERK4PPtrI10MonoScriptE18ScriptingObjectPtr
QWi:_RaycastHit2D_get_collider_m1549426026
Yrb:__Z18Transfer_BlittableI17RemapPPtrTransferLb0E8Vector2fEvRK29SerializationCommandArgumentsR31RuntimeSerializationCommandInfo
obj:__ZNSt3__218uninitialized_copyIPNS_4pairIK10KeyWrapperIP14Il2CppIUnknownEjEES8_EET0_T_SA_S9_
cZg:__Z77RuntimeInvoker_Void_t1185182177_Vector2U5BU5DU26_t476646542_Int32_t2950945753PFvvEPK10MethodInfoPvPS4_
o7e:_PKCS12_get_RNG_m2649456600
EMa:__ZNK10FileSystem16LastErrorMessageEv
yQf:_Array_InternalArray__Insert_TisVector3_t3722313464_m3862657277_gshared
nKh:__ZL104NativeClassAttribute_t2601352714_CustomAttributesCacheGenerator_U3CQualifiedNativeNameU3Ek__BackingFieldP21CustomAttributesCache
enf:_SecurityException__ctor_m1631242336
eNi:__ZN15dense_hashtableINSt3__24pairIK10KeyWrapperIPK11Il2CppClassEPKcEES6_N6il2cpp5utils11PointerHashIS3_EEN14dense_hash_mapIS6_S9_SE_NS6_14EqualsComparerINS0_8equal_toIS5_EEEENS0_9allocatorISA_EEE9SelectKeyESJ_SL_E14squash_deletedEv
f$c:_EventSystem_Update_m1662072334
NYc:__ZN22UnityWebRequestManager10InitializeEv
ADb:__ZN13MonoBehaviour13AwakeFromLoadE17AwakeFromLoadMode
Wph:__ZL51FileMode_t1183438340_CustomAttributesCacheGeneratorP21CustomAttributesCache
Isb:__ZL26Transfer_SimpleNativeClassI17RemapPPtrTransfer8GradientLb1EEvRK29SerializationCommandArgumentsR31RuntimeSerializationCommandInfo
J_c:_RaycasterManager_RemoveRaycasters_m3057093063
G9b:__ZN12CachedWriter9InitWriteER15CacheWriterBase
k8b:__Z21UnsignedInt64ToStringy
UVe:_GetRaycastNonAllocCallback_BeginInvoke_m3984885848
Vme:_InternalEnumerator_1_MoveNext_m4138204635_AdjustorThunk
Cpi:_PatternCompiler_BeginLink_m1295557963
JRa:__ZN14SafeBinaryRead21TransferSTLStyleArrayI13dynamic_arrayI17SortingLayerEntryLj4EEEEvRT_17TransferMetaFlags
owh:__ZL46MD5_t3177620429_CustomAttributesCacheGeneratorP21CustomAttributesCache
ACd:_GuidParser_ThrowFormatException_m3223388534
Rsi:_Group_GetAnchorInfo_m3730312864
bVh:__ZL50Graphic_t1660335611_CustomAttributesCacheGeneratorP21CustomAttributesCache
ncg:_TimeSpan_op_LessThanOrEqual_m300470010
tHe:_ContextAttribute_Freeze_m3288175579
Khf:_Interval_Merge_m3454211016_AdjustorThunk
Qda:__ZZN15DirectorManager15InitializeClassEvEN41FixedUpdateDirectorFixedUpdateRegistrator7ForwardEv
XKd:_MemoryStream_get_Position_m3733941202
vHh:__ZL96TouchScreenKeyboard_t731888065_CustomAttributesCacheGenerator_TouchScreenKeyboard_Open_m43950298P21CustomAttributesCache
Gzi:_AudioClipPlayable_Equals_m3705880618
t0b:__ZL10KeyHandleriPK23EmscriptenKeyboardEventPv
Gxd:_Slot_t3975888750_marshal_pinvoke
GIj:_glLinkProgram__wrapper
ykb:__ZN18ScriptingArguments8AddInt64Ex
Aza:__ZN6prcoreL12RemapGenericI17TexFormatARGB888815TexFormatBGR888EEvPKNS_9InnerInfoE
dlb:__ZN12HandlerChain4LockER13FileEntryData12FileLockMode
WFf:_TextInfo_get_ListSeparator_m1628160079
_Rh:__ZL77ExecuteEvents_t3484638744_CustomAttributesCacheGenerator_U3CU3Ef__mgU24cache6P21CustomAttributesCache
AZe:_Selectable_OnCanvasGroupChanged_m472903475
j9f:_EventWaitHandle_Reset_m3348053200
hAe:_Enumerator_get_Current_m2897627569_gshared
zWc:__ZN28UnityConnectScriptingClasses23CallSessionStateChangedEixxbP21ScriptingExceptionPtr
pbe:_ClientContext_get_SslStream_m1583577309
Iaj:__ZN6il2cpp6icalls8mscorlib6System13Globalization11CultureInfo35construct_internal_locale_from_nameEP17Il2CppCultureInfoP12Il2CppString
Qub:__ZL22Transfer_ManagedObjectI24GenerateTypeTreeTransferLb1EEvRK29SerializationCommandArgumentsR31RuntimeSerializationCommandInfo
PBg:__Z100RuntimeInvoker_Boolean_t97287965_RuntimeObject_Int32_t2950945753_RuntimeObject_UInt16U26_t2814738322PFvvEPK10MethodInfoPvPS4_
yZg:__Z56RuntimeInvoker_ILTokenInfo_t2325775114_Int32_t2950945753PFvvEPK10MethodInfoPvPS4_
_gd:_HMAC_get_BlockSizeValue_m455678067
IMb:__ZN15RenderNodeQueueC2E10MemLabelId
u3d:_ResourceEnumerator_FillCache_m1661715061
Q8h:_ReadOnlyCollection_1_System_Collections_IList_IndexOf_m3664838805_gshared
Axh:__ZL72SecuritySafeCriticalAttribute_t3505979402_CustomAttributesCacheGeneratorP21CustomAttributesCache
Zj:_emscripten_set_main_loop_timing
fjg:_Bounds_get_min_m3755135869
RBd:_Convert_ToUInt16_m3523269149
Tig:_Bounds_get_center_m1418449258
vva:__ZN14DataBufferGLES12RecordRenderEv
e0c:_ExecuteEvents_get_endDragHandler_m2879610446
FYb:__ZN14ImageReference10FlipImageYEv
OVi:_UsedByNativeCodeAttribute__ctor_m2647015777
ASa:__Z32TransferEnumWithNameForceIntSizeI14SafeBinaryRead13TargetEyeMaskEvRT_RT0_PKc17TransferMetaFlags
pnc:__Z14GetDefaultSkini
kF:__ZN4FMOD3DSP9setBypassEb
l0b:__Z19NormalizeWheelInputf
mad:_Graphic_DoMeshGeneration_m3548487693
i$b:__Z29StdTemplateConversionFunctionIsaEbPvR14SafeBinaryRead
sy:__ZNK4PPtrI13MonoBehaviourEcvPS0_Ev
Qqi:_Repetition__ctor_m1672362629
owc:__Z29Transfer_Blittable_ArrayFieldI8JSONReadhEvRT_R9ArrayInfoRK23StaticTransferFieldInfo
hof:_SecurityFrame_ToString_m339310712_AdjustorThunk
s_d:_TypeBuilder_create_runtime_class_m2581270900
Zke:_InternalEnumerator_1_get_Current_m3008260692_gshared
rtj:__ZN6il2cpp2os20ThreadLocalValueImpl8SetValueEPv
NTa:__ZN22RenderingCommandBuffer20CleanupCommandBufferEv
hzf:_Decimal_op_Implicit_m2299919277
drc:__Z18Transfer_BlittableI9JSONWriteLb1EtEvRK29SerializationCommandArgumentsR31RuntimeSerializationCommandInfo
TNd:_UnexceptionalStreamReader_ReadToEnd_m920589220
Jtf:_DateTime_System_IConvertible_ToType_m1242864300
sqf:_String_IndexOf_m1298810678
rk:___syscall85
POh:__ZL85GUI_t1624858472_CustomAttributesCacheGenerator_GUI_set_nextScrollStepTime_m1026410471P21CustomAttributesCache
P3h:_Mesh_GetAllocArrayFromChannel_TisVector3_t3722313464_m2332439905_gshared
PEi:__ZL25UnresolvedVirtualCall_198P12Il2CppObjectfPK10MethodInfo
NMb:__ZNSt3__26__sortIRPFbP10GUIElementS2_EPS2_EEvT0_S7_T_
_6b:__ZN16GraphicsSettings12CleanupClassEv
oVd:_ConstructorBuilder_GetILGenerator_m1750792206
g5f:_EncoderFallback_get_ReplacementFallback_m818398284
ehj:__ZN6il2cpp2os6Thread19DetachCurrentThreadEv
A$c:_EventTrigger_OnBeginDrag_m4203438710
zLi:__ZN6il2cpp2vmL21SetupInterfacesLockedEP11Il2CppClassRKNS_2os12FastAutoLockE
C5e:_PKCS1_Sign_v15_m2719206817
b1h:_Dictionary_2_Do_CopyTo_TisRuntimeObject_TisRuntimeObject_m2344529027_gshared
rz:__ZN23AnimationPlayableOutput17SetSourcePlayableEP8Playable
Hij:__ZN6il2cpp2gc16GarbageCollector22MakeDescriptorForArrayEv
v_g:__Z37RuntimeInvoker_UILineInfo_t4195266810PFvvEPK10MethodInfoPvPS4_
flg:_CullingGroup_Dispose_m782801025
bTf:_Dictionary_2_System_Collections_IDictionary_GetEnumerator_m529247385_gshared
oS:__ZN11UnityEngine15CloudWebService14DataDispatcher15SetupWebRequestEv
$Tc:__ZN11UnityEngine15PlatformWrapper13GetShaderCapsEv
nUb:__ZNSt3__211__sift_downIR26RenderDeferredObjectSorterP16RenderObjectDataEEvT0_S5_T_NS_15iterator_traitsIS5_E15difference_typeES5_
$Xd:_GenericTypeParameterBuilder_IsDefined_m98179866
X4e:_KeyPairPersistence_get_MachinePath_m3812267291
Zyd:_Stack_Peek_m2216191248
gji:_ListPool_1_U3Cs_ListPoolU3Em__0_m657844629_gshared
wtf:_DateTime_System_IConvertible_ToDecimal_m1044850612_AdjustorThunk
I7b:__ZN21FixedBehaviourManager6UpdateEv
tcc:__ZN9Transform9SetParentEPS_NS_15SetParentOptionE
L4:__ZN19ShaderPropertySheet8SetFloatEN9ShaderLab16FastPropertyNameEfNS_8SetFlagsE
tgb:__ZN19RuntimeSceneManager24BeginIntegrateMainThreadEP10UnityScene
Vde:_TlsServerCertificate_ProcessAsSsl3_m1306583193
Qhj:__ZNSt3__2plIcNS_11char_traitsIcEENS_9allocatorIcEEEENS_12basic_stringIT_T0_T1_EERKS9_S6_
UMd:_StringReader_CheckObjectDisposedException_m3796163530
Gja:__ZN9ShaderLab20SerializedSubProgramaSERKS0_
lzj:_roundf
tDe:_Dictionary_2_pick_value_m4268517353_gshared
Rqd:_Byte_System_IConvertible_ToSingle_m324484566_AdjustorThunk
Uyf:_Decimal_op_Explicit_m2848387298
F_f:_KeyValuePair_2_ToString_m1238786018_gshared
Xs:__ZN8Animator15SetPrepareStageEv
LE:__ZN8AnimatorC2E10MemLabelId18ObjectCreationMode
ALi:__ZN6il2cpp2vmL24SetupTypeHierarchyLockedEP11Il2CppClassRKNS_2os12FastAutoLockE
u0b:__ZL11TextHandleriPK23EmscriptenKeyboardEventPv
RKe:_SoapFieldAttribute_get_XmlElementName_m2203304026
MKc:_destroy_face
TEj:_glBlendEquationSeparate__wrapper
Cwc:__ZN5physx19PxAllocatorCallbackD2Ev
nqj:__ZN6il2cpp6icalls8mscorlib6System8Security12Cryptography24RNGCryptoServiceProvider13RngInitializeEP11Il2CppArray
YEh:__ZL68UsedByNativeCodeAttribute_t1703770351_CustomAttributesCacheGeneratorP21CustomAttributesCache
aM:__ZN20SoundChannelInstance7setMuteEb
WBg:__Z81RuntimeInvoker_Void_t1185182177_RuntimeObject_Int32_t2950945753_Int32_t2950945753PFvvEPK10MethodInfoPvPS4_
fYa:__ZN4PPtrI5LightE8TransferI19StreamedBinaryWriteILb0EEEEvRT_
t1g:_List_1__cctor_m972674764_gshared
DRd:_NumberFormatter_NumberToString_m3906556024
Azb:__Z19TransferField_ArrayI18StreamedBinaryReadILb1EE27Converter_SimpleNativeClassI17AnimationCurveTplIfEEEvRK23StaticTransferFieldInfoR31RuntimeSerializationCommandInfoRT0_
_va:__ZN18GfxFramebufferGLES22MakeCurrentFramebufferENS_7BuiltinE
Blj:__ZN6il2cpp2vm12MarshalAlloc4FreeEPv
j7:__ZN12CachedReader4ReadEPvj
Y2d:_TypeFilter_EndInvoke_m998903841
P2c:_StandaloneInputModule_ProcessMouseEvent_m2923582521
jTf:_KeyValuePair_2__ctor_m1794021352_gshared
F1e:_SimpleCollator_MatchesForwardCore_m850743967
bRb:__Z24CalculateLightShadowFadeRK6CamerafffR8Vector4f
yaa:__ZN19RuntimeSceneManagerD2Ev
TLh:__ZL77DeallocateOnJobCompletionAttribute_t3131681843_CustomAttributesCacheGeneratorP21CustomAttributesCache
nma:__ZN13dynamic_arrayIPN9ShaderLab4PassELj4EE9push_backERKS2_
mDf:_CCGregorianCalendar_GetMonth_m1547203696
ET:__ZN11UnityEngine15CloudWebService25WebRequestDownloadHandler17OnCompleteContentEv
Rya:__ZN6prcore17GetIntegerBlitterE13TextureFormatS0_N14ImageReference8BlitModeE
soj:_GC_print_block_descr
Q_i:__ZN6il2cpp2gc19AppendOnlyGCHashMapINSt3__24pairIPK11Il2CppImageP11Il2CppClassEEP22Il2CppReflectionModule17ReflectionMapHashIS9_ENS2_8equal_toIS9_EEE11TryGetValueERKS9_PSB_
Oph:__ZL51Directory_t828876208_CustomAttributesCacheGeneratorP21CustomAttributesCache
mod:_SimpleEnumerator_Reset_m2182001888
tWg:__Z86RuntimeInvoker_Int32_t2950945753_Vector2_t2156229523_Vector2_t2156229523_RuntimeObjectPFvvEPK10MethodInfoPvPS4_
pec:__ZN9BlobWrite14ReduceCopyImplERK14ReduceCopyDataj
_8:__ZNSt3__26__treeI19RepeatingLogMessageNS_4lessIS1_EE13stl_allocatorIS1_L18MemLabelIdentifier73ELi16EEE12__find_equalIS1_EERPNS_16__tree_node_baseIPvEESD_RKT_
MP:__ZN11AudioSource18IsPlayingScriptingEv
P4e:_KeyBuilder_IV_m2230195376
JDj:_glShaderSource__wrapper
wOa:__ZN25MultiBlocksMemoryFileData17AdjustBlocksCountEj
_7i:__ZNSt3__214__split_bufferIN6il2cpp2vm22EmbeddedResourceRecordERNS_9allocatorIS3_EEED2Ev
fJc:__ZN13TextRendering4Font8TransferI24GenerateTypeTreeTransferEEvRT_
Xra:__ZN9GfxDevice15EndProfileEventEPN9profiling6MarkerE
Kfc:__Z27CullingGroup_CUSTOM_DisposeP12Il2CppObject
I7i:__ZN6il2cpp6icalls8mscorlib6SystemL23CheckWideningConversionEjjj
ZWc:__ZNSt3__26vectorIP19BaseConnectSettings13stl_allocatorIS2_L18MemLabelIdentifier6ELi16EEE21__push_back_slow_pathIKS2_EEvRT_
sMb:__ZN13ComputeShader15SetTextureParamEjRKN9ShaderLab16FastPropertyNameE9TextureID16TextureDimension
Due:_Comparer_1__ctor_m319670016_gshared
zm:_glStencilMask
Ehj:__ZN6il2cpp2os10ThreadImpl16GetCurrentThreadEv
c1d:_MonoMethod_GetBaseDefinition_m2844667474
n0b:__ZN15GUIEventManager10QueueEventERK10InputEvent
ach:_Collection_1_Clear_m1300437781_gshared
xih:_Collection_1_Contains_m1707523067_gshared
d4d:_DecimalConstantAttribute__ctor_m3583301917
Leh:_Collection_1_System_Collections_ICollection_get_IsSynchronized_m1640823718_gshared
Unj:_GC_push_conditional_with_exclusions
nwe:_Enumerator_System_Collections_IDictionaryEnumerator_get_Entry_m2772123357_AdjustorThunk
DJe:_MethodCallDictionary__ctor_m2167303393
SB:__ZN12_GLOBAL__N_121ProcessAnimationBeginER35AnimationPlayableEvaluationConstantR32AnimationPlayableEvaluationInputR33AnimationPlayableEvaluationOutput
Kzh:__ZL80Convert_t2465617642_CustomAttributesCacheGenerator_Convert_ToDecimal_m2858622624P21CustomAttributesCache
ynj:_GC_make_disappearing_links_disappear
qwj:_strrchr
Jkg:_Component_GetComponentInParent_m779177818
BFe:__ZN21InterfaceFuncInvoker1IP8String_tS1_E6InvokeEjP11Il2CppClassP12Il2CppObjectS1_
hRf:_Dictionary_2_System_Collections_ICollection_get_SyncRoot_m2069913662_gshared
p3c:_UIBehaviour_IsDestroyed_m3033055982
PMg:__Z109RuntimeInvoker_Void_t1185182177_RuntimeObject_RuntimeObject_SByte_t1669577662_Int32_t2950945753_RuntimeObjectPFvvEPK10MethodInfoPvPS4_
yyg:_Enumerator_Reset_m39541243
IPe:_InputField_get_readOnly_m3111985574
sYa:__ZN14RenderSettings27UpdateIndirectSpecularColorEv
Nog:_Logger_get_logHandler_m1335645353
jeb:__ZN14PlayerSettings8TransferI18StreamedBinaryReadILb0EEEEvRT_
rUi:__ZN6il2cpp6icalls8mscorlib6System8MonoType16GetMethodsByNameEP20Il2CppReflectionTypeP12Il2CppStringibS5_
Quh:__ZL73ObjRef_t2141158884_CustomAttributesCacheGenerator_U3CU3Ef__switchU24map26P21CustomAttributesCache
YSh:__ZL102PointerEventData_t3807901092_CustomAttributesCacheGenerator_PointerEventData_set_pointerId_m1888344330P21CustomAttributesCache
YNh:__ZL88AudioClip_t3680889665_CustomAttributesCacheGenerator_AudioClip_get_ambisonic_m3815052287P21CustomAttributesCache
cTe:_U3CDelayedSetDirtyU3Ec__Iterator0__ctor_m3936335621
P5:__ZN4PPtrI10GameObjectE8TransferI14SafeBinaryReadEEvRT_
hMh:__ZL106PlayableAsset_t3219022681_CustomAttributesCacheGenerator_PlayableAsset_Internal_CreatePlayable_m2550417712P21CustomAttributesCache
C9f:_Monitor_Monitor_wait_m3706677354
Lid:_RijndaelTransform__cctor_m2439033240
KIb:__ZNSt3__27__sort3IRNS_4lessIN22BuiltinResourceManager8ResourceEEEPS3_EEjT0_S7_S7_T_
Umh:__ZL175U3CGetEnumeratorU3Ec__Iterator0_t1202911786_CustomAttributesCacheGenerator_U3CGetEnumeratorU3Ec__Iterator0_System_Collections_Generic_IEnumeratorU3CTU3E_get_Current_m322251035P21CustomAttributesCache
tBi:__ZL24UnresolvedVirtualCall_14P12Il2CppObject25RSAParameters_t1728406613PK10MethodInfo
CHc:_ps_hints_t2mask
g2h:_LayoutGroup_SetProperty_TisVector2_t2156229523_m2721164497_gshared
EIf:_Array_InternalArray__ICollection_Remove_TisMonoResource_t4103430009_m238733686_gshared
pHd:_IntPtr_ToString_m1831665121
v_e:_Slider_Set_m1476104429
_bd:_Image_set_fillClockwise_m2210525152
Uab:__ZN10BlendShape8TransferI19StreamedBinaryWriteILb0EEEEvRT_
QF:__Z32TransferEnumWithNameForceIntSizeI14SafeBinaryReadN10SampleClip8LoadTypeEEvRT_RT0_PKc17TransferMetaFlags
gHd:__Z21il2cpp_codegen_sizeofP11Il2CppClass
KCa:__Z19GetTimeSinceStartupv
ycd:_Image_AddQuad_m2161647989
v_c:_BaseInputModule_DeactivateModule_m856719157
uhj:__ZN6il2cpp2os10ThreadImpl11SetPriorityENS0_14ThreadPriorityE
K1f:_Enumerator_System_Collections_IEnumerator_Reset_m2953002685_gshared
NDg:__Z50RuntimeInvoker_Int64_t3736567304_Int32_t2950945753PFvvEPK10MethodInfoPvPS4_
YGc:_TT_Load_Composite_Glyph
_ra:__ZN9GfxDevice16DeleteTimerQueryEP13GfxTimerQuery
G8g:_List_1_Insert_m1695211546_gshared
IRg:__Z49RuntimeInvoker_Void_t1185182177_Color_t2555686324PFvvEPK10MethodInfoPvPS4_
f$a:__ZN9ShaderLab11shaderprops9GetTexEnvEPK19ShaderPropertySheetS3_NS_16FastPropertyNameE16TextureDimensionb
c3g:_List_1_Sort_m3232912161_gshared
vPb:__ZN29RenderNodeQueuePrepareContextC2Ev
n4i:_il2cpp_gc_disable
Ska:__ZN9ShaderLab20SerializedSubProgram16TextureParameter8TransferI24GenerateTypeTreeTransferEEvRT_
Ggd:_DSASignatureDeformatter_SetKey_m2999549245
Nqj:__ZN6il2cpp2os11MutexHandle4WaitEb
jpa:__ZN9GfxDevice19SaveStereoConstantsEv
Mqj:__ZN6il2cpp2os11MutexHandle4WaitEj
fdc:__ZL34GetComponentsImplementationRecurseILb1ELi1ELi1EEbR10GameObjectbRK17CompareParametersRK39GetComponentsImplementation_ReturnValue
XEg:__Z114RuntimeInvoker_Boolean_t97287965_RuntimeObject_RuntimeObject_Int32_t2950945753_Int32_t2950945753_Int32_t2950945753PFvvEPK10MethodInfoPvPS4_
GUd:_AssemblyBuilder_GetTypes_m3415680380
KAa:__ZN6prcoreL17RemapGenericFloatI15TexFormatRGHalf18TexFormatARGBFloatEEvPKNS_9InnerInfoE
Wzf:_StackFrame_GetMethod_m1395840764
FZa:__ZNK13RenderTexture13GetDataHeightEv
PGb:__Z18SimulateMouseInputi
JLb:__ZN13RenderManager23AddRemoveCamerasDelayedEv
isc:__ZN9JSONWrite8TransferI13dynamic_arrayIdLj8EEEEvRT_PKc17TransferMetaFlags
oLa:__ZN23PreloadManagerOperation11GetPriorityEv
uSe:_LayoutElement_OnEnable_m1760066426
Kpc:__ZN5Unity9rapidjson6WriterI16TempBufferWriterNS0_4UTF8IcEES4_13JSONAllocatorE11WriteUint64Ey
Qod:_BitConverter__cctor_m3841343255
hyf:_Decimal_Compare_m3062820418
Rhf:_IntervalCollection_GetMetaCollection_m4029522214
v$c:_EventTrigger_OnDeselect_m1919608102
mHi:_TextGenerator_get_characterCount_m864136654
vig:_AsyncOperation_t1445031843_marshal_pinvoke_cleanup
pbg:_TimeSpan__ctor_m2047388489_AdjustorThunk
rXb:__ZN13RenderTexture8SetWidthEi
N3b:__ZNK28RectTransformPropertyBinding12SetPPtrValueERKN11UnityEngine9Animation10BoundCurveEi
_Ib:__ZN18FrameTimingManager18GetVSyncsPerSecondEv
GAb:__Z18Transfer_BlittableI18StreamedBinaryReadILb0EELb0EfEvRK29SerializationCommandArgumentsR31RuntimeSerializationCommandInfo
ebb:__ZN10MeshFilterD0Ev
_Gc:_UNITY_FT_GlyphLoader_CheckSubGlyphs
ske:_InternalEnumerator_1__ctor_m1341209356_AdjustorThunk
GRb:__Z25SetupObjectBakedOcclusionbRK15SharedLightDataRK26SharedLightmapSettingsDataRK15LightmapIndicesR17ShaderPassContext
gdh:_Collection_1_System_Collections_ICollection_CopyTo_m1516601228_gshared
jeh:_Collection_1_CopyTo_m4278237485_gshared
ngh:_Collection_1_Add_m3860636938_gshared
kBi:__ZL23UnresolvedVirtualCall_5P12Il2CppObjectsPK10MethodInfo
zD:__ZN4PPtrI6AvatarE8TransferI19StreamedBinaryWriteILb0EEEEvRT_
N2f:_List_1_Insert_m4050947056_gshared
T4:__ZN9ShaderLab16FastPropertyName4InitEPKc
coe:_InternalEnumerator_1__ctor_m39232262_AdjustorThunk
qOg:__Z48RuntimeInvoker_OperatingSystemFamily_t1868066375PFvvEPK10MethodInfoPvPS4_
Gyh:__ZL61Thread_t2300836069_CustomAttributesCacheGenerator_local_slotsP21CustomAttributesCache
X2b:__Z13RegisterClassIN2UI13RectTransformEEvv
_3h:_Collection_1_System_Collections_IEnumerable_GetEnumerator_m3596816767_gshared
s6b:__ZL31MeshRendererTransformChangedJobP13BoundsJobDatajPK23TransformAccessReadOnlyPKyj
Duc:__ZN8JSONRead21TransferSTLStyleArrayI31ArrayOfManagedObjectsTransfererEEvRT_17TransferMetaFlags
Ard:_Char_System_IConvertible_ToByte_m2347554595_AdjustorThunk
VKh:__ZL59TooltipAttribute_t3957072629_CustomAttributesCacheGeneratorP21CustomAttributesCache
k7a:__ZN10VertexData8TransferI17RemapPPtrTransferEEvRT_
gZa:__ZN13RenderTexture9SetMipMapEb
vNi:__ZN15dense_hashtableINSt3__24pairIK10KeyWrapperIPK11Il2CppClassEPKcEES6_N6il2cpp5utils11PointerHashIS3_EEN14dense_hash_mapIS6_S9_SE_NS6_14EqualsComparerINS0_8equal_toIS5_EEEENS0_9allocatorISA_EEE9SelectKeyESJ_SL_E13set_empty_keyERKSA_
urf:_String_CreateString_m860434552
kea:__Z18GetDirectorManagerv
dAe:_Enumerator_System_Collections_IEnumerator_Reset_m278261807_AdjustorThunk
Pch:_Collection_1_GetEnumerator_m1824095167_gshared
xsh:__ZL107CriticalFinalizerObject_t701527852_CustomAttributesCacheGenerator_CriticalFinalizerObject__ctor_m3245424448P21CustomAttributesCache
JFd:_Int32_Equals_m2976157357_AdjustorThunk
Ojc:__Z38Transform_CUSTOM_INTERNAL_get_rotationP12Il2CppObjectP11Quaternionf
PKe:_SoapAttribute_get_XmlNamespace_m859394681
F_i:__ZNK15dense_hashtableINSt3__24pairIK10KeyWrapperINS1_IPK10MethodInfoP11Il2CppClassEEEjEES9_17ReflectionMapHashIS8_EN14dense_hash_mapIS9_jSD_NS9_14EqualsComparerINS0_8equal_toIS8_EEEENS0_9allocatorISB_EEE9SelectKeyESI_SK_E5beginEv
ioi:_X509ExtensionCollection_System_Collections_IEnumerable_GetEnumerator_m1475785462
aua:__ZN7ApiGLES19UploadBufferSubDataEjN2gl12BufferTargetEllPKv
ZJi:_SkeletonBone_t4134054672_marshal_pinvoke_cleanup
wga:__ZNSt3__216__rotate_forwardINS_11__wrap_iterIPN4core12basic_stringIcNS2_20StringStorageDefaultIcEEEEEEEET_S9_S9_S9_
Wyg:_Vector2_GetHashCode_m3916089713
hca:__ZdaPv
jwg:_SendMouseEvents_HitTestLegacyGUI_m579942228
KQd:_MulticastDelegate_Equals_m2502840627
Tkf:_SymmetricAlgorithm_set_KeySize_m3805756466
Xqd:_Byte_System_IConvertible_ToUInt32_m1049546902_AdjustorThunk
S3c:_U3CDelayUpdateU3Ec__Iterator0_System_Collections_IEnumerator_get_Current_m2906633870
TNg:__Z53RuntimeInvoker_Double_t594665363_Interval_t1802865632PFvvEPK10MethodInfoPvPS4_
VIb:__Z21InitializeBatchedJobsv
mIi:_CanvasGroup_get_blocksRaycasts_m1805542303
Bjf:_SHA1Internal_ProcessBlock_m1991889327
Kpb:__Z19TransferField_ArrayI14SafeBinaryRead27Converter_SimpleNativeClassI8GUIStyleEEvRK23StaticTransferFieldInfoR31RuntimeSerializationCommandInfoRT0_
UKh:__ZL60PropertyAttribute_t3677895545_CustomAttributesCacheGeneratorP21CustomAttributesCache
Vaj:__ZN15dense_hashtableINSt3__24pairIK10KeyWrapperIP14Il2CppIUnknownEjEES5_N6il2cpp5utils11PointerHashIS3_EEN14dense_hash_mapIS5_jSB_NS5_14EqualsComparerINS0_8equal_toIS4_EEEENS0_9allocatorIS7_EEE9SelectKeyESG_SI_ED2Ev
I$h:_Array_Sort_TisRuntimeObject_TisRuntimeObject_m1685639929_gshared
wqj:__ZN6il2cpp5utils10MemoryPoolC2Ev
PXa:__ZN14RenderSettings5ResetEv
S1b:__ZN6Sprite9BindAtlasERK4PPtrI11SpriteAtlasE
Soc:__ZN5Unity9rapidjson12GenericValueINS0_4UTF8IcEE13JSONAllocatorE10FindMemberIS4_EENS0_21GenericMemberIteratorILb0ES3_S4_EERKNS1_IS3_T_EE
Koe:_InternalEnumerator_1_System_Collections_IEnumerator_get_Current_m3892960115_AdjustorThunk
H9i:__ZNSt3__212basic_stringIDsNS_11char_traitsIDsEENS_9allocatorIDsEEE6appendEPKDsj
Kxi:_SymmetricTransform_Finalize_m4129642865
xtd:_ArrayList_Clone_m2682741233
khd:_HMAC_HashCore_m3684104066
qpc:__ZN5Unity9rapidjson13GenericReaderINS0_4UTF8IcEES3_13JSONAllocatorE11ParseNumberILj1ENS0_25GenericInsituStringStreamIS3_EENS0_15GenericDocumentIS3_S4_S4_EEEEvRT0_RT1_
Zlh:__ZL88RuntimeArray_CustomAttributesCacheGenerator_Array_CreateInstance_m1027597705____lengths1P21CustomAttributesCache
Pfh:_Collection_1_RemoveItem_m2911050674_gshared
NBg:__Z79RuntimeInvoker_UInt16_t2177724958_RuntimeObject_Int32_t2950945753_RuntimeObjectPFvvEPK10MethodInfoPvPS4_
ohj:__ZN6il2cpp2os10ThreadImplD2Ev
VFf:_TextInfo_System_Runtime_Serialization_IDeserializationCallback_OnDeserialization_m1492046432
lqc:__ZN8Gradient8TransferI9JSONWriteEEvRT_
bhb:__ZN21RendererUpdateManager18OncePerFrameUpdateER13RendererScene
_Ai:_AudioSource_set_clip_m31653938
qQh:__ZL81TextEditor_t2759855366_CustomAttributesCacheGenerator_TextEditor__ctor_m242049450P21CustomAttributesCache
uzd:_Convert_ToBoolean_m2833621053
WKa:__ZNK12TLSAllocatorI14StackAllocatorE22GetAllocatedMemorySizeEv
RDh:__ZL62WebHeaderCollection_t1942268960_CustomAttributesCacheGeneratorP21CustomAttributesCache
b3:__ZN17RemapPPtrTransfer12PushMetaFlagE17TransferMetaFlags
fXf:_EqualityComparer_1_System_Collections_IEqualityComparer_GetHashCode_m2138064395_gshared
$M:__ZNK7WeakPtrI20SoundChannelInstanceE10SharedData9GetRawPtrEv
Qkb:__ZN12HandlerChain4NameEv
L6c:_FloatTween_t1274330004_marshal_pinvoke
gDd:_Int16_System_IConvertible_ToType_m3672347013_AdjustorThunk
Fqf:_String_LastIndexOf_m578673845
xrb:__Z29Transfer_Blittable_ArrayFieldI14SafeBinaryReadN4math12int3_storageEEvRT_R9ArrayInfoRK23StaticTransferFieldInfo
Tnf:_SecurityException_ToString_m3228070608
SEd:_Int16_ToString_m2013897809
aXg:__Z60RuntimeInvoker_Int32_t2950945753_ResourceCacheItem_t51292791PFvvEPK10MethodInfoPvPS4_
Vnf:_String_Substring_m2848979100
FRc:__Z44Register_UnityEngine_CanvasRenderer_get_cullv
BKi:__ZN15dense_hashtableINSt3__24pairIK10KeyWrapperIPK22Il2CppGenericParameterEP11Il2CppClassEES6_N6il2cpp5utils11PointerHashIS4_EEN14dense_hash_mapIS6_S9_SE_NS6_14EqualsComparerINS0_8equal_toIS5_EEEENS0_9allocatorISA_EEE9SelectKeyESJ_SL_ED2Ev
B3h:_ScriptableObject_CreateInstance_TisRuntimeObject_m1552711675_gshared
Qnf:_SecurityException_get_PermissionType_m2237538728
LCi:__ZL24UnresolvedVirtualCall_86P12Il2CppObjectxS0_xPK10MethodInfo
K$b:__Z29StdTemplateConversionFunctionIbbEbPvR14SafeBinaryRead
iTc:__ZN11UnityEngine7Connect17XRDeviceInfoEvent12XRDeviceInfoD2Ev
Mnb:__Z44InitializeTransferFunctionScriptingTraitsForI17RemapPPtrTransferEvR31TransferFunctionScriptingTraits
E3b:__ZNSt3__26vectorI16MessageForwarder13stl_allocatorIS1_L18MemLabelIdentifier7ELi8EEE6resizeEj
$df:_X509Chain_SelectBestFromCollection_m1068759221
Txi:_SymmetricTransform_TransformBlock_m851059707
glh:__ZL68IntPtr_t_CustomAttributesCacheGenerator_IntPtr_ToPointer_m4157623054P21CustomAttributesCache
i4h:_Collection_1_System_Collections_IList_get_IsReadOnly_m2978442176_gshared
cah:_Enumerator_System_Collections_IEnumerator_Reset_m2261065994_AdjustorThunk
lYe:_ScrollRect_get_verticalNormalizedPosition_m3693218937
rgb:__ZN18LoadSceneOperation21MustCompleteNextFrameEv
x_e:_Slider_UpdateDrag_m1102107039
G1d:_MonoMethodInfo_get_method_info_m88651774
bM:__ZNK12AudioManager16GetAudioListenerEv
dFd:_Int32_System_IConvertible_ToDateTime_m1824716955
nRf:_Dictionary_2_System_Collections_Generic_ICollectionU3CSystem_Collections_Generic_KeyValuePairU3CTKeyU2CTValueU3EU3E_CopyTo_m331407443_gshared
_dd:_RuntimeTypeHandle__ctor_m3315980708_AdjustorThunk
dxh:__ZL69IIdentityPermissionFactory_t3268650966_CustomAttributesCacheGeneratorP21CustomAttributesCache
THi:_Canvas_set_overrideSorting_m4088794420
YWb:__ZNSt3__26vectorI11CameraStackNS_9allocatorIS1_EEE8__appendEj
UUf:_DefaultComparer_Equals_m2585095694_gshared
Mog:_Logger_set_filterLogType_m3622751173
whi:_UnityEvent_1_GetDelegate_m25714567_gshared
su:__ZN7mecanim9animation12GetHumanPoseERKNS0_18ClipMuscleConstantEPKNS0_10ValueDeltaERNS_5human9HumanPoseE
iw:__ZN22AnimationMixerPlayable17ProcessRootMotionEP35AnimationPlayableEvaluationConstantP32AnimationPlayableEvaluationInputP33AnimationPlayableEvaluationOutput
jxb:__Z29Transfer_Blittable_ArrayFieldI19StreamedBinaryWriteILb0EEjEvRT_R9ArrayInfoRK23StaticTransferFieldInfo
Z0:__Z13GetFileSystemv
kba:__ZNK5Unity4Type21FindAllDerivedClassesER13dynamic_arrayIPKS0_Lj4EENS0_17TypeFilterOptionsE
dca:__ZN13RuntimeStaticI15GUIEventManagerLb0EE16StaticInitializeEPv
QBb:__ZL12InvokeMethodI18StreamedBinaryReadILb0EEEvRK29SerializationCommandArgumentsR31RuntimeSerializationCommandInfo
uhg:_Version_CompareTo_m3146217210
yde:_TlsClientCertificate_FindParentCertificate_m3844441401
Hti:_Uri_ParseAsUnixAbsoluteFilePath_m1476768041
xOf:_Array_InternalArray__ICollection_CopyTo_TisKeyValuePair_2_t71524366_m1056941380_gshared
Jcg:_Type_get_IsClass_m589177581
Vcg:_Type_get_IsSystemType_m624798880
Qzb:__Z29Transfer_Blittable_ArrayFieldI18StreamedBinaryReadILb1EE5RectTIfEEvRT_R9ArrayInfoRK23StaticTransferFieldInfo
enb:__ZN19ShaderPropertySheet9SetMatrixEN9ShaderLab16FastPropertyNameERK10Matrix4x4fNS_8SetFlagsE
p3a:__Z29GetTextureSizeAllowedMultiple13TextureFormat
$xf:_Decimal_Subtract_m835601464
qKb:__ZZ23InitPlayerLoopCallbacksvEN52InitializationAsyncUploadTimeSlicedUpdateRegistrator7ForwardEv
bNg:__Z73RuntimeInvoker_Boolean_t97287965_RuntimeObject_IPv6AddressU26_t3285609463PFvvEPK10MethodInfoPvPS4_
Xfb:__ZNSt3__26vectorIN4core12basic_stringIcNS1_20StringStorageDefaultIcEEEE13stl_allocatorIS5_L18MemLabelIdentifier13ELi16EEE8__appendEj
Y7b:__ZN21IntermediateRenderers3AddEP20IntermediateRenderer
y3i:_il2cpp_array_element_size
LOd:_MissingMemberException__ctor_m2571045846
Pjh:__ZL62ComVisibleAttribute_t1362837655_CustomAttributesCacheGeneratorP21CustomAttributesCache
q3g:_List_1_System_Collections_IEnumerable_GetEnumerator_m1824431956_gshared
cvg:_RectTransform_INTERNAL_set_sizeDelta_m188783163
Wf:_glCheckFramebufferStatus
Tpj:__ZN6il2cpp2os11EventHandle4WaitEv
ohe:_U3CGetEnumeratorU3Ec__Iterator0_System_Collections_Generic_IEnumeratorU3CTU3E_get_Current_m9057020_gshared
SU:__ZN19CloudServiceHandler20StartEventDispatcherERKN11UnityEngine15CloudWebService18CloudServiceConfigERNS1_23WebRequestRestHeaderMapE
Mad:_GraphicRaycaster__ctor_m646559428
aae:_CipherSuite_get_CipherAlgorithmType_m137858741
svd:_BitArrayEnumerator_get_Current_m4220391712
ZSd:__Z37il2cpp_codegen_get_executing_assemblyPK10MethodInfo
Dvg:_Transform_get_parent_m835071599
Tbh:_Collection_1_System_Collections_IList_Remove_m3686118478_gshared
okb:__ZN9Transform23VirtualRedirectTransferER17RemapPPtrTransfer
faf:_IPAddress_get_ScopeId_m4237202723
vr:__ZN4core8hash_mapIN11UnityEngine9Animation14GenericBindingENS2_10BoundIndexENS2_25GenericBindingHashFunctorENS2_30GenericBindingValueArrayUniqueEE4growEi
Ft:__ZN21AnimationClipPlayable7SetTimeEd
Uqi:_ExpressionCollection_get_Item_m3510736379
VUh:__ZL62FontData_t746620069_CustomAttributesCacheGenerator_m_AlignmentP21CustomAttributesCache
o2c:_StandaloneInputModule_get_inputActionsPerSecond_m3946624274
G8f:_UTF8Encoding_InternalGetCharCount_m82458470
jzg:_Vector2__cctor_m2108982652
DQg:__Z72RuntimeInvoker_Boolean_t97287965_Vector4_t3319028937_Vector4_t3319028937PFvvEPK10MethodInfoPvPS4_
ur:__ZN4core8hash_mapIN11UnityEngine9Animation14GenericBindingENS2_10BoundIndexENS2_25GenericBindingHashFunctorENS2_30GenericBindingValueArrayUniqueEE4growEv
Lre:_InternalEnumerator_1_MoveNext_m2734554195_AdjustorThunk
Yaj:__ZN14dense_hash_mapI10KeyWrapperIP14Il2CppIUnknownEjN6il2cpp5utils11PointerHashIS1_EENS3_14EqualsComparerINSt3__28equal_toIS2_EEEENS9_9allocatorINS9_4pairIKS3_jEEEEE15set_deleted_keyERSF_
xba:__ZN22BuiltinResourceManager16StaticInitializeEPv
U6i:__ZN6il2cpp2gc9AllocatorIP12Il2CppThreadE10deallocateEPvj
j1i:__ZN13Il2CppHashMapIPK14Il2CppAssemblyPK22Il2CppMonoAssemblyNameN6il2cpp5utils11PointerHashIS1_EENSt3__28equal_toIS2_EENSA_9allocatorINSA_4pairIK10KeyWrapperIS2_ES5_EEEEEC2EjRKS9_RKSC_
Xld:_DelegatePInvokeWrapper_AppDomainInitializer_t682969308
e0:__ZN8Remapper6RemoveEi
Ygi:_UnityEvent_1__ctor_m3777630589_gshared
YOa:__ZN10MemoryFile4ReadEyPvPy
H5f:_Encoding_GetBytes_m3148649984
wLc:__ZL36CleanupTextRenderingScriptingClassesv
oXb:__ZN15ReflectionProbe17UseRendererResultEP13ProbeRenderer
blc:__Z34Mesh_CUSTOM_SetArrayForChannelImplP12Il2CppObject30InternalScriptingShaderChannel34InternalScriptingVertexChannelTypeiP11Il2CppArrayi
X_:__Z32scripting_class_get_nested_types17ScriptingClassPtrRNSt3__26vectorIS_13stl_allocatorIS_L18MemLabelIdentifier1ELi16EEEE
uIi:_CanvasRenderer_INTERNAL_CALL_EnableRectClipping_m3318097918
Yfg:_UInt64_System_IConvertible_ToDecimal_m806594027_AdjustorThunk
iwe:_Enumerator_System_Collections_IEnumerator_get_Current_m361750367_AdjustorThunk
Dhi:_UnityEvent_1_GetDelegate_m274387680_gshared
PLe:_RealProxy_InternalGetTransparentProxy_m1765012608
v0g:_List_1__ctor_m3395838871_gshared
H4h:_Collection_1_IsFixedSize_m3698021882_gshared
WUf:_DefaultComparer_GetHashCode_m2651362016_gshared
Eli:_PKCS12__ctor_m1854440921
k$h:_Array_Resize_TisCustomAttributeNamedArgument_t287865710_m885566878_gshared
VKg:__Z85RuntimeInvoker_RuntimeObject_RuntimeObject_SByte_t1669577662_ExceptionU26_t3600731591PFvvEPK10MethodInfoPvPS4_
DTf:_DefaultComparer__ctor_m2556554241_gshared
VD:__ZN11UnityEngine9Animation28GenericAnimationBindingCache25RegisterIAnimationBindingEPKN5Unity4TypeEiP17IAnimationBinding
Imh:__ZL66RuntimeArray_CustomAttributesCacheGenerator_Array_Sort_m2537416106P21CustomAttributesCache
JRc:__Z70RectTransformUtility_CUSTOM_INTERNAL_CALL_RectangleContainsScreenPointP12Il2CppObjectRK13Vector2fIcallS0_
VId:_DirectoryInfo__ctor_m481305441
off:_X509ExtensionCollection_get_SyncRoot_m2667861032
rLi:__ZN6il2cpp2vm5Class15GetElementClassEP11Il2CppClass
t9:__ZN10MemoryPoolC2E10MemLabelIdbPKciii
Dgh:_Collection_1_SetItem_m941095285_gshared
QVb:__Z40ProcessCameraIndexListIsNodeVisibleInOutRK22SceneCullingParametersPK9SceneNodePK4AABBR9IndexList
Owi:_GUIScrollGroup_SetHorizontal_m291416666
vVa:__ZN16GraphicsSettings8TransferI17RemapPPtrTransferEEvRT_
jPc:__ZN2UI6Canvas13UpdateBatchesEb
Xbf:_X509BasicConstraintsExtension_Decode_m120598446
oz:__ZNK23AnimationPlayableOutput11DerivesFromE17ScriptingClassPtr
p2a:__ZN7Texture19SupportsAsyncUploadI19StreamedBinaryWriteILb0EEEEbRT_
pQg:__Z49RuntimeInvoker_Boolean_t97287965_Rect_t2360479859PFvvEPK10MethodInfoPvPS4_
xJh:__ZL101Transform_t3600365921_CustomAttributesCacheGenerator_Transform_INTERNAL_get_localRotation_m1111330565P21CustomAttributesCache
AKg:__Z51RuntimeInvoker_UInt32_t2560061978_Int16_t2552820387PFvvEPK10MethodInfoPvPS4_
Yoa:__ZNK13GfxDeviceGLES12GetWireframeEv
$xi:_DelegatePInvokeWrapper_Action_t1264377477
HPh:__ZL64EventType_t3528516131_CustomAttributesCacheGenerator_dragUpdatedP21CustomAttributesCache
AUc:__ZN11UnityEngine7Connect13ConfigHandler12GetListenersERKN4core12basic_stringIcNS2_20StringStorageDefaultIcEEEE
Gqa:__ZN9GfxDevice18AllocRenderSurfaceEb
srd:_Char__cctor_m2787437263
L1b:__ZN10TagManager32GetSortingLayerUniqueIDFromValueEi
D3c:_AspectRatioFitter_get_rectTransform_m2996235303
K_:__ZL27CleanupCoreScriptingClassesv
SEf:_DateTimeFormatInfo_get_IsReadOnly_m1173781646
nFf:_NumberFormatInfo_get_PercentPositivePattern_m1800841633
Jad:_Graphic_UnregisterDirtyMaterialCallback_m2707090617
nve:_Comparer_1_System_Collections_IComparer_Compare_m1313384821_gshared
wTe:_LayoutRebuilder_GetHashCode_m1943075341
tYd:_GenericTypeParameterBuilder_MakeGenericType_m3048165991
Shc:__Z26AnimationCurve_CUSTOM_InitP12Il2CppObjectP11Il2CppArray
mHj:_glUniform1uiv__wrapper
W0i:__ZN6il2cpp2vm10Reflection7IsEventEP12Il2CppObject
gtj:__ZNSt3__26__treeINS_12__value_typeIPFvvEPK10MethodInfoEENS_19__map_value_compareIS3_S7_NS_4lessIS3_EELb1EEENS_9allocatorIS7_EEE16__insert_node_atEPNS_16__tree_node_baseIPvEERSI_SI_
xZ:__ZN17PersistentManager26GetStreamNameSpaceInternalEi
ZF:__ZN4FMOD6System11createSoundEPKcjP22FMOD_CREATESOUNDEXINFOPPNS_5SoundE
Xn:FUNCTION_TABLE_iiifiiii
Pre:_InternalEnumerator_1_System_Collections_IEnumerator_Reset_m1451164462_AdjustorThunk
txc:__ZN13SpeedTreeWind20AdvanceWithoutUpdateEd
vtf:_DateTime_System_IConvertible_ToDecimal_m1044850612
D4f:_List_1_IndexOf_m2206067159_gshared
Rje:_InternalEnumerator_1_System_Collections_IEnumerator_Reset_m1318888374_AdjustorThunk
Y9:__ZN9ShaderLab19CommonPropertyNames13StaticCleanupEPv
y$:__Z31scripting_method_get_returntype18ScriptingMethodPtr
BCi:__ZL24UnresolvedVirtualCall_76P12Il2CppObjectPK10MethodInfo
K4a:__ZN15SerializeTraitsI12LightmapDataE8TransferI24GenerateTypeTreeTransferEEvRS0_RT_
omf:_SecurityElement_AddAttribute_m311510562
LDj:_glStencilOpSeparate__wrapper
Iac:__ZN4Mesh5SetUvEiPKfjj
L5a:__ZN7Texture13SetAnisoLimitENS_20AnisotropicFilteringE
ZN:__ZN11AudioModule16SetListenerPauseEb
God:_Attribute_IsDefined_m4069052474
Qh:_emscripten_glCompressedTexSubImage2D
qDa:__ZN13GfxDeviceGLES22MemoryBarrierImmediateEyN2gl17MemoryBarrierTypeE
PRe:_U3CCaretBlinkU3Ec__Iterator0_Dispose_m860898205
YAa:__ZN6prcoreL26RemapGenericFloatToIntegerI18TexFormatARGBFloat17TexFormatARGB8888EEvPKNS_9InnerInfoE
R8g:_List_1_set_Capacity_m1977188119_gshared
$cc:__Z46GetShaderModelNumericValueFromRequirementsMask18ShaderRequirements
fBc:_cff_ps_has_glyph_names
x8c:_DropdownItem_get_rectTransform_m3147806615
mTf:_Dictionary_2_Resize_m3287623642_gshared
wmj:_GC_write
Wlh:__ZL69RuntimeArray_CustomAttributesCacheGenerator_Array_SetValue_m394135409P21CustomAttributesCache
fid:_RC2_Create_m2516417038
tad:_Graphic_OnPopulateMesh_m767318148
Dhd:_HMACSHA512_set_ProduceLegacyHmacValues_m3961135292
NCe:_Dictionary_2_Remove_m4193450060_gshared
H3e:_ASN1_get_Tag_m1032367219
OGd:_Int64_TryParse_m3606398488
k_h:_Array_InternalArray__set_Item_TisMark_t3471605523_m1299772331_gshared
Eoc:__Z44Register_UnityEngine_GUIStyle_SetDefaultFontv
Jxb:__Z18Transfer_BlittableI18StreamedBinaryReadILb1EELb1EiEvRK29SerializationCommandArgumentsR31RuntimeSerializationCommandInfo
RA:__ZN9BlobWrite8TransferI22OffsetPtrArrayTransferIKN4math7_float3EEEEvRT_PKc17TransferMetaFlags
bFg:__Z173RuntimeInvoker_Int32_t2950945753_RuntimeObject_Int32_t2950945753_Int32_t2950945753_Int32_t2950945753_RuntimeObject_Int32_t2950945753_SByte_t1669577662_ContextU26_t3937453398PFvvEPK10MethodInfoPvPS4_
p2g:_List_1__ctor_m2576108087_gshared
K$i:__ZN15dense_hashtableINSt3__24pairIK10KeyWrapperINS1_IPK12PropertyInfoP11Il2CppClassEEEjEES9_17ReflectionMapHashIS8_EN14dense_hash_mapIS9_jSD_NS9_14EqualsComparerINS0_8equal_toIS8_EEEENS0_9allocatorISB_EEE9SelectKeyESI_SK_E12maybe_shrinkEv
$li:_X509Certificate_get_DSA_m565099499
iyb:__Z18Transfer_BlittableI18StreamedBinaryReadILb1EELb1EsEvRK29SerializationCommandArgumentsR31RuntimeSerializationCommandInfo
Y6f:_StringBuilder_Remove_m940064945
$fd:_DESCryptoServiceProvider_GenerateIV_m683687014
WYf:_GenericComparer_1__ctor_m1900257738_gshared
jse:_InternalEnumerator_1_get_Current_m3792939945_gshared
NSc:__ZN22BaseUnityConnectClient17OnEnterStateReadyEv
n$e:_Text_get_fontSize_m1677872538
ugd:_DSACryptoServiceProvider_get_PublicOnly_m3933928860
hEh:__ZL63X509ChainStatusFlags_t1026973125_CustomAttributesCacheGeneratorP21CustomAttributesCache
KTa:__ZN14GrowableBufferD2Ev
ghc:__Z29Input_CUSTOM_GetMouseButtonUpi
xDd:_Int16_Parse_m138525169
RUi:__ZN6il2cpp6icalls8mscorlib6System8MonoType16InternalGetEventEP20Il2CppReflectionTypeP12Il2CppStringi
zui:_UriScheme_t722425697_marshal_pinvoke_back
ZCc:_UNITY_tt_face_load_maxp
vhc:__Z46Input_CUSTOM_INTERNAL_set_compositionCursorPosRK13Vector2fIcall
yt:__ZN7mecanim5human12FullBodyMaskEv
OZh:__ZL62Shadow_t773074319_CustomAttributesCacheGenerator_m_EffectColorP21CustomAttributesCache
m2e:_BigInteger_ToString_m3475000413
Ybb:__ZN19ShaderPropertySheet11ComputeHashEv
cPi:__ZN30dense_hashtable_const_iteratorI10KeyWrapperIPK19Il2CppGenericMethodES4_N6il2cpp8metadata23Il2CppGenericMethodHashEN14dense_hash_setIS4_S7_NS4_14EqualsComparerINS6_26Il2CppGenericMethodCompareEEENSt3__29allocatorIS4_EEE8IdentityESB_SE_EppEv
J7c:_Resources_t1597885468_marshal_pinvoke_cleanup
ezb:__ZN4PPtrI6ObjectE8TransferI18StreamedBinaryReadILb1EEEEvRT_
nT:__ZN11UnityEngine15CloudWebService20WebRequestRestClient6IsDoneEv
nsi:_Group__ctor_m2980794822
yki:_X509CertificateCollection_get_Item_m1033426577
Zei:_CachedInvokableCall_1_Invoke_m502907382_gshared
Ni:_llvm_fabs_f32
SS:__ZN11UnityEngine15CloudWebService16SessionContainer16GetJsonDataBlockEjRKN4core12basic_stringIcNS2_20StringStorageDefaultIcEEEERS6_PjSA_
D3e:_ASN1_Decode_m1695284166
H1i:__ZN15dense_hashtableINSt3__24pairIK10KeyWrapperIPK14Il2CppAssemblyEPK22Il2CppMonoAssemblyNameEES6_N6il2cpp5utils11PointerHashIS4_EEN14dense_hash_mapIS6_SA_SF_NS6_14EqualsComparerINS0_8equal_toIS5_EEEENS0_9allocatorISB_EEE9SelectKeyESK_SM_E13set_empty_keyERKSB_
Ofh:_Collection_1_RemoveAt_m2240641437_gshared
GBf:_Enum_ToString_m3248653065
NZ:__ZN14SafeBinaryReadD2Ev
DJf:_SetPropertyUtility_SetStruct_TisFillMethod_t1167457570_m4164776730_gshared
Q2b:__Z13RegisterClassI7TextureEvv
R1f:_Enumerator_MoveNext_m3859993671_gshared
yzb:__ZN8Gradient8TransferI18StreamedBinaryReadILb1EEEEvRT_
N6d:_SequentialSearchPrimeGeneratorBase_IsPrimeAcceptable_m1127740833
Iff:_Capture__ctor_m3103117740
N7a:__ZN4core8hash_mapINS_12basic_stringIcNS_20StringStorageDefaultIcEEEE13dynamic_arrayI4PPtrI6SpriteELj4EENS_4hashIS4_EENSt3__28equal_toIS4_EEEixERKS4_
$Dg:__Z113RuntimeInvoker_Void_t1185182177_RuntimeObject_Int64_t3736567304_RuntimeObject_Int64_t3736567304_Int64_t3736567304PFvvEPK10MethodInfoPvPS4_
gtg:_RangeInt_get_end_m4128831787_AdjustorThunk
uaj:__ZN6il2cpp6icalls8mscorlib6System4Type15MakeGenericTypeEP20Il2CppReflectionTypeP11Il2CppArray
nj:_SDL_PauseAudio
gxd:_Hashtable_Clone_m3078962909
V3i:_il2cpp_class_from_type
TVi:__ZN6il2cpp2os4File11GetStdErrorEv
lAh:__ZL77Convert_t2465617642_CustomAttributesCacheGenerator_Convert_ToSByte_m516918950P21CustomAttributesCache
X9:__ZN9ShaderLab19CommonPropertyNames16StaticInitializeEPv
wib:__ZN13MemoryManager31DisallowAllocationsOnThisThreadEv
WC:__ZN7mecanim9animation18CreateAvatarOutputEPKNS0_14AvatarConstantEbbRNS_6memory9AllocatorE
Umd:_Array_GetLongLength_m561139708
Vzi:_DelegatePInvokeWrapper_PCMSetPositionCallback_t1059417452
d_e:_Slider_set_maxValue_m2251404465
O_e:_SpriteState_get_pressedSprite_m3868967445_AdjustorThunk
VL:__ZN11AudioSource23VirtualRedirectTransferER24GenerateTypeTreeTransfer
sac:__ZN7Texture11SetWrapModeE15TextureWrapMode
i8a:__ZN14Texture2DArray23VirtualRedirectTransferER14SafeBinaryRead
OOd:_MissingMemberException__ctor_m1220732369
YQb:__ZNK6Camera21CalculateCanDoShadowsEv
VSg:__Z52RuntimeInvoker_Void_t1185182177_Int32U26_t1369213839PFvvEPK10MethodInfoPvPS4_
cig:_Application_InvokeOnBeforeRender_m2875673833
Zgj:__ZN6il2cpp2os6Thread12SetStackSizeEj
PUe:_MaskableGraphic_RecalculateMasking_m183336762
G2h:_Array_InternalArray__get_Item_TisRuntimeObject_m3347010206_gshared
I_d:_TypeBuilder_IsSubclassOf_m3458909121
nac:__ZNK8Renderer16IsVisibleInSceneEv
lZ:__Z13VFormatBufferPciPKcz
EAb:__Z18Transfer_BlittableI18StreamedBinaryReadILb0EELb1EhEvRK29SerializationCommandArgumentsR31RuntimeSerializationCommandInfo
Ejd:_X509Certificate__cctor_m198658613
VGg:__Z43RuntimeInvoker_MethodAttributes_t2366443849PFvvEPK10MethodInfoPvPS4_
esg:_PlayableHandle_Equals_m1666612586_AdjustorThunk
aBa:__ZN6prcoreL27StretchGenericFloatBilinearI15TexFormatRFloatEEvPKNS_9InnerInfoE
QDh:__ZL139ServicePointManager_t170559685_CustomAttributesCacheGenerator_ServicePointManager_t170559685____CheckCertificateRevocationList_PropertyInfoP21CustomAttributesCache
SBf:_Enum_ToObject_m1628250250
lw:__Z24ProcessAnimationMixBeginP35AnimationPlayableEvaluationConstantP32AnimationPlayableEvaluationInputP33AnimationPlayableEvaluationOutput
_6g:_List_1_set_Item_m2057272351_gshared
dya:__Z14PadImageBorderR14ImageReferenceii
k_i:__ZN15dense_hashtableINSt3__24pairIK10KeyWrapperINS1_IPK10MethodInfoP11Il2CppClassEEEjEES9_17ReflectionMapHashIS8_EN14dense_hash_mapIS9_jSD_NS9_14EqualsComparerINS0_8equal_toIS8_EEEENS0_9allocatorISB_EEE9SelectKeyESI_SK_E4findERSA_
mSi:__ZN6il2cpp2vm13MetadataCache28GetFieldDefaultValueForFieldEPK9FieldInfo
SLf:_Array_IndexOf_TisUIVertex_t4057497605_m3336763564_gshared
deh:__ZN21InterfaceFuncInvoker1I22OrderBlock_t1585977831iE6InvokeEjP11Il2CppClassP12Il2CppObjecti
Pw:__ZN27AnimationLayerMixerPlayableD2Ev
W5c:_ColorBlock_Equals_m518833916_AdjustorThunk
zLh:__ZL66PersistentCall_t3407714124_CustomAttributesCacheGenerator_m_TargetP21CustomAttributesCache
eI:__ZN12AudioManager39HandlePendingAudioConfigurationCallbackEv
kk:_emscripten_glIsFramebuffer
d6e:_RSAManaged_EncryptValue_m799827583
T1:__ZN12_GLOBAL__N_16qAtan2Eff
pBg:__Z61RuntimeInvoker_UInt32_t2560061978_RuntimeObject_RuntimeObjectPFvvEPK10MethodInfoPvPS4_
tag:_ThreadAbortException__ctor_m1955533141
ok:_JS_Sound_SetLoopPoints
Jca:__ZN15dense_hashtableINSt3__24pairIKyP17VertexDeclarationEEy14GfxGenericHashIyEN14GfxDoubleCacheIyS4_S7_NS0_8equal_toIyEEN31GfxDoubleCacheConcurrencyPolicy11LocklessGetE42GfxDoubleCacheDefaultEmptyDeletedGeneratorIyEE9SelectKeyESA_13stl_allocatorIS5_L18MemLabelIdentifier24ELi16EEE14squash_deletedEv
hN:__ZN12AudioManager17ShouldSourcePauseEb
Xqj:__ZN6il2cpp2vm26MetadataAllocGenericMethodEv
PIf:_Array_InternalArray__ICollection_Remove_TisUInt16_t2177724958_m1766181761_gshared
bHa:__ZN19ConstantBuffersGLES12RecordRenderEv
Fhi:_UnityEvent_1__ctor_m3675246889_gshared
bsc:__ZN9JSONWrite8TransferI10RectOffsetEEvRT_PKc17TransferMetaFlags
Kxa:__ZN4crnd12symbol_codec11decode_bitsEj
HVg:__Z59RuntimeInvoker_Boolean_t97287965_KeyValuePair_2_t3842366416PFvvEPK10MethodInfoPvPS4_
G8d:_EncryptedPrivateKeyInfo__ctor_m3415744930
$yc:_cf2_doFlex
pbf:_AsnEncodedData__ctor_m3792312694
kyi:_AesManaged_GenerateIV_m1368817386
H7b:__ZN21FixedBehaviourManagerD0Ev
LRa:__ZN13dynamic_arrayI17SortingLayerEntryLj4EE6insertEPS0_jRKS0_
iI:__ZN4FMOD6System12createReverbEPPNS_6ReverbE
akj:__ZN6il2cpp2vm6String21InitializeEmptyStringEP11Il2CppClass
Gw:__ZN7mecanim19ValueArrayBlendNodeILb1EEEvRKNS_10ValueArrayERKNS_14ValueArrayMaskERS1_RS4_RNS_16ValueArrayWeightEf
bfd:_CodeAccessPermission_GetHashCode_m880096813
yib:__Z16MarkDependenciesR27GarbageCollectorThreadStatej
$Sd:_AssemblyConfigurationAttribute__ctor_m3236176989
pji:_ObjectPool_1_get_countInactive_m526975942_gshared
GLe:_RemotingServices_DisposeIdentity_m2605848806
d2:__ZNK9Transform11GetPositionEv
rKd:_WriteDelegate_EndInvoke_m952736984
bjg:_Bounds_set_size_m4127623202
yCd:_GuidParser_Reset_m2640004655
yWa:__ZN23SharedMeshRenderingData18UnloadVertexStreamEi
X7b:__ZN31CanvasBatchIntermediateRenderer11AddSubBatchERK16DrawBuffersRangePK19ShaderPropertySheet
F6b:__ZN19RenderEventsContextC2Ei
cR:__Z6simd4fRKf
mJh:__ZL67SceneManager_t2787271929_CustomAttributesCacheGenerator_sceneLoadedP21CustomAttributesCache
ZEf:_GregorianCalendar_GetEra_m2369958449
Sk:_emscripten_glEnable
Gme:_InternalEnumerator_1_System_Collections_IEnumerator_get_Current_m2982675020_gshared
ERa:__ZN10TagManager23VirtualRedirectTransferER14SafeBinaryRead
zWh:__ZL51RawImage_t3182918964_CustomAttributesCacheGeneratorP21CustomAttributesCache
j4h:_Collection_1_System_Collections_IList_get_Item_m2931804586_gshared
rLe:_ObjRef_get_EnvoyInfo_m1782007847
A2g:_List_1_System_Collections_ICollection_get_IsSynchronized_m3331050698_gshared
HTb:__Z15InitLightMeshesv
p0d:_MonoCMethod_ToString_m3992577062
EWi:_RaycastHit_get_collider_m1464180279
An:FUNCTION_TABLE_iifiii
RKi:__ZNK15dense_hashtableINSt3__24pairIK10KeyWrapperIPK22Il2CppGenericParameterEP11Il2CppClassEES6_N6il2cpp5utils11PointerHashIS4_EEN14dense_hash_mapIS6_S9_SE_NS6_14EqualsComparerINS0_8equal_toIS5_EEEENS0_9allocatorISA_EEE9SelectKeyESJ_SL_E10test_emptyEj
xai:_ReadOnlyCollection_1_System_Collections_IList_Contains_m2904046095_gshared
G5a:__ZN15QualitySettings8TransferI19StreamedBinaryWriteILb0EEEEvRT_
SPh:__ZL56GUISkin_t1244372282_CustomAttributesCacheGenerator_m_boxP21CustomAttributesCache
YTe:_LayoutUtility_U3CGetFlexibleHeightU3Em__7_m2991026842
Wvb:__Z18Transfer_BlittableI19StreamedBinaryWriteILb0EELb1E8Vector2fEvRK29SerializationCommandArgumentsR31RuntimeSerializationCommandInfo
Dyc:_cf2_arrstack_init
P2h:_Array_InternalArray__get_Item_TisResourceCacheItem_t51292791_m1306056717_gshared
NRg:__Z157RuntimeInvoker_Void_t1185182177_RuntimeObject_RuntimeObject_RuntimeObject_RuntimeObject_RuntimeObject_RuntimeObject_RuntimeObject_RuntimeObject_RuntimeObjectPFvvEPK10MethodInfoPvPS4_
P_c:_EventSystem_get_pixelDragThreshold_m1103650852
bX:__Z15CleanLogHandler7LogTypePKcz
qRd:_NumberFormatter_NumberToString_m2481532188
zla:__ZN9ShaderLab19SerializedSubShader8TransferI19StreamedBinaryWriteILb0EEEEvRT_
oYe:_ScrollRect_InternalGetBounds_m599803667
EH:__ZN14AudioBehaviour15ThreadedCleanupEv
WDb:__ZN6Camera17RemoveImageFilterERK11ImageFilter
ena:__ZNSt3__218__insertion_sort_3IR25ValueParameterArraySorterPN20GpuProgramParameters14ValueParameterEEEvT0_S6_T_
EGh:__ZL90Display_t1387065949_CustomAttributesCacheGenerator_Display_GetRenderingExtImpl_m2069813991P21CustomAttributesCache
EDh:__ZL67EditorBrowsableAttribute_t1475454531_CustomAttributesCacheGeneratorP21CustomAttributesCache
lwd:_Comparer__cctor_m3311686689
bQc:__ZZN2UI11CanvasGroup15InitializeClassEvEN38FunctorImpl_117kTransformParentChanged4CallEPviR11MessageData
m3c:_UIBehaviour_OnDidApplyAnimationProperties_m2143584361
wFh:__ZL102SystemInfo_t3561985952_CustomAttributesCacheGenerator_SystemInfo_get_operatingSystemFamily_m4256884728P21CustomAttributesCache
F9e:_HttpWebRequest_get_Address_m2672661563
pcg:_TimeZone__ctor_m1831364098
n0i:__ZNK10KeyWrapperINSt3__24pairIPK9EventInfoP11Il2CppClassEEE14EqualsComparerINS0_8equal_toIS7_EEEclERKS8_SE_
ime:_InternalEnumerator_1_get_Current_m3500427238_AdjustorThunk
RPc:__ZN2UI26InitializeDeviceForOverlayEi
Y8:__Z27LogRepeatingStringWithFlagsRKN4core12basic_stringIcNS_20StringStorageDefaultIcEEEE15LogMessageFlagsi
hgg:_UInt64_System_IConvertible_ToSingle_m925613075
TBf:_Enum_IsDefined_m1442314461
U9f:_Thread__cctor_m817723615
bAi:_AudioExtensionManager_RegisterBuiltinDefinitions_m2742744104
Zt:__ZN17AnimationPlayable28ComputeNeedsBindingRebuildedEv
et:__ZN17AnimationPlayable23RequestAllocateBindingsEv
_di:_Predicate_1_EndInvoke_m3884403745_gshared
Asf:_DecoderReplacementFallbackBuffer_Fallback_m1261056214
QMb:__ZNSt3__227__insertion_sort_incompleteIRPFbP10GUIElementS2_EPS2_EEbT0_S7_T_
BTd:_Binder_get_DefaultBinder_m950908649
lJd:_StreamReader__ctor_m1616861391
hzh:__ZL59ArgumentException_t132251570_CustomAttributesCacheGeneratorP21CustomAttributesCache
sVc:__ZN18UnityConnectClient33OnPlayerSessionStateChangedStaticEPS_jyy
Kif:_RSA_ToXmlString_m2922661427
ZT:__ZNK11UnityEngine15CloudWebService23WebRequestUploadHandler11GetProgressEv
Kua:__ZN7ApiGLES4LoadE16GfxDeviceLevelGL
X4a:__ZN18StreamedBinaryReadILb0EE21TransferSTLStyleArrayI13dynamic_arrayI31EnlightenSystemAtlasInformationLj8EEEEvRT_17TransferMetaFlags
NPh:__ZL61GUIContent_t3050628031_CustomAttributesCacheGenerator_m_ImageP21CustomAttributesCache
Gwc:__ZN5physx15PxErrorCallbackD2Ev
Mdj:__ZN15dense_hashtableI10KeyWrapperIP18Il2CppGenericClassES3_N6il2cpp8metadata22Il2CppGenericClassHashEN14dense_hash_setIS3_S6_NS3_14EqualsComparerINS5_25Il2CppGenericClassCompareEEENSt3__29allocatorIS3_EEE8IdentityESA_SD_E15insert_noresizeERKS3_
M5b:__ZZL31RegisterOtherRendererPropertiesR22GenericPropertyBindingEN30Wrapper_RendererReceiveShadows13GetFloatValueEPv
lHf:_Array_InternalArray__ICollection_Contains_TisSlot_t384495010_m688761886_gshared
o3a:__ZN17SharedTextureDataC2E10MemLabelIdii13TextureFormatjiibb
DTg:__Z114RuntimeInvoker_RuntimeObject_RuntimeObject_Int32_t2950945753_Int32_t2950945753_Int32_t2950945753_Int32_t2950945753PFvvEPK10MethodInfoPvPS4_
bHb:__ZN8Material11SetPassFastEPN9ShaderLab4PassER17ShaderPassContextP6Shaderib
d6a:__ZNK13ScreenManager13GetLockCursorEv
qVc:__ZN11UnityEngine7Connect20BasePersistentValues10SaveValuesER9JSONWrite
shh:_Collection_1_IsFixedSize_m3748602684_gshared
xtf:_DateTime_System_IConvertible_ToDouble_m2116720007
Slg:_Display_GetSystemExtImpl_m2808197389
gbg:_WaitHandle_WaitOne_m2577152516
rjd:_X509Certificate_PEM_m1177570576
Yvh:__ZL46DSA_t2386879874_CustomAttributesCacheGeneratorP21CustomAttributesCache
Phe:_ArrayReadOnlyList_1_GetEnumerator_m1835926958_gshared
vbc:__Z14ScaleCurveTimeR17AnimationCurveTplIfEf
jca:__ZN22VirtualJoystickManagerC2Ev
Lba:__ZN20GlobalCachingManager7DisposeEv
WNb:__Z12SetupLODFadeR9GfxDeviceR17ShaderPassContextf
g1a:__ZNK14PlayableOutput7GetTypeEv
fnh:__ZL69Type_t_CustomAttributesCacheGenerator_Type_GetConstructors_m576905011P21CustomAttributesCache
uTb:__ZL24CollectForwardObjectsJobP27CollectForwardObjectsHeader
FRi:__ZNK15dense_hashtableINSt3__24pairIK10KeyWrapperIPK11Il2CppClassEPKcEES6_N6il2cpp5utils11PointerHashIS3_EEN14dense_hash_mapIS6_S9_SE_NS6_14EqualsComparerINS0_8equal_toIS5_EEEENS0_9allocatorISA_EEE9SelectKeyESJ_SL_E12test_deletedERK24dense_hashtable_iteratorISA_S6_SE_SN_SJ_SL_E
pVb:__Z13IsNodeVisibleRK9SceneNodeRK4AABBRK22SceneCullingParameters
uMf:_Array_InternalArray__IndexOf_TisLabelFixup_t858502054_m1491765395_gshared
mEg:__Z44RuntimeInvoker_RuntimeTypeHandle_t3027515415PFvvEPK10MethodInfoPvPS4_
uki:_TlsServerSettings_set_CertificateRequest_m1039729760
$0e:_SortKeyBuffer_AppendCJKExtension_m2591091991
LRc:__Z57RectTransformUtility_CUSTOM_INTERNAL_CALL_PixelAdjustRectP12Il2CppObjectS0_R5RectTIfE
A8f:_UTF8Encoding_GetByteCount_m4153686982
pWb:__Z24ScheduleCullingAllGroupsR8JobFenceRK22SceneCullingParametersiRK13CullingOutputRK13dynamic_arrayIP12CullingGroupLj4EERKS_
iJj:_emscripten_glStencilMask__wrapper
QCg:__Z49RuntimeInvoker_Void_t1185182177_Double_t594665363PFvvEPK10MethodInfoPvPS4_
UOi:__ZN15dense_hashtableI10KeyWrapperIPK19Il2CppGenericMethodES4_N6il2cpp8metadata23Il2CppGenericMethodHashEN14dense_hash_setIS4_S7_NS4_14EqualsComparerINS6_26Il2CppGenericMethodCompareEEENSt3__29allocatorIS4_EEE8IdentityESB_SE_EC2ERKSH_j
ETa:__ZN15RenderNodeQueue7CleanupEv
TJf:_Array_InternalArray__IEnumerable_GetEnumerator_TisByte_t1134296376_m1979205379_gshared
$1d:_MonoProperty_CreateGetterDelegate_m2478402519
Ewc:__ZN16NovodexAllocator8allocateEjPKcS1_i
_$a:__ZN39DeprecatedFastPropertyNameSerialization8TransferI14SafeBinaryReadEEvRT_
Sli:_DeriveBytes_DeriveIV_m973925711
oFd:_Int32_System_IConvertible_ToSByte_m3133688512
sBi:__ZL24UnresolvedVirtualCall_13P12Il2CppObjectaPK10MethodInfo
yai:_ReadOnlyCollection_1_System_Collections_IList_IndexOf_m848971554_gshared
rTb:__ZN9ShaderLab10GrabPassesD2Ev
xYe:_ScrollRect_CalculateOffset_m927043599
t8a:__ZN14Texture2DArray13UploadTextureEv
zUe:_MaskableGraphic_UpdateCull_m2805101913
GDc:_tt_cmap14_done
ugb:__ZN18AwakeFromLoadQueue25RegisterObjectInstanceIDsEv
Uw:__ZNK27AnimationLayerMixerPlayable11DerivesFromE17ScriptingClassPtr
SJc:__ZN20TextRenderingPrivate19NativeTextGenerator15InsertCharacterEiPj
BFg:__Z77RuntimeInvoker_Void_t1185182177_RuntimeObject_SByte_t1669577662_RuntimeObjectPFvvEPK10MethodInfoPvPS4_
hGg:__Z81RuntimeInvoker_Void_t1185182177_RuntimeObject_SByte_t1669577662_SByte_t1669577662PFvvEPK10MethodInfoPvPS4_
PPd:_MonoType_get_attributes_m1332507727
bwi:_GUIContent_ClearStaticCache_m1205116045
w4g:_List_1_System_Collections_IList_get_IsFixedSize_m203251153_gshared
Bv:__ZN17AnimationPlayableD0Ev
Owb:__Z18Transfer_BlittableI19StreamedBinaryWriteILb0EELb0EyEvRK29SerializationCommandArgumentsR31RuntimeSerializationCommandInfo
NMe:_BinaryCommon__cctor_m2978407547
yrd:_Char_System_IConvertible_ToByte_m2347554595
gai:_ReadOnlyCollection_1_GetEnumerator_m1017886827_gshared
goh:__ZL47ASN1_t2114160832_CustomAttributesCacheGeneratorP21CustomAttributesCache
zLc:__ZN20TextRenderingPrivate15DynamicFontData21GetFontMetricsForFaceERK13dynamic_arrayIN4core17string_with_labelILi35EEELj4EEiRKS1_I4PPtrIN13TextRendering4FontEELj4EEPfSF_
Zhi:_IndexedSet_1__ctor_m2250384602_gshared
lVf:_DefaultComparer__ctor_m1306123661_gshared
Leg:_UInt16_TryParse_m4139137016
Ogj:__ZN6il2cpp5utils13dynamic_arrayIPNS_2os6ThreadELj4EE9push_backEv
Lij:__ZN6il2cpp2gc16GarbageCollector9FreeFixedEPv
u5f:_Encoding__ctor_m2997749867
Yog:_ManagedStreamHelpers_ManagedStreamSeek_m3158782053
Lsi:_ExpressionAssertion_Compile_m2166597834
nDb:__ZN16ScriptingManagerD0Ev
Iof:_Single_System_IConvertible_ToSByte_m1208276900_AdjustorThunk
rlj:__ZN6il2cpp6icalls8mscorlib6System7Convert24InternalFromBase64StringEP12Il2CppStringb
GWf:_EqualityComparer_1__ctor_m2241711498_gshared
Gth:__ZL58ChannelServices_t3942013484_CustomAttributesCacheGeneratorP21CustomAttributesCache
qcj:__ZN30dense_hashtable_const_iteratorINSt3__24pairIK10KeyWrapperINS1_IPKcS4_EEEiEES6_24NamespaceAndNamePairHashN14dense_hash_mapIS6_iS9_NS6_14EqualsComparerI26NamespaceAndNamePairEqualsEENS0_9allocatorIS8_EEE9SelectKeyESD_SF_EppEv
Hfc:__Z44Register_UnityEngine_Component_get_transformv
wXg:__Z48RuntimeInvoker_Void_t1185182177_Link_t3209266973PFvvEPK10MethodInfoPvPS4_
VB:__ZN12_GLOBAL__N_120ProcessPlayableGraphERN8Animator11AnimatorJobER35AnimationPlayableEvaluationConstantR32AnimationPlayableEvaluationInputR33AnimationPlayableEvaluationOutputPFvS4_R17AnimationPlayableEPFvS4_S6_S8_EPFvS8_S4_S6_S8_fESE_MS9_FvPS3_PS5_PS7_E
PIi:_CanvasRenderer_get_absoluteDepth_m2703237819
_Ff:_TextInfo_ToLower_m2744057472
_Jb:__ZN17ArchiveFileSystem12MountArchiveEPKcS1_
BYf:_EqualityComparer_1_System_Collections_IEqualityComparer_Equals_m3977314386_gshared
grc:__Z18Transfer_BlittableI9JSONWriteLb1E8Vector4fEvRK29SerializationCommandArgumentsR31RuntimeSerializationCommandInfo
wn:FUNCTION_TABLE_viififiii
fDf:_CCGregorianCalendar_year_from_fixed_m463929682
XNc:__ZN2UI13CanvasManagerD0Ev
HX:__ZThn32_NK8Renderer14GetSubsetIndexEi
rlg:_Debug_get_unityLogger_m2239795986
U7d:_MD2Managed_Initialize_m2341076836
vai:_ReadOnlyCollection_1_System_Collections_IList_Add_m4240023232_gshared
zra:__ZN9GfxDevice15ImmediateVertexEfff
z2b:__Z13RegisterClassI8MaterialEvv
g4a:__ZNK16LightmapSettings22GetTypeVirtualInternalEv
gUa:__ZN16GraphicsSettings13AwakeFromLoadE17AwakeFromLoadMode
Vp:__ZN6Object13AwakeFromLoadE17AwakeFromLoadMode
Roa:__ZN13GfxDeviceGLES15SetStencilStateEPK18DeviceStencilStatei
mqd:_Buffer_BlockCopyInternal_m418318694
tvj:_cycle
nig:_AssetBundleCreateRequest_t3119663542_marshal_pinvoke
hlj:__ZN6il2cpp2vm8Profiler7GCEventE13Il2CppGCEvent
BEg:__Z76RuntimeInvoker_Void_t1185182177_RuntimeObject_RuntimeFieldHandle_t1871169219PFvvEPK10MethodInfoPvPS4_
hmi:_PKCS12_Finalize_m507756088
Dd:_emscripten_glUniform1iv
qag:_Thread_get_ManagedThreadId_m1068113671
kmb:__ZN16MemoryFileSystemD2Ev
SEg:__Z150RuntimeInvoker_Int32_t2950945753_RuntimeObject_Int32_t2950945753_Int32_t2950945753_RuntimeObject_Int32_t2950945753_Int32_t2950945753_Int32_t2950945753PFvvEPK10MethodInfoPvPS4_
Tod:_BitConverter_DoubleToInt64Bits_m3574395137
$uf:_DateTime_Parse_m3729096069
u2g:_List_1_System_Collections_IList_Add_m1540114404_gshared
Bie:_InternalEnumerator_1_System_Collections_IEnumerator_Reset_m81420524_AdjustorThunk
pfc:__Z37Register_UnityEngine_Camera_get_depthv
VMd:_StringReader_Read_m3322058819
SEe:_CrossAppDomainChannel_get_ChannelPriority_m3418073750
KVf:_EqualityComparer_1__ctor_m1860346363_gshared
vRe:_Selectable_StartColorTween_m3618813981
m_c:_BaseInputModule_HandlePointerExitAndEnter_m1705532066
S_d:_EventInfo__ctor_m3033129999
b2b:__ZN15ApplicationInfo16GetInstallerNameEv
M$b:__Z23ConvertIntegerToTypePtrItEbPvR14SafeBinaryRead
Fzf:_Delegate_CombineImpl_m3572135514
_Dd:_NumberFormatter_IntegerToString_m1679294587
Wjf:_SHA256Managed_AddLength_m1060552216
N7h:_ReadOnlyCollection_1_System_Collections_IList_RemoveAt_m422909114_gshared
AC:__ZN7mecanim5human29HumanGetGoalOrientationOffsetENS0_4GoalE
Ud:_emscripten_glStencilFunc
aZh:__ZL78LayoutRebuilder_t541313304_CustomAttributesCacheGenerator_U3CU3Ef__amU24cache2P21CustomAttributesCache
g1h:_Dictionary_2_Do_CopyTo_TisKeyValuePair_2_t3699644050_TisRuntimeObject_m2224738096_gshared
lBi:__ZL23UnresolvedVirtualCall_6P12Il2CppObjectiPK10MethodInfo
_1c:__Z46il2cpp_codegen_get_marshal_directive_exceptionPKc
_Oe:_InputField_get_isFocused_m709836844
$d:_glGetActiveUniformBlockName
xSh:__ZL90PointerEventData_t3807901092_CustomAttributesCacheGenerator_U3CpointerIdU3Ek__BackingFieldP21CustomAttributesCache
Kf:_emscripten_glUniform1fv
Nhc:__Z39Quaternion_CUSTOM_INTERNAL_CALL_InverseRK11QuaternionfRS_
UTa:__ZNK4PPtrI5FlareEcvPS0_Ev
dJ:__ZN4FMOD7Channel20set3DConeOrientationEP11FMOD_VECTOR
nn:FUNCTION_TABLE_iiifii
FUd:_AssemblyBuilder_not_supported_m1735277432
Zqe:_InternalEnumerator_1_MoveNext_m1344185775_AdjustorThunk
Sfj:__ZN6il2cpp2vm12GenericClass11SetupEventsEP11Il2CppClass
EGc:_tt_delta_interpolate
cEc:_tt_cmap12_get_info
Abj:__ZN6il2cpp2vm15ReboxIReferenceEP14Il2CppIUnknownP11Il2CppClass
l1f:_Enumerator__ctor_m2029608698_AdjustorThunk
iKi:__ZN6il2cpp6icalls8mscorlib6System7Decimal14decimalCompareEP19il2cpp_decimal_reprS5_
MCe:_Dictionary_2_OnDeserialization_m4209543208_gshared
Olj:__ZThn4_N6il2cpp2vm13CachedCCWBaseINS0_13ManagedObjectEE7ReleaseEv
Png:_GameObject_AddComponent_m136524825
Auh:__ZL62SoapMethodAttribute_t1935009310_CustomAttributesCacheGeneratorP21CustomAttributesCache
gOg:__Z100RuntimeInvoker_Void_t1185182177_RuntimeObject_Int32_t2950945753_Int32_t2950945753_UInt16_t2177724958PFvvEPK10MethodInfoPvPS4_
a1a:__ZNSt3__26__treeINS_12__value_typeIN9ShaderLab16FastPropertyNameE10ColorRGBAfEENS_19__map_value_compareIS3_S5_NS_4lessIS3_EELb1EEENS_9allocatorIS5_EEE12__find_equalIS3_EERPNS_16__tree_node_baseIPvEENS_21__tree_const_iteratorIS5_PNS_11__tree_nodeIS5_SF_EEiEESI_RKT_
mGj:_glCopyTexImage2D__wrapper
LAf:_Double_System_IConvertible_ToUInt32_m271206838
N7:__GLOBAL__sub_I_runtime_graphics_billboard_0_cpp
mHb:__Z18ClearByDrawingQuad13GfxClearFlagsRK10ColorRGBAffjR17ShaderPassContext
zAa:__ZN6prcoreL17RemapGenericFloatI14TexFormatRHalf15TexFormatRFloatEEvPKNS_9InnerInfoE
Kzc:_cf2_getBlueValues
LNb:__Z16ShouldUseShadowsb
gea:__ZN15DirectorManager21RebuildStageCallbacksEv
zHb:__ZN19RuntimeSceneManager9LoadSceneERKN4core12basic_stringIcNS0_20StringStorageDefaultIcEEEES6_S6_RK9UnityGUIDiNS_11LoadingModeE
KBi:__ZL24UnresolvedVirtualCall_31P12Il2CppObjectiS0_S0_PK10MethodInfo
Rta:__ZN7ApiGLES10DrawArraysE16GfxPrimitiveTypejjj
AG:__ZN10SampleClip13LoadBaseSoundEv
Gkd:_SmallXmlParser_SkipWhitespaces_m4243606597
VDf:_CompareInfo_IndexOf_m2631915198
lVd:_ConstructorBuilder_GetCustomAttributes_m2495332786
yIe:_MethodCall__ctor_m3669645
$qd:_Byte_CompareTo_m4285128861
F$c:_TriggerEvent__ctor_m87299207
xMg:__Z48RuntimeInvoker_ExchangeAlgorithmType_t1320888206PFvvEPK10MethodInfoPvPS4_
jQ:__Z57AudioSource_CUSTOM_INTERNAL_CALL_ClearExtensionPropertiesP12Il2CppObjectRK12PropertyName
efj:__ZN15dense_hashtableINSt3__24pairIK10KeyWrapperIP12Il2CppObjectEN6il2cpp2gc9CachedCCWEEES5_NS7_5utils11PointerHashIS3_EEN14dense_hash_mapIS5_S9_SD_NS5_14EqualsComparerINS0_8equal_toIS4_EEEENS0_9allocatorISA_EEE9SelectKeyESI_SK_E15insert_noresizeERKSA_
R9d:_CertificateValidationCallback2__ctor_m1685875113
Tca:__ZL50StaticRegisterSceneLoadedCallback_LightmapSettingsPv
c1a:__ZN22DeviceMVPMatricesStateC2ER9GfxDevice
Jkh:__ZL48Double_t594665363_CustomAttributesCacheGeneratorP21CustomAttributesCache
Zm:FUNCTION_TABLE_iifii
Log:_Logger_set_logEnabled_m1180597166
Bvd:_Comparer_Compare_m3984347512
n4a:__ZN21EnlightenSceneMapping8TransferI14SafeBinaryReadEEvRT_
j3i:__ZN6il2cpp2vm10Reflection12HasAttributeEP9FieldInfoP11Il2CppClass
Mm:FUNCTION_TABLE_iiffi
hc:invoke_viiifi
_1d:_MonoProperty_GetCustomAttributes_m3619796755
$Ui:__ZNSt3__214__split_bufferIP11Il2CppClassRNS_9allocatorIS2_EEEC2EjjS5_
IJe:_MethodDictionary_System_Collections_IEnumerable_GetEnumerator_m4169036899
Lkd:__ZN23InterfaceActionInvoker2IP8String_tP12Il2CppObjectE6InvokeEjP11Il2CppClassS3_S1_S3_
ZLa:__ZNK11AssetBundle14GetPreloadDataEiR13dynamic_arrayIiLj4EE
kif:_RIPEMD160Managed_JJJ_m4161373884
LEe:_CrossContextChannel__ctor_m3755842292
OTf:_DefaultComparer_Equals_m3257444875_gshared
jf:_JS_Sound_SetPosition
YYa:__ZN19RenderBufferManager13GetTempBufferEii17DepthBufferFormat19RenderTextureFormatj22RenderTextureReadWrite14VRTextureUsagei23RenderTextureMemoryless
ORi:__ZL13GetSharedInstPK17Il2CppGenericInst
$Sh:__ZL98PointerEventData_t3807901092_CustomAttributesCacheGenerator_PointerEventData_get_delta_m1062010255P21CustomAttributesCache
o1g:_List_1_get_Count_m634446588_gshared
VSc:__ZN22BaseUnityConnectClient17SaveSessionValuesEv
lke:_InternalEnumerator_1_get_Current_m476140818_gshared
$3g:_List_1_Sort_m4240158523_gshared
_zg:_WaitForEndOfFrame__ctor_m1381314187
xTb:__Z24SetupActiveLightsContextR21ActiveLightingContextRK12ActiveLightsRK11CullResultsP14ShadowMapCacheRK10MinMaxAABB
y3c:_AnimationTriggers_set_disabledTrigger_m933056574
Wic:__Z38Sprite_CUSTOM_INTERNAL_get_textureRectP12Il2CppObjectP5RectTIfE
X1i:__ZNK15dense_hashtableINSt3__24pairIK10KeyWrapperIPK22Il2CppGenericParameterEPK24MonoGenericParameterInfoEES6_N6il2cpp5utils11PointerHashIS4_EEN14dense_hash_mapIS6_SA_SF_NS6_14EqualsComparerINS0_8equal_toIS5_EEEENS0_9allocatorISB_EEE9SelectKeyESK_SM_E3endEv
M0g:_List_1_Add_m238442097_gshared
Ycc:__ZN9TextAsset7SetTextERKN4core12basic_stringIcNS0_20StringStorageDefaultIcEEEE
BSa:__ZN6Camera8TransferI24GenerateTypeTreeTransferEEvRT_
Ha:invoke_iiiiiiif
Ea:invoke_iiiiiiii
DQf:_Array_InternalArray__set_Item_TisByte_t1134296376_m3104140039_gshared
sug:_Rect_ToString_m447614148
umi:_PKCS12_GetBytes_m415958948
Xbe:_Context_get_HandshakeState_m2425796590
PWb:__ZN8Renderer17PendingAddToSceneEv
tih:_Collection_1_System_Collections_IList_set_Item_m2625856224_gshared
gKj:b122
jKj:b125
iKj:b124
qKj:b127
lKj:b126
vKj:b129
nic:__Z52Register_UnityEngine_RectTransform_INTERNAL_get_rectv
jqg:_Mesh_SetSizedArrayForChannel_m2565120436
w_:__Z21PostprocessStacktracePKcRN4core12basic_stringIcNS1_20StringStorageDefaultIcEEEE
Zog:_ManagedStreamHelpers_ManagedStreamLength_m2930872960
peb:__ZN18StreamedBinaryReadILb0EE21TransferSTLStyleArrayI13dynamic_arrayI16SplashScreenLogoLj4EEEEvRT_17TransferMetaFlags
eli:_BasicConstraintsExtension_Encode_m2009213240
Afc:__Z47Register_UnityEngine_Camera_get_allCamerasCountv
f5c:___clang_call_terminate
YSc:__ZN22BaseUnityConnectClient20StartEventDispatcherEv
Nac:__ZNSt3__26vectorIj13stl_allocatorIjL18MemLabelIdentifier1ELi16EEE6assignIPKtEENS_9enable_ifIXaasr21__is_forward_iteratorIT_EE5valuesr16is_constructibleIjNS_15iterator_traitsIS9_E9referenceEEE5valueEvE4typeES9_S9_
lB:__ZN7mecanim9animation16EvaluateAvatarIKEPKNS0_14AvatarConstantEPKNS0_11AvatarInputEPNS0_12AvatarOutputEPNS0_12AvatarMemoryEPNS0_15AvatarWorkspaceEb
fCa:__ZL25ProgramUniformMatrix4x3fvPK7ApiGLESjiihPKv
d$b:__Z29StdTemplateConversionFunctionIsiEbPvR14SafeBinaryRead
kLb:__ZN12InputManager13InputEndFrameEv
mUi:__ZNSt3__26__treeIP11Il2CppClassNS_4lessIS2_EENS_9allocatorIS2_EEE25__emplace_unique_key_argsIS2_JRKS2_EEENS_4pairINS_15__tree_iteratorIS2_PNS_11__tree_nodeIS2_PvEEiEEbEERKT_DpOT0_
yqg:_Object_get_name_m4211327027
X6i:__ZN6il2cpp2vm6Thread5SetupEP12Il2CppThread
F5h:_ReadOnlyCollection_1_System_Collections_IList_get_IsReadOnly_m1248651675_gshared
Mxe:_Enumerator_System_Collections_IDictionaryEnumerator_get_Key_m2500634048_gshared
aHi:_TextGenerator_t3211863866_marshal_pinvoke_back
ywj:___munmap
ag:_localtime_r
qMb:__ZN22RenderingCommandBuffer13GetAndCheckRTE24BuiltinRenderTextureTypeRKN9ShaderLab16FastPropertyNameEPKcPP13RenderTexture
Ica:__ZN14GfxDoubleCacheIyP17VertexDeclaration14GfxGenericHashIyENSt3__28equal_toIyEEN31GfxDoubleCacheConcurrencyPolicy11LocklessGetE42GfxDoubleCacheDefaultEmptyDeletedGeneratorIyEEC2Ev
hne:_InternalEnumerator_1_System_Collections_IEnumerator_Reset_m3619766341_AdjustorThunk
SW:__Z19free_alloc_internalPv10MemLabelId
xuh:__ZL56ReturnMessage_t1376985608_CustomAttributesCacheGeneratorP21CustomAttributesCache
a8f:_UTF32Decoder_GetChars_m1925558948
dg:_strftime
YEa:__ZN7Texture33SetStoredColorSpaceNoDirtyNoApplyE17TextureColorSpace
N3d:_ResourceSet__ctor_m3618395942
Hxf:_Decimal_System_IConvertible_ToDouble_m3125524987_AdjustorThunk
x1:__ZN12FileAccessorD2Ev
h7:__ZN10ColorRGBAf8TransferI18StreamedBinaryReadILb0EEEEvRT_
LWa:__ZN14VertexDataInfoC2Ev
vij:__ZN6il2cpp2gc16GarbageCollector14CollectALittleEv
CIh:__ZL87Sprite_t280657092_CustomAttributesCacheGenerator_Sprite_INTERNAL_get_border_m3728071101P21CustomAttributesCache
w8b:__ZNK9HPlayable15GetPlayableTypeEv
RYg:__Z117RuntimeInvoker_Void_t1185182177_CustomAttributeTypedArgumentU5BU5DU26_t2503877664_Int32_t2950945753_Int32_t2950945753PFvvEPK10MethodInfoPvPS4_
Xyb:__ZL17Transfer_GUIStyleI18StreamedBinaryReadILb1EELb1EEvRK29SerializationCommandArgumentsR31RuntimeSerializationCommandInfo
LVe:_RectMask2D_IsRaycastLocationValid_m1652308696
HUi:__ZN6il2cpp6icalls8mscorlib6SystemL9IsPrivateEPK12PropertyInfo
Dmi:_X501_ToString_m1148552872
hvg:_RectTransform_add_reapplyDrivenProperties_m1374850920
V9:__ZN9shadertag10InitializeEv
xVg:__Z69RuntimeInvoker_Void_t1185182177_Int32_t2950945753_Color32_t2600501292PFvvEPK10MethodInfoPvPS4_
YNb:__ZN13BatchRenderer20RenderSingleWithPassER17ShaderPassContextPK18SharedMaterialDataP6ShaderPN9ShaderLab4PassEiPKNS7_10GrabPassesEjib15BatchBreakCause
XNi:__ZN15dense_hashtableINSt3__24pairIK10KeyWrapperIPK19Il2CppGenericMethodEPK26Il2CppGenericMethodIndicesEES6_N6il2cpp8metadata23Il2CppGenericMethodHashEN14dense_hash_mapIS6_SA_SE_NS6_14EqualsComparerINSD_26Il2CppGenericMethodCompareEEENS0_9allocatorISB_EEE9SelectKeyESI_SK_ED2Ev
D5a:__ZN15QualitySettings14QualitySetting8TransferI24GenerateTypeTreeTransferEEvRT_
Qrj:__ZN6il2cpp5utils6Memory11AlignedFreeEPv
Dae:_Context_get_ClientWriteKey_m3174706656
$Rh:__ZL77ExecuteEvents_t3484638744_CustomAttributesCacheGenerator_U3CU3Ef__mgU24cache7P21CustomAttributesCache
dPe:_InputField_get_textComponent_m948764648
Dkc:__Z44Register_UnityEngine_Object_DestroyImmediatev
EBd:_Convert_ToSingle_m835189399
O9b:__ZN22BlockMemoryCacheWriter14LockCacheBlockEjPPhS1_
Xmc:__ZNSt3__218__insertion_sort_3IRPFbPKN5IMGUI9GUIWindowES4_EPPS2_EEvT0_SA_T_
Ffd:_CryptographicUnexpectedOperationException__ctor_m69881930
Swh:__ZL73TripleDESCryptoServiceProvider_t3595206342_CustomAttributesCacheGeneratorP21CustomAttributesCache
Fbh:_Collection_1_SetItem_m1218178236_gshared
Suc:__Z22TransferField_NonArrayI8JSONRead27Converter_SimpleNativeClassI8GUIStyleEEvRK23StaticTransferFieldInfoR31RuntimeSerializationCommandInfoRT0_
WOi:__ZN15dense_hashtableI10KeyWrapperIPK19Il2CppGenericMethodES4_N6il2cpp8metadata23Il2CppGenericMethodHashEN14dense_hash_setIS4_S7_NS4_14EqualsComparerINS6_26Il2CppGenericMethodCompareEEENSt3__29allocatorIS4_EEE8IdentityESB_SE_E16reset_thresholdsEv
Kg:_llvm_eh_typeid_for
q2b:__Z13RegisterClassI10GameObjectEvv
awd:_CollectionBase_OnClear_m883003723
qJe:_RemotingServices_FindInterfaceMethod_m2125212568
nz:__ZNK23AnimationPlayableOutput7GetTypeEv
CMd:_StreamWriter__cctor_m1229272693
CBf:_Enum_System_IConvertible_ToSByte_m779472798
Kcg:_Type_get_IsInterface_m3284996719
Wje:_InternalEnumerator_1_MoveNext_m1543390728_gshared
jBb:__Z18Transfer_BlittableI18StreamedBinaryReadILb0EELb1E8Vector4fEvRK29SerializationCommandArgumentsR31RuntimeSerializationCommandInfo
OFf:_SortKey_get_OriginalString_m1428586816
BVg:__Z51RuntimeInvoker_Void_t1185182177_Vector4_t3319028937PFvvEPK10MethodInfoPvPS4_
zTf:_Dictionary_2_U3CCopyToU3Em__0_m2023886030_gshared
SVg:__Z64RuntimeInvoker_Boolean_t97287965_RefEmitPermissionSet_t484390987PFvvEPK10MethodInfoPvPS4_
KIj:_glBindVertexArray__wrapper
Xcd:_SerializationInfo__ctor_m2923079689
F$a:__ZN8Material8TransferI14SafeBinaryReadEEvRT_
Q1a:__ZN12CubemapArray17UploadToGfxDeviceEv
gdi:_Func_2__ctor_m1150804732_gshared
DDd:_Int32_JumpOverWhite_m208298144
H6i:__ZN24dense_hashtable_iteratorINSt3__24pairIK10KeyWrapperIP11Il2CppClassES4_EES5_N6il2cpp8metadata16SZArrayClassHashEN14dense_hash_mapIS5_S4_SA_NS5_14EqualsComparerINS9_19SZArrayClassCompareEEENS0_9allocatorIS7_EEE9SelectKeyESE_SG_E30advance_past_empty_and_deletedEv
qXg:__Z53RuntimeInvoker_Int32_t2950945753_UIVertex_t4057497605PFvvEPK10MethodInfoPvPS4_
LHj:_emscripten_glGetUniformiv__wrapper
Hlj:__ZN6il2cpp2vm13ManagedObject14QueryInterfaceERK10Il2CppGuidPPv
YG:__ZN11AudioSource4StopEb
Rqb:__ZN14SafeBinaryRead21TransferSTLStyleArrayI13dynamic_arrayI10Matrix4x4fLj4EEEEvRT_17TransferMetaFlags
oTa:__ZN15LODGroupManager26CollectAllLODGroupManagersERK16CoreCameraValuesR13dynamic_arrayIPS_Lj4EEb
qqj:__ZN6il2cpp2os14WindowsRuntime13DeleteHStringEP15Il2CppHString__
ufg:_UInt32_System_IConvertible_ToUInt32_m1744564280_AdjustorThunk
yHa:__ZN18GlslGpuProgramGLESD2Ev
cZb:__ZN13RenderTexture14SetVolumeDepthEi
uS:__ZN11UnityEngine15CloudWebService14DataErrorEvent12ToJsonStringERN4core12basic_stringIcNS2_20StringStorageDefaultIcEEEEjPKc
yNg:__Z86RuntimeInvoker_Void_t1185182177_UInt16_t2177724958_SByte_t1669577662_SByte_t1669577662PFvvEPK10MethodInfoPvPS4_
Uma:__Z22LoadGpuProgramFromDataPKhS0_Rj
wvc:__ZN10Matrix4x4f8TransferI8JSONReadEEvRT_
OIc:__ZN14SafeBinaryRead21TransferSTLStyleArrayI13dynamic_arrayIN4core17string_with_labelILi35EEELj4EEEEvRT_17TransferMetaFlags
vVe:_PositionAsUV1_ModifyMesh_m4231919476
Gwd:_Hashtable__ctor_m1941859523
Rvi:_WindowFunction__ctor_m2544237635
_ue:_Comparer_1_get_Default_m1947376189_gshared
YXe:_ScrollRect_set_horizontalScrollbarSpacing_m2209919081
PY:__ZN17PersistentManager18ReadObjectThreadedEi
nEa:__ZN25TransformFeedbackSkinning31CleanupTransformFeedbackShadersEv
cTa:__Z22scripting_object_unbox18ScriptingObjectPtr
nIe:_AsyncResult_get_NextSink_m1844209137
UJc:__ZNK20TextRenderingPrivate8FontImpl19GetCharacterAdvanceEjijfPj
$Nf:_Array_InternalArray__ICollection_Add_TisUriScheme_t722425697_m3142345403_gshared
Wuj:_fmt_u
_0h:_Dictionary_2_Do_CopyTo_TisDictionaryEntry_t3123975638_TisDictionaryEntry_t3123975638_m1126292988_gshared
q7a:__ZN10VertexData8TransferI18StreamedBinaryReadILb0EEEEvRT_
Xtj:__ZN6il2cpp8metadata25Il2CppGenericClassCompare7CompareEPK18Il2CppGenericClassS4_
qQd:_MonoType_get_Assembly_m4290914179
Ulh:__ZL70RuntimeArray_CustomAttributesCacheGenerator_Array_GetValue_m1062368071P21CustomAttributesCache
Ona:__ZN9ShaderLab7ProgramC2E10MemLabelIdi10ShaderType
oZb:__ZN14PreloadManager16UpdatePreloadingEv
j2:__ZN12BaseRendererD2Ev
Iqf:_String_LastIndexOf_m95398196
A_h:_Array_InternalArray__set_Item_TisUILineInfo_t4195266810_m2313892078_gshared
zqe:_InternalEnumerator_1_System_Collections_IEnumerator_Reset_m3355902602_AdjustorThunk
Urg:_PlayableAsset__ctor_m2395156306
zTh:__ZL79StandaloneInputModule_t2760469101_CustomAttributesCacheGenerator_m_SubmitButtonP21CustomAttributesCache
RV:__ZNK21UnityDefaultAllocatorI17LowLevelAllocatorE8ContainsEPKv
YSi:__ZNSt3__213__vector_baseI6pollfdNS_9allocatorIS1_EEED2Ev
aed:_RuntimeTypeHandle_Equals_m2857439487
Uh:_emscripten_get_main_loop_timing
i5d:_SafeHandle_Finalize_m3866180675
C5a:__ZN24GenerateTypeTreeTransfer21TransferSTLStyleArrayINSt3__26vectorIN15QualitySettings14QualitySettingENS1_9allocatorIS4_EEEEEEvRT_17TransferMetaFlags
fLd:_MemoryStream_ToArray_m3911744835
lxe:_Enumerator_System_Collections_IDictionaryEnumerator_get_Entry_m859540448_AdjustorThunk
$Tg:__Z72RuntimeInvoker_Boolean_t97287965_RaycastHitU26_t2429360258_RuntimeObjectPFvvEPK10MethodInfoPvPS4_
Ltj:__ZN6il2cpp2os5Event4WaitEjb
ldg:_Type_GetHashCode_m1947148725
IIg:__Z91RuntimeInvoker_Void_t1185182177_RuntimeObject_RuntimeObject_RuntimeObject_SByte_t1669577662PFvvEPK10MethodInfoPvPS4_
zjb:__ZNK2UI13RectTransform22GetTypeVirtualInternalEv
ep:getTempRet0
mnf:_StrongName_get_Version_m4243032012
wne:_InternalEnumerator_1_MoveNext_m2234422530_gshared
sYi:__ZN6il2cpp2gc19AppendOnlyGCHashMapINSt3__24pairIPK14Il2CppAssemblyP11Il2CppClassEEP24Il2CppReflectionAssembly17ReflectionMapHashIS9_ENS2_8equal_toIS9_EEE10CopyValuesEPv
G_c:_BaseRaycaster_OnEnable_m2678466030
xwe:_Enumerator_get_CurrentKey_m627428048_AdjustorThunk
bng:_UnityEventBase__ctor_m1851535676
y0h:_Array_Sort_TisVector4_t3319028937_m2797285308_gshared
ude:_HandshakeMessage_Update_m2417837686
rih:_Collection_1_System_Collections_IList_get_Item_m3314684800_gshared
t8i:__ZN6il2cpp6icalls8mscorlib6System9ThreadingL21lookup_cached_cultureEP12Il2CppThreadi
Rpj:__ZN6il2cpp2os11EventHandleD2Ev
ymg:_NetFxCoreExtensions_CreateDelegate_m751211712
oUb:__ZN18DeferredRenderLoopD2Ev
rJi:_AnimationLayerMixerPlayable__cctor_m4086299972
J2:__ZNK16TypeTreeIterator4NameEv
rgh:_Collection_1_CopyTo_m756458445_gshared
X0:__ZN15FileSystemEntry3SetEPKc
eVd:_ConstructorBuilder_Invoke_m3010446651
A3c:_AspectRatioFitter_get_aspectMode_m3735191157
Bec:__Z52Register_UnityEngine_Application_set_targetFrameRatev
kaf:_IPv6Address_set_ScopeId_m3907190992
L4h:_ReadOnlyCollection_1_System_Collections_Generic_IListU3CTU3E_Insert_m568455025_gshared
OI:__ZN20SoundChannelInstance15ParameterBuffer5ApplyEPN4FMOD7ChannelE
_9e:_IPv6Address__ctor_m4117281080
UGh:__ZL88GameObject_t1113636619_CustomAttributesCacheGenerator_GameObject_SendMessage_m3720186693P21CustomAttributesCache
RJc:__ZN20TextRenderingPrivate19NativeTextGenerator9InsertTabEv
nzj:_sbrk
HRg:__Z66RuntimeInvoker_Boolean_t97287965_Vector2_t2156229523_RuntimeObjectPFvvEPK10MethodInfoPvPS4_
Rdh:_Collection_1_System_Collections_Generic_ICollectionU3CTU3E_get_IsReadOnly_m1032650589_gshared
a2f:_Enumerator_VerifyState_m3474272061_AdjustorThunk
BTc:__ZN11UnityEngine15PlatformWrapper24GetRuntimePlatformStringEv
Ei:_glIsEnabled
Zib:__ZN15CacheWriterBaseD2Ev
KUd:_DerivedType__ctor_m1853298054
Gpb:__Z25scripting_class_get_image17ScriptingClassPtr
Knf:_SecurityException__ctor_m836898292
N3f:_List_1_RemoveAt_m2730968292_gshared
Yfb:__ZNSt3__26vectorIN4core12basic_stringIcNS1_20StringStorageDefaultIcEEEE13stl_allocatorIS5_L18MemLabelIdentifier13ELi16EEEC2INS_11__wrap_iterIPS5_EEEET_SE_RKS8_PNS_9enable_ifIXaasr21__is_forward_iteratorISE_EE5valuesr16is_constructibleIS5_NS_15iterator_traitsISE_E9referenceEEE5valueEvE4typeE
Ii:_emscripten_glDrawElementsInstanced
ay:__ZN26AnimatorControllerPlayable27SetupStateMachineBehavioursEv
bKf:_Array_InternalArray__IEnumerable_GetEnumerator_TisSlot_t3975888750_m1869932007_gshared
JSe:_LayoutGroup_get_preferredWidth_m3816902260
SUa:__ZN18JobBatchDispatcherD2Ev
ujb:__ZN9Transform17MainThreadCleanupEv
yoj:_GC_clear_hdr_marks
GJj:_emscripten_glCreateShader__wrapper
$xc:_cff_fd_select_get
e$e:_Text_set_resizeTextForBestFit_m4095249125
hcf:_OidEnumerator_MoveNext_m3138911739
bWg:__Z53RuntimeInvoker_Boolean_t97287965_Keyframe_t4206410242PFvvEPK10MethodInfoPvPS4_
Ti:_emscripten_glGetShaderiv
OJ:__ZN4FMOD6System10getVersionEPj
aNc:__ZN2UI6Canvas23VirtualRedirectTransferER24GenerateTypeTreeTransfer
nZe:_Selectable_set_animationTriggers_m2970345687
bhh:_Collection_1_CopyTo_m4271769704_gshared
_sc:__ZN9JSONWrite8TransferIN4math12int2_storageEEEvRT_PKc17TransferMetaFlags
AIc:__ZN13TextRendering4Font13AwakeFromLoadE17AwakeFromLoadMode
$Df:_CompareInfo_LastIndexOf_m2688553706
qBf:_Enum__ctor_m3602080049
dqa:__ZN9GfxDevice21ReleaseSharedMeshDataEP14SharedMeshData
w1c:_MouseState__ctor_m1467839005
Xti:_Uri_IsDomainAddress_m2867513594
fdb:__ZNSt3__27__sort5IRNS_6__lessINS_4pairIPKN5Unity4TypeE7Hash128EES8_EEPS8_EEjT0_SC_SC_SC_SC_T_
Lzh:__ZL79Convert_t2465617642_CustomAttributesCacheGenerator_Convert_ToDouble_m2949593046P21CustomAttributesCache
E8c:_Dropdown_CreateItem_m2954407740
Fnj:_GC_unreachable_finalize_mark_proc
Edf:_X509Chain_ProcessCrlExtensions_m236234529
bpj:_maybe_finalize
QMi:__ZN6il2cpp2vm5Class40GetInterfaceInvokeDataFromVTableSlowPathEPK12Il2CppObjectPK11Il2CppClassj
tMf:_Array_InternalArray__IndexOf_TisLabelData_t360167391_m1826525656_gshared
fic:__Z43RectTransform_CUSTOM_INTERNAL_get_anchorMaxP12Il2CppObjectP13Vector2fIcall
hHi:_TextGenerator_INTERNAL_CALL_Populate_Internal_cpp_m4171649399
IGe:_RealProxy_get_ObjectIdentity_m2790771985
VFe:_RemotingConfiguration_RegisterChannelTemplate_m3105688054
gxf:_Decimal_Parse_m942471224
Z3a:__ZN8Material28UpdateHashesOnPropertyChangeEN9ShaderLab16FastPropertyNameE
Ich:_Collection_1_System_Collections_IList_get_Item_m1368877441_gshared
Gqh:__ZL56MethodBuilder_t2807316753_CustomAttributesCacheGeneratorP21CustomAttributesCache
r5d:_Locale_GetText_m3520169047
Pic:__Z53Register_UnityEngine_SortingLayer_GetLayerValueFromIDv
lHh:__ZL85RectOffset_t1369453676_CustomAttributesCacheGenerator_RectOffset_set_right_m807318764P21CustomAttributesCache
yob:__Z18Transfer_BlittableI14SafeBinaryReadLb1E8Vector4fEvRK29SerializationCommandArgumentsR31RuntimeSerializationCommandInfo
oWi:_SessionStateChanged_EndInvoke_m3128001178
G3c:_AspectRatioFitter_SetDirty_m2910185270
ZL:__ZN11AudioSource12AddToManagerEv
Os:__ZN8Animator23VirtualRedirectTransferER19StreamedBinaryWriteILb0EE
Jz:__ZN11UnityEngine9Animation32CreateAnimatorGenericBindingsOptERKNS0_20AnimationSetBindingsER9TransformPKN7mecanim9animation14AvatarConstantEPKNS0_21AvatarBindingConstantEbRNS6_6memory9AllocatorER8Animator
vcj:__ZN6il2cpp2vm5Image13ClassFromNameEPK11Il2CppImagePKcS6_
Szj:dynCall_vdddddd
Dka:__ZN24GenerateTypeTreeTransfer21TransferSTLStyleArrayINSt3__26vectorIN9ShaderLab14SerializedPassENS1_9allocatorIS4_EEEEEEvRT_17TransferMetaFlags
taa:__ZL32MarkLevelGameManagerDependenciesR27GarbageCollectorThreadState
Bsa:__ZNK13GfxDeviceGLES26HasActiveRandomWriteTargetEv
N6i:__GLOBAL__sub_I_Thread_cpp
jnh:__ZL54_MemberInfo_t3922476713_CustomAttributesCacheGeneratorP21CustomAttributesCache
AEj:_glGetActiveUniformsiv__wrapper
Mic:__Z43Register_UnityEngine_Material_EnableKeywordv
Cqg:_Mesh_GetIndices_m2873123901
h_:__ZN13MonoBehaviour19SetupScriptingCacheE17ScriptingClassPtrP10MonoScript
pTi:__ZNSt3__214__split_bufferIP12Il2CppThreadRNS_9allocatorIS2_EEED2Ev
cs:__Z20AnimationEventToMonoRK14AnimationEventR18MonoAnimationEvent
UTg:__Z106RuntimeInvoker_Void_t1185182177_Single_t1397266774_Single_t1397266774_Single_t1397266774_Int32_t2950945753PFvvEPK10MethodInfoPvPS4_
R6c:_FloatTween_set_targetValue_m3604919944_AdjustorThunk
wZ:__ZN17PersistentManager29ReadAndActivateObjectThreadedEiRK26SerializedObjectIdentifierP14SerializedFilebb
Zsd:_ArrayList_get_IsReadOnly_m913775115
k1c:_PointerEventData_get_dragging_m746831934
Zcg:_Type_get_TypeHandle_m160082026
uai:_ReadOnlyCollection_1_System_Collections_IEnumerable_GetEnumerator_m2781605075_gshared
Wda:__ZZN15DirectorManager15InitializeClassEvEN52PreLateUpdateDirectorUpdateAnimationBeginRegistrator7ForwardEv
NGf:_Array_get_swapper_TisCustomAttributeNamedArgument_t287865710_m4254011335_gshared
Iad:_Graphic_RegisterDirtyMaterialCallback_m106898453
gwi:_GUILayoutEntry_get_margin_m3174861737
mKa:__ZN4PPtrI6SpriteE8TransferI14SafeBinaryReadEEvRT_
aWf:_EqualityComparer_1_System_Collections_IEqualityComparer_Equals_m1672604045_gshared
L5i:__ZN15dense_hashtableINSt3__24pairIK10KeyWrapperIP11Il2CppClassES4_EES5_N6il2cpp8metadata16SZArrayClassHashEN14dense_hash_mapIS5_S4_SA_NS5_14EqualsComparerINS9_19SZArrayClassCompareEEENS0_9allocatorIS7_EEE9SelectKeyESE_SG_E16reset_thresholdsEv
L5g:_List_1_GetEnumerator_m2095602005_gshared
Vja:__ZNSt3__26vectorIN9ShaderLab14SerializedPassENS_9allocatorIS2_EEE8__appendEj
eja:__ZNSt3__26vectorIN9ShaderLab20SerializedSubProgram13BufferBindingENS_9allocatorIS3_EEEC2INS_11__wrap_iterIPS3_EEEET_SB_RKS5_PNS_9enable_ifIXaasr21__is_forward_iteratorISB_EE5valuesr16is_constructibleIS3_NS_15iterator_traitsISB_E9referenceEEE5valueEvE4typeE
F$g:__Z37RuntimeInvoker_Enumerator_t3436819725PFvvEPK10MethodInfoPvPS4_
qsg:_PlayableOutputHandle_op_Equality_m388301694
Z5f:_Encoding_get_ISOLatin1_m2107621369
y6d:_BigInteger_op_Inequality_m2697143438
_Hh:__ZL89Mathf_t3464937446_CustomAttributesCacheGenerator_Mathf_SmoothDamp_m394423605____maxSpeed4P21CustomAttributesCache
ilh:__ZL72IntPtr_t_CustomAttributesCacheGenerator_IntPtr_op_Inequality_m3063970704P21CustomAttributesCache
mmi:_SafeBag_get_ASN1_m2293701606
G3a:__ZN9Texture2D23VirtualRedirectTransferER18StreamedBinaryReadILb0EE
ytf:_DateTime_System_IConvertible_ToDouble_m2116720007_AdjustorThunk
qvd:_BitArrayEnumerator__ctor_m2359341397
n0f:_Enumerator_MoveNext_m1177880931_gshared
J1a:__ZNK12CubemapArray12GetDataWidthEv
yte:_DefaultComparer__ctor_m3288720761_gshared
GWg:__Z102RuntimeInvoker_Int32_t2950945753_RuntimeObject_Vector2_t2156229523_Int32_t2950945753_Int32_t2950945753PFvvEPK10MethodInfoPvPS4_
QNi:__ZN30dense_hashtable_const_iteratorINSt3__24pairIK10KeyWrapperIPKcEP11Il2CppClassEES5_N6il2cpp5utils11StringUtils12StringHasherIS4_EEN14dense_hash_mapIS5_S8_SE_NS5_14EqualsComparerINSB_13VmStringUtils21CaseSensitiveComparerEEENS0_9allocatorIS9_EEE9SelectKeyESJ_SL_E30advance_past_empty_and_deletedEv
YMh:__ZL73g_UnityEngine_TextRenderingModule_Assembly_CustomAttributesCacheGeneratorP21CustomAttributesCache
F$:__ZN16ScriptingManager27NativeTypeForScriptingClassE17ScriptingClassPtr
Vfg:_UInt64_System_IConvertible_ToDateTime_m3434604642
Ucg:_Type_get_IsSerializable_m1040556850
PCc:_get_sfnt_table
x$h:_Array_Resize_TisUIVertex_t4057497605_m1219201596_gshared
iqh:__ZL55StreamWriter_t1266378904_CustomAttributesCacheGeneratorP21CustomAttributesCache
bDe:_Dictionary_2_System_Collections_ICollection_get_IsSynchronized_m256515291_gshared
tX:__ZN8Renderer20RendererAddedToSceneEv
JVb:__ZL22ScheduleSceneNodesJobsP25ScheduleSceneNodesJobDataj
Jk:_emscripten_set_canvas_size
M9c:_Graphic_SetVerticesDirty_m2124914069
cEf:_CultureInfo__ctor_m3285927757
yUe:_MaskableGraphic_get_rootCanvasRect_m3492154629
s$h:_Array_Resize_TisRaycastResult_t3360306849_m1811054291_gshared
s5h:_ReadOnlyCollection_1_System_Collections_Generic_ICollectionU3CTU3E_get_IsReadOnly_m3152485890_gshared
zja:__ZNSt3__26vectorIN9ShaderLab20SerializedSubProgramENS_9allocatorIS2_EEE8__appendEj
zW:__ZN20DynamicHeapAllocatorI17LowLevelAllocatorE8AllocateEji
Exi:_Locale_GetText_m2427493201
DOb:__ZN20DynamicPropertySheet15SetVectorQueuedERKN9ShaderLab16FastPropertyNameERK8Vector4fN19ShaderPropertySheet8SetFlagsE
wA:__ZN7mecanim9animation22EvaluateAvatarRetargetEPKNS0_14AvatarConstantEPKNS0_11AvatarInputEPNS0_12AvatarOutputEPNS0_12AvatarMemoryEPNS0_15AvatarWorkspaceEb
Jqe:_InternalEnumerator_1_System_Collections_IEnumerator_Reset_m996811230_AdjustorThunk
RXa:__ZN14RenderSettings23VirtualRedirectTransferER19StreamedBinaryWriteILb0EE
WUd:_ConstructorBuilder_get_TypeBuilder_m2755629087
xrc:__ZL26Transfer_SimpleNativeClassI9JSONWrite10RectOffsetLb0EEvRK29SerializationCommandArgumentsR31RuntimeSerializationCommandInfo
Znj:_GC_push_conditional
Ewa:__ZN17GenericDynamicVBO10AllocateVBEjR21DynamicVBOChunkHandle
Xwf:_DBNull_ToString_m3638608738
ydj:__ZN30dense_hashtable_const_iteratorI10KeyWrapperIP18Il2CppGenericClassES3_N6il2cpp8metadata22Il2CppGenericClassHashEN14dense_hash_setIS3_S6_NS3_14EqualsComparerINS5_25Il2CppGenericClassCompareEEENSt3__29allocatorIS3_EEE8IdentityESA_SD_EppEv
nvd:_BitArray_Clone_m3537018332
jNe:_ObjectRecord_UnchainFixup_m3191243952
Bki:_TlsStream_get_CanWrite_m16389328
JOg:__Z65RuntimeInvoker_RuntimeObject_RuntimeObject_Vector3U26_t3464235976PFvvEPK10MethodInfoPvPS4_
hl:_glMapBufferRange
y3a:__ZN9Texture2D8TransferI18StreamedBinaryReadILb0EEEEvRT_
fhc:__Z31Input_CUSTOM_GetMouseButtonDowni
E8b:__ZN13PlayableGraph4PlayEv
Z7b:__Z29AddCanvasIntermediateRendererPN2UI6CanvasEPNS_13CanvasBuffersEP17VertexDeclarationjRK10Matrix4x4ftRK4AABB4PPtrI8MaterialEi17ShadowCastingModebP6Camerab
_qf:_String_Format_m3339413201
X4f:_EncoderExceptionFallbackBuffer_get_Remaining_m1573636148
tQd:_MonoType_get_BaseType_m1098640416
rLa:__ZN13LoadOperation19IntegrateTimeSlicedEi
Uki:_TlsStream_Read_m3392972801
DDi:__ZL25UnresolvedVirtualCall_132P12Il2CppObject17Color_t2555686324faaaPK10MethodInfo
Msa:__ZN13GfxDeviceGLES22DispatchComputeProgramE12ObjectHandleI18ComputeProgram_TagPvE15ComputeBufferIDj
LJb:__ZN20DefaultGfxDeviceImpl32InitStereoGlobalsBuffersPlatformEiijPKv
G6f:_Latin1Encoding_GetString_m254210343
Bhb:__Z17TransformAABBSlowRK4AABBRK10Matrix4x4fRS_
Tnd:_Array_combsort_m4052486289
_6a:__ZN15SerializeTraitsI13dynamic_arrayI12SpriteVertexLj4EEE19ResizeSTLStyleArrayERS2_i
j4f:_List_1_System_Collections_ICollection_get_SyncRoot_m314215814_gshared
Wha:__ZN9ShaderLab21SerializedShaderState8TransferI14SafeBinaryReadEEvRT_
sCf:_Environment_GetWindowsFolderPath_m1738399646
Aah:_Queue_1_System_Collections_Generic_IEnumerableU3CTU3E_GetEnumerator_m2263220760_gshared
Q7g:_List_1_Sort_m378918663_gshared
azc:_cf2_stack_pushInt
HD:__ZN7mecanim9animation20DestroyLayerConstantEPNS0_13LayerConstantERNS_6memory9AllocatorE
nA:__ZN8Animator19FireAnimationEventsERNS_11AnimatorJobE
P$d:_Module_GetCustomAttributes_m76573271
xfd:_CryptoConfig_EncodeOID_m2635914623
Fka:__ZN15SerializeTraitsINSt3__24pairIN4core12basic_stringIcNS2_20StringStorageDefaultIcEEEES6_EEE8TransferI24GenerateTypeTreeTransferEEvRS7_RT_
$Gj:b89
_Gj:b88
AGj:b81
zGj:b80
iFa:__ZN7ApiGLES19CreateSparseTextureEjj14GraphicsFormatiiiiRiS1_S1_
n0:__ZN18ResourceImageGroup7CleanupEv
TGj:b85
SGj:b84
VGj:b87
UGj:b86
Ap:__ZN11Quaternionf8TransferI24GenerateTypeTreeTransferEEvRT_
vKe:_RemotingSurrogateSelector_GetSurrogate_m3900875713
vNg:__Z69RuntimeInvoker_Boolean_t97287965_UInt16_t2177724958_Int16_t2552820387PFvvEPK10MethodInfoPvPS4_
R7h:_ReadOnlyCollection_1_System_Collections_IList_get_IsReadOnly_m3626439112_gshared
O9d:_CertificateValidationCallback_Invoke_m1014111289
PYa:__ZN8Playable19SetOutputConnectionEPS_i
Dih:__ZN23InterfaceActionInvoker2Ii19Vector2_t2156229523E6InvokeEjP11Il2CppClassP12Il2CppObjectiS0_
fNi:__ZN15dense_hashtableINSt3__24pairIK10KeyWrapperIPK11Il2CppClassEPKcEES6_N6il2cpp5utils11PointerHashIS3_EEN14dense_hash_mapIS6_S9_SE_NS6_14EqualsComparerINS0_8equal_toIS5_EEEENS0_9allocatorISA_EEE9SelectKeyESJ_SL_EC2ERKSO_j
Wl:_glDeleteShader
HAa:__ZN6prcoreL17RemapGenericFloatI15TexFormatRGHalf16TexFormatRGFloatEEvPKNS_9InnerInfoE
j0h:_Array_Sort_TisUICharInfo_t75501106_m128665067_gshared
tBc:_otv_GSUB_validate
ljf:_RSAPKCS1SignatureDeformatter_SetHashAlgorithm_m1602190713
uBf:_Enum_System_IConvertible_ToByte_m1219166845
DCe:_Dictionary_2_CopyToCheck_m45332585_gshared
r5g:_List_1_System_Collections_ICollection_get_IsSynchronized_m3630704857_gshared
tke:_InternalEnumerator_1_System_Collections_IEnumerator_Reset_m4239728915_AdjustorThunk
cdc:__Z27scripting_add_internal_callPKcPKv
zhh:__ZN21InterfaceFuncInvoker1Ib20UIVertex_t4057497605E6InvokeEjP11Il2CppClassP12Il2CppObjectS0_
D2i:__ZN13Il2CppHashMapINSt3__24pairIPK9EventInfoP11Il2CppClassEEj17ReflectionMapHashIS7_ENS0_8equal_toIS7_EENS0_9allocatorINS1_IK10KeyWrapperIS7_EjEEEEEC2EjRKS9_RKSB_
oej:__GLOBAL__sub_I_GarbageCollector_cpp
d5:__Z17GetPlayerSettingsv
WA:__ZN34BlobWriteTransferSTLStyleArrayImplI22OffsetPtrArrayTransferIiEEclERS1_17TransferMetaFlagsR9BlobWrite
cYh:__ZL156U3CDelayUpdateU3Ec__Iterator0_t299064644_CustomAttributesCacheGenerator_U3CDelayUpdateU3Ec__Iterator0_System_Collections_IEnumerator_get_Current_m2906633870P21CustomAttributesCache
qog:_Input_get_inputString_m1307069105
H0d:_MonoField_get_FieldHandle_m3729647377
vXe:_ScrollRect_get_content_m2477524320
txe:_Enumerator_MoveNext_m1556953412_AdjustorThunk
jt:__ZN26AnimatorControllerPlayable18SetLayerAutoWeightEv
qSc:__Z44Register_UnityEngine_Canvas_get_pixelPerfectv
Vsi:_Literal_GetAnchorInfo_m810577400
YJh:__ZL101RectTransform_t3704657025_CustomAttributesCacheGenerator_RectTransform_INTERNAL_set_pivot_m1160676233P21CustomAttributesCache
BPc:__ZN2UI14CanvasRenderer12SyncMaterialENS0_8SyncFlagE
OMd:_StreamWriter_Write_m1660535366
bYg:__Z66RuntimeInvoker_Void_t1185182177_Int32_t2950945753_Link_t3209266973PFvvEPK10MethodInfoPvPS4_
Wrj:__ZN6il2cpp2vm9Parameter30GetDefaultParameterValueObjectEPK10MethodInfoPK13ParameterInfoPb
z8f:_UTF8Encoding_GetByteCount_m4152118078
FXg:__Z71RuntimeInvoker_Void_t1185182177_CustomAttributeNamedArgument_t287865710PFvvEPK10MethodInfoPvPS4_
l5e:_KeyPairPersistence__CanSecure_m3516574278
sDe:_Dictionary_2_make_pair_m3116882385_gshared
rJg:__Z95RuntimeInvoker_Void_t1185182177_RuntimeObject_RuntimeObject_Int32_t2950945753_SByte_t1669577662PFvvEPK10MethodInfoPvPS4_
Xhd:_MD5CryptoServiceProvider_Dispose_m3502499818
Peh:_Collection_1_System_Collections_IList_get_Item_m2422562729_gshared
sQg:__Z87RuntimeInvoker_Void_t1185182177_RuntimeObject_StringU26_t181565287_StringU26_t181565287PFvvEPK10MethodInfoPvPS4_
ove:_Comparer_1_get_Default_m1596450988_gshared
emh:__ZL74RuntimeArray_CustomAttributesCacheGenerator_Array_BinarySearch_m3171087170P21CustomAttributesCache
Flh:__ZL72Enum_t4135868527_CustomAttributesCacheGenerator_Enum_ToObject_m122225012P21CustomAttributesCache
CDc:_UNITY_tt_face_done_kern
Iae:_SecurityParameters_get_ServerWriteMAC_m3430427271
hPh:__ZL90GUIStyle_t3956901511_CustomAttributesCacheGenerator_GUIStyle_get_stretchHeight_m4172805773P21CustomAttributesCache
The:_ArrayReadOnlyList_1_RemoveAt_m2104218585_gshared
qab:__ZN12BoneWeights48TransferI24GenerateTypeTreeTransferEEvRT_
sKf:_Array_InternalArray__IEnumerable_GetEnumerator_TisParameterModifier_t1461694466_m3675077728_gshared
UFi:_InputBuffer_GetCurrentInputLine_m3377313537
BWh:__ZL60RawImage_t3182918964_CustomAttributesCacheGenerator_m_UVRectP21CustomAttributesCache
pGb:__Z19scripting_gc_enablev
dre:_InternalEnumerator_1_get_Current_m2907722321_gshared
rKb:__ZZ23InitPlayerLoopCallbacksvEN41InitializationPlayerUpdateTimeRegistrator7ForwardEv
Occ:__ZN11UTF16StringC2ERKS_10MemLabelId
I_b:__Z29StdTemplateConversionFunctionIihEbPvR14SafeBinaryRead
ose:_InternalEnumerator_1_get_Current_m3792939945_AdjustorThunk
rRc:__Z55Register_UnityEngine_CanvasRenderer_DisableRectClippingv
R9a:__ZN14SafeBinaryRead21TransferSTLStyleArrayI13dynamic_arrayI11ColorRGBA32Lj4EEEEvRT_17TransferMetaFlags
tub:__ZL26Transfer_SimpleNativeClassI24GenerateTypeTreeTransfer8GradientLb0EEvRK29SerializationCommandArgumentsR31RuntimeSerializationCommandInfo
fWh:__ZL118U3CCaretBlinkU3Ec__Iterator0_t2589889038_CustomAttributesCacheGenerator_U3CCaretBlinkU3Ec__Iterator0_Reset_m1547565867P21CustomAttributesCache
LIa:__ZN9GfxDevice22UploadTextureCubeArrayE9TextureIDPKhjii14GraphicsFormati18TextureUploadFlags
Ule:_InternalEnumerator_1_System_Collections_IEnumerator_get_Current_m888718134_gshared
lFg:__Z175RuntimeInvoker_Void_t1185182177_SByte_t1669577662_SByte_t1669577662_SByte_t1669577662_SByte_t1669577662_SByte_t1669577662_SByte_t1669577662_SByte_t1669577662_SByte_t1669577662PFvvEPK10MethodInfoPvPS4_
prg:_Object_Destroy_m3118546832
ouf:_DateTime_FromTicks_m4059645178_AdjustorThunk
l2h:_Array_InternalArray__get_Item_TisClientCertificateType_t1004704908_m2297379651_gshared
WFe:_ConfigHandler_ParseTime_m1787834288
Fma:__ZN9ShaderLab7Program27CreateFromSerializedProgramERKNS_17SerializedProgramE10ShaderTypeiP16PropertyNamesSetPK6Shader
XSd:_Assembly_Load_m3487507613
gXa:__ZNSt3__27__sort4IRNS_6__lessIN4core12basic_stringIcNS2_20StringStorageDefaultIcEEEES6_EEPS6_EEjT0_SA_SA_SA_T_
wAj:dynCall_viiiifii
f1i:__ZN6il2cpp2gc19AppendOnlyGCHashMapINSt3__24pairIPK11Il2CppImageP11Il2CppClassEEP22Il2CppReflectionModule17ReflectionMapHashIS9_ENS2_8equal_toIS9_EEEC2Ev
MY:__Z20GetPersistentManagerv
SGc:_UNITY_TT_Set_Var_Design
j8:__ZN21SystemInfoStringCache16StaticInitializeEPv
Jzh:__ZL80Convert_t2465617642_CustomAttributesCacheGenerator_Convert_ToDecimal_m1695757674P21CustomAttributesCache
oZe:_Selectable_get_targetGraphic_m559777690
M4h:_ReadOnlyCollection_1_System_Collections_Generic_ICollectionU3CTU3E_Remove_m1100818788_gshared
vej:__ZNK10KeyWrapperIP12Il2CppObjectE14EqualsComparerINSt3__28equal_toIS1_EEEclERKS2_S9_
_ia:__ZNSt3__26vectorIN9ShaderLab20SerializedSubProgram15StructParameterENS_9allocatorIS3_EEE6assignIPS3_EENS_9enable_ifIXaasr21__is_forward_iteratorIT_EE5valuesr16is_constructibleIS3_NS_15iterator_traitsISA_E9referenceEEE5valueEvE4typeESA_SA_
zjh:_Collection_1_IsSynchronized_m2291009199_gshared
EDb:__ZNK13MonoBehaviour7GetNameEv
Eib:__ZN19ScriptingInvocation28AdjustArgumentsToMatchMethodEv
eii:_IndexedSet_1_Contains_m1525966688_gshared
zG:__Z15_CheckFMODError11FMOD_RESULTPKciS1_
F7i:__ZN6il2cpp6icalls8mscorlib6SystemL16ThrowInvalidCastEPK11Il2CppClassS5_
RVa:__Z20RenderMultipleMeshesRK15RenderNodeQueueRK18RenderMultipleData17ShaderChannelMask
BXf:_EqualityComparer_1_get_Default_m79107703_gshared
NWc:__ZN11UnityEngine15PlatformWrapper20GetPlayerPrefsStringERKN4core12basic_stringIcNS1_20StringStorageDefaultIcEEEES5_
uUe:_MaskableGraphic_get_maskable_m1260382606
a6f:_Latin1Encoding__ctor_m498920120
VXi:__ZN6il2cpp2vm4Type19GetGenericParameterEPK10Il2CppType
mMd:_StreamReader_Peek_m2272511193
ivf:_DateTimeFormatInfo_FillAllDateTimePatterns_m2683124783
SQc:__Z51Register_UnityEngine_CanvasGroup_get_blocksRaycastsv
mRd:_NumberFormatter_get_IsFloatingSource_m3714711779
bgh:_Collection_1_System_Collections_IList_Add_m1403891193_gshared
zle:_InternalEnumerator_1_System_Collections_IEnumerator_Reset_m169899350_AdjustorThunk
Adg:_Type_GetConstructor_m1195697116
sd:_glBeginQuery
zph:__ZL104RegionInfo_t1090270226_CustomAttributesCacheGenerator_RegionInfo_t1090270226____DisplayName_PropertyInfoP21CustomAttributesCache
MHi:_Canvas_get_scaleFactor_m3314757802
SLb:__ZN6Camera12RenderStereoENS_10RenderFlagE8CullFlagPNS_24PerformEyeRenderFunctionE
Hlb:__ZN20LocalFileSystemPosix10ToAbsoluteEPKc
GVa:__ZN20TierGraphicsSettings8TransferI19StreamedBinaryWriteILb0EEEEvRT_
XJj:b111
Q7:__GLOBAL__sub_I_runtime_input_0_cpp
Zkj:__ZN6il2cpp2vm13ComObjectBase16DisconnectObjectEj
aZf:_GenericComparer_1__ctor_m3652072706_gshared
Bm:f0
aKa:__ZN9BehaviourD0Ev
gVa:__Z32TransferEnumWithNameForceIntSizeI14SafeBinaryRead7HDRModeEvRT_RT0_PKc17TransferMetaFlags
Wvj:_getcwd
DKa:__ZN25ThreadsafeLinearAllocatorD2Ev
Sgb:__Z21SendMessageToEveryoneRK17MessageIdentifier11MessageData
Cca:__ZN21BillboardBatchManager16StaticInitializeEPv
ftf:_DateTime_AbsoluteDays_m4235097773
w9:__ZN12_GLOBAL__N_138ArchiveRedirectFileSystemStaticDestroyEPv
Wmh:__ZL126U3CGetEnumeratorU3Ec__Iterator0_t1202911786_CustomAttributesCacheGenerator_U3CGetEnumeratorU3Ec__Iterator0_Dispose_m2078994225P21CustomAttributesCache
xAg:__Z74RuntimeInvoker_RuntimeObject_RuntimeObject_RuntimeObject_SByte_t1669577662PFvvEPK10MethodInfoPvPS4_
enh:__ZL69Type_t_CustomAttributesCacheGenerator_Type_GetConstructor_m1195697116P21CustomAttributesCache
F7c:_DefaultControls_CreateScrollView_m3842770629
N1a:__ZN12CubemapArray34UpdateFileTextureUploadInstructionEP26FileAssetUploadInstructionj
tqh:__ZL94EnumBuilder_t2400448213_CustomAttributesCacheGenerator_EnumBuilder_GetConstructors_m3294436155P21CustomAttributesCache
iZg:__Z55RuntimeInvoker_TableRange_t3332867892_Int32_t2950945753PFvvEPK10MethodInfoPvPS4_
Moe:_InternalEnumerator_1_MoveNext_m1020308708_gshared
hFa:__Z23CreateSparseTextureGLES9TextureIDii14GraphicsFormati
$Bc:_otv_Anchor_validate
qGf:_Guid_CompareTo_m243656946_AdjustorThunk
bDf:_CCMath_mod_m3631663509
ccg:_TimeSpan_Negate_m1889505500_AdjustorThunk
h8h:_ReadOnlyCollection_1_System_Collections_ICollection_CopyTo_m2715087453_gshared
EQh:__ZL84Canvas_t3310196443_CustomAttributesCacheGenerator_Canvas_get_scaleFactor_m3314757802P21CustomAttributesCache
Mye:_Transform_1__ctor_m2810088858_gshared
zKc:__ZNSt3__23mapIN20TextRenderingPrivate7FontRefEP11FT_FaceRec_NS_4lessIS2_EENS_9allocatorINS_4pairIKS2_S4_EEEEEixERS9_
WMa:__ZN17ArchiveFileSystem10AddStorageEP20ArchiveStorageReader
bDi:__ZL25UnresolvedVirtualCall_104P12Il2CppObjectS0_S0_S0_iPK10MethodInfo
oSi:__ZN6il2cpp2vm13MetadataCache37GetParameterDefaultValueDataFromIndexEi
_3i:_il2cpp_class_get_assemblyname
hKg:__Z50RuntimeInvoker_SByte_t1669577662_SByte_t1669577662PFvvEPK10MethodInfoPvPS4_
rad:_Graphic_OnFillVBO_m1026749972
sLi:__ZN6il2cpp2vm5Class15GetEnumBaseTypeEP11Il2CppClass
Pce:_Context_set_WriteSequenceNumber_m942577065
Xd:_glVertexAttrib4fv
qlj:__ZNK6il2cpp5utils13VmStringUtils23CaseInsensitiveComparerclERKNSt3__212basic_stringIcNS3_11char_traitsIcEENS3_9allocatorIcEEEEPKc
N4c:_CanvasScaler_SetScaleFactor_m3006968999
o$g:__Z78RuntimeInvoker_Boolean_t97287965_Navigation_t3049316579_Navigation_t3049316579PFvvEPK10MethodInfoPvPS4_
P2a:__ZNK9Texture2D16GetNpotTexelSizeEv
iRd:_NumberFormatter_Init_m3576155222
sMa:__ZL33FileEntryInfoListToFolderContentsRKN4core12basic_stringIcNS_20StringStorageDefaultIcEEEERK19dynamic_block_arrayI13FileEntryInfoLj32EERNSt3__23setIS3_NSB_4lessIS3_EENSB_9allocatorIS3_EEEE
JTe:_LayoutUtility_GetLayoutProperty_m714717302
FGi:_Terminal_NotifyCommandHandlers_m909296863
O_c:_EventSystem_set_sendNavigationEvents_m983981895
Tpa:__ZN9GfxDevice22GetDefaultVertexBufferE26GfxDefaultVertexBufferTypej
rHf:_Array_InternalArray__ICollection_Contains_TisInt64_t3736567304_m2911357929_gshared
NLb:__ZNK6Camera16GetTargetDisplayEv
afh:_Collection_1_Remove_m3022471627_gshared
mwj:___fseeko_unlocked
SRd:_Object_ToString_m1740002499
ewj:_sscanf
l0c:_ExecuteEvents_GetEventChain_m2404658789
oHb:__Z17BeginSplashScreenv
w$h:_Array_Resize_TisUILineInfo_t4195266810_m3763058392_gshared
Ted:_SByte_ToString_m3584531119_AdjustorThunk
wla:__ZN9ShaderLab16SerializedShader8TransferI19StreamedBinaryWriteILb0EEEEvRT_
TC:__ZN7mecanim9animation18CreateAvatarMemoryEPKNS0_14AvatarConstantERNS_6memory9AllocatorE
Mrd:_Convert_ToInt32_m1876369743
Y5d:_ModulusRing__ctor_m2420310199
aAd:_Convert_ToDateTime_m626620011
Oxe:_Enumerator_System_Collections_IDictionaryEnumerator_get_Key_m2500634048_AdjustorThunk
FB:__ZN7mecanim8skeleton16SkeletonPoseCopyIN4math4trsXENS2_7affineXEEEvPKNS0_13SkeletonPoseTIT_EEPNS5_IT0_EE
Iwb:__Z18Transfer_BlittableI19StreamedBinaryWriteILb0EELb0EaEvRK29SerializationCommandArgumentsR31RuntimeSerializationCommandInfo
P2f:_List_1_Remove_m3037048099_gshared
mwa:__ZN18GfxFramebufferGLES18GetFramebufferNameERK20GfxRenderTargetSetup
iXi:__ZN6il2cpp2vm14TypeNameParser12ParseVersionERKNSt3__212basic_stringIcNS2_11char_traitsIcEENS2_9allocatorIcEEEERtSB_SB_SB_
XQe:_InputField_MoveDown_m1455948167
Lnc:__Z30Event_Get_Custom_PropCharacterP12Il2CppObject
pea:__ZN13PlayableGraph27SchedulePlayableDestructionERK9HPlayable
kBc:_cff_get_mm_var
CDj:_glGetFramebufferAttachmentParameteriv__wrapper
IEe:_ChannelServices_GetCurrentChannelInfo_m3041604116
dXc:__Z13RegisterClassI20UnityConnectSettingsEvv
Ere:_InternalEnumerator_1__ctor_m2635640285_AdjustorThunk
Dpb:__Z22scripting_array_length17ScriptingArrayPtr
_Md:_SynchronizedReader_Peek_m148942882
fEg:__Z95RuntimeInvoker_Void_t1185182177_RuntimeObject_Int32_t2950945753_Int32_t2950945753_RuntimeObjectPFvvEPK10MethodInfoPvPS4_
_1a:__ZN14SafeBinaryRead20TransferTypelessDataEjPvi
iIc:_Horizontal_Sweep_Init
qN:__ZN13dynamic_arrayI12SoundChannelLj4EE9push_backERKS0_
a5:__Z19GetActiveColorSpacev
cDc:_UNITY_tt_face_load_kern
j0d:_MonoMethodInfo_GetDeclaringType_m2924452727
BIb:__ZN13sorted_vectorINSt3__24pairIiN17InstancingBatcher12PropertyTypeEEEN10vector_mapIiS3_NS0_4lessIiEE13stl_allocatorIS4_L18MemLabelIdentifier1ELi16EEE13value_compareESA_E21sort_clear_duplicatesEv
xQc:__ZZN2UI14CanvasRenderer15InitializeClassEvEN38FunctorImpl_909kCanvasHierarchyChanged4CallEPviR11MessageData
C$:__Z6StrCmpPKcS0_
LEd:_NumberFormatter_AppendIntegerString_m2257376141
Nna:__Z21CheckGpuProgramUsable20ShaderGpuProgramType
$3b:__ZN13ProduceHelperI14Texture2DArrayLb0EE7ProduceE10MemLabelId18ObjectCreationMode
Nhj:__ZN6il2cpp2os9Directory20GetFileSystemEntriesERKNSt3__212basic_stringIcNS2_11char_traitsIcEENS2_9allocatorIcEEEESA_iiPi
Dmd:_Array_System_Collections_IList_Add_m1063688101
uWh:__ZL66Navigation_t3049316579_CustomAttributesCacheGenerator_m_SelectOnUpP21CustomAttributesCache
JJc:__ZN20TextRenderingPrivate19NativeTextGenerator5SetupEv
YSb:__ZNK15SharedLightData24GetFinalShadowResolutionEv
Ypi:_PatternCompiler_EmitAlternationEnd_m2444359097
SGh:__ZL91GameObject_t1113636619_CustomAttributesCacheGenerator_GameObject_get_activeSelf_m1767405923P21CustomAttributesCache
meb:__ZN12AspectRatios8TransferI18StreamedBinaryReadILb0EEEEvRT_
S7b:__ZN10GameObject14CopyPropertiesERS_
zoc:__Z44Register_UnityEngine_GUIStyle_get_fixedWidthv
oIf:_Array_InternalArray__ICollection_Remove_TisLink_t544317964_m1280781374_gshared
xhj:__ZNSt3__214__split_bufferIN6il2cpp2os10ThreadImpl10APCRequestERNS_9allocatorIS4_EEEC2EjjS7_
Rod:_BitConverter_DoubleWordsAreSwapped_m1474345095
q6a:__ZNK13ScreenManager12IsFullScreenEv
hud:_FixedSizeArrayListWrapper_set_Capacity_m4221053039
Hwj:_rand
eEj:_emscripten_glFramebufferRenderbuffer__wrapper
Zac:__ZN13MeshScripting10CreateMeshE21ScriptingObjectOfTypeI4MeshE
bji:_ListPool_1__cctor_m3480273184_gshared
iQg:__Z56RuntimeInvoker_Void_t1185182177_PropertyName_t3749835189PFvvEPK10MethodInfoPvPS4_
T$c:__ZN23InterfaceActionInvoker1IP25BaseEventData_t3903027533E6InvokeEjP11Il2CppClassP12Il2CppObjectS1_
zqb:__ZN14SafeBinaryRead21TransferSTLStyleArrayINSt3__26vectorI17AnimationCurveTplIfE13stl_allocatorIS4_L18MemLabelIdentifier1ELi16EEEEEEvRT_17TransferMetaFlags
Mud:_SynchronizedArrayListWrapper_Contains_m3809499313
BIf:_Array_InternalArray__ICollection_Remove_TisLabelData_t360167391_m3556246844_gshared
k$i:__ZN15dense_hashtableINSt3__24pairIK10KeyWrapperINS1_IPK11Il2CppImageP11Il2CppClassEEEjEES9_17ReflectionMapHashIS8_EN14dense_hash_mapIS9_jSD_NS9_14EqualsComparerINS0_8equal_toIS8_EEEENS0_9allocatorISB_EEE9SelectKeyESI_SK_E12expand_arrayEjN21dense_hash_map_traits17integral_constantIbLb0EEE
vhd:_HMACSHA256__ctor_m346174875
mkg:_Color_op_Multiply_m2887457390
sVb:__Z22PrepareOptimizedPlanesPK5PlaneiPKN4math7_float4E
Hle:_InternalEnumerator_1__ctor_m1559487635_gshared
nV:__ZN11UnityEngine15CloudWebService17WebFileDownloaderINS0_20WebRequestRestClientENS0_23WebRequestRestHeaderMapEE10InitializeERKN4core12basic_stringIcNS5_20StringStorageDefaultIcEEEE
Aca:__ZN17UniqueIDGenerator15CreatePureIndexEv
zr:__ZN11UnityEngine9Animation28GenericAnimationBindingCache15DidReloadDomainEv
cfb:__ZNSt3__26vectorIN15ResourceManager10DependencyE13stl_allocatorIS2_L18MemLabelIdentifier52ELi16EEE6assignINS_11__wrap_iterIPS2_EEEENS_9enable_ifIXaasr21__is_forward_iteratorIT_EE5valuesr16is_constructibleIS2_NS_15iterator_traitsISC_E9referenceEEE5valueEvE4typeESC_SC_
HKi:__ZN15dense_hashtableINSt3__24pairIK10KeyWrapperIPK22Il2CppGenericParameterEP11Il2CppClassEES6_N6il2cpp5utils11PointerHashIS4_EEN14dense_hash_mapIS6_S9_SE_NS6_14EqualsComparerINS0_8equal_toIS5_EEEENS0_9allocatorISA_EEE9SelectKeyESJ_SL_E14squash_deletedEv
U_a:__ZN9ShaderLabL27GetDesiredRenderTextureDescEPK6Camera
xwh:__ZL131RSACryptoServiceProvider_t2683512874_CustomAttributesCacheGenerator_RSACryptoServiceProvider_t2683512874____PublicOnly_PropertyInfoP21CustomAttributesCache
eQf:_Array_InternalArray__Insert_TisMark_t3471605523_m2854535880_gshared
Yya:__ZN6prcoreL29inner_stretch_rgb565_bilinearEPKNS_9InnerInfoE
Vlc:__Z14GUIClipTextureP9Texture2DPhiiii
FNh:__ZL52HumanBone_t2465339518_CustomAttributesCacheGeneratorP21CustomAttributesCache
cKe:_MethodReturnDictionary__cctor_m278392388
ODi:__ZL25UnresolvedVirtualCall_143P12Il2CppObjectaaPK10MethodInfo
uY:__ZNK9Transform18TransformDirectionERK8Vector3f
fhe:_SslStreamBase_get_CanWrite_m1622082918
INa:__ZNK17ArchiveFileSystem12GetAssetGUIDERK13FileEntryData
Fna:__ZNSt3__26vectorIN9ShaderLab20SerializedSubProgram15MatrixParameterENS_9allocatorIS3_EEE21__push_back_slow_pathIKS3_EEvRT_
hYh:__ZL80CanvasScaler_t2767979955_CustomAttributesCacheGenerator_m_ReferencePixelsPerUnitP21CustomAttributesCache
MBc:_otv_MarkLigPos_validate
V2e:_PrimalityTests_RabinMillerTest_m1471415870
R$f:_Enumerator_MoveNext_m2114485647_gshared
ZDi:__ZL25UnresolvedVirtualCall_154P12Il2CppObject40CustomAttributeTypedArgument_t2723150157PK10MethodInfo
bYd:_GenericTypeParameterBuilder_GetCustomAttributes_m580748276
ZQi:__ZN15dense_hashtableINSt3__24pairIK10KeyWrapperIPK11Il2CppClassEPKcEES6_N6il2cpp5utils11PointerHashIS3_EEN14dense_hash_mapIS6_S9_SE_NS6_14EqualsComparerINS0_8equal_toIS5_EEEENS0_9allocatorISA_EEE9SelectKeyESJ_SL_E12resize_deltaEjj
qyj:__ZNK10__cxxabiv120__si_class_type_info27has_unambiguous_public_baseEPNS_19__dynamic_cast_infoEPvi
b6d:_Kernel_LeftShift_m4140742987
KSd:_Assembly_GetManifestResourceInternal_m1224391897
Iwa:__Z30AddDefaultStreamsToMeshBuffersR9GfxDeviceR11MeshBuffersj17ShaderChannelMaskS3_
f9:__ZL16GetInterfaceImpl18UnityInterfaceGUID
LLi:__ZN6il2cpp2vmL17SetupFieldOffsetsENS0_15FieldLayoutKindEP11Il2CppClassjRKNSt3__26vectorIjNS4_9allocatorIjEEEE
Okj:__ZN6il2cpp6icalls8mscorlib6System15MonoCustomAttrs27GetCustomAttributesInternalEP12Il2CppObjectP20Il2CppReflectionTypeb
Wb:invoke_viifi
nHc:_UNITY_TT_Set_MM_Blend
R7:__GLOBAL__sub_I_runtime_math_random_0_cpp
uji:_InternalAsyncResult_get_FromWrite_m4228047810
vHg:__Z53RuntimeInvoker_MonoEventInfo_t346866618_RuntimeObjectPFvvEPK10MethodInfoPvPS4_
Nhh:_Collection_1_CopyTo_m955200729_gshared
BHb:__ZN14PreloadManager35WaitForAllAsyncOperationsToCompleteEv
nXf:_EqualityComparer_1__ctor_m1138336971_gshared
B_:__ZNK18ScriptingObjectPtr17ToScriptingStringEv
gI:__ZL31InitializeAudioScriptingClassesv
MMb:__Z14SortGUIByDepthP10GUIElementS0_
B8:__ZN13RuntimeStaticI13dynamic_arrayIPK31TransferFunctionScriptingTraitsLj4EELb0EE16StaticInitializeEPv
mMg:__Z69RuntimeInvoker_UInt32_t2560061978_Int32_t2950945753_SByte_t1669577662PFvvEPK10MethodInfoPvPS4_
qC:__ZN12_GLOBAL__N_120ProcessRootMotionMixER33AnimationPlayableEvaluationOutputR35AnimationPlayableEvaluationConstantR32AnimationPlayableEvaluationInputS1_f
Fui:_UriParser__cctor_m3655686731
zTe:_LayoutRebuilder_U3Cs_RebuildersU3Em__0_m589488547
M_g:__Z53RuntimeInvoker_KeyValuePair_2_t71524366_RuntimeObjectPFvvEPK10MethodInfoPvPS4_
hmb:__ZNK20LocalFileSystemPosix21GetAvailableDiskSpaceEPKcRy
p8:__ZNSt3__26__treeIiNS_4lessIiEENS_9allocatorIiEEE7destroyEPNS_11__tree_nodeIiPvEE
mpa:__ZNK9GfxDevice14GetWorldMatrixEv
Ruc:__ZN8JSONRead8TransferI8Vector2fEEvRT_PKc17TransferMetaFlagsb
iyg:_Transform_set_parent_m786917804
Ijj:__ZN15dense_hashtableINSt3__24pairIK10KeyWrapperIPK19Il2CppGenericMethodEP10MethodInfoEES6_N6il2cpp8metadata23Il2CppGenericMethodHashEN14dense_hash_mapIS6_S9_SD_NS6_14EqualsComparerINSC_26Il2CppGenericMethodCompareEEENS0_9allocatorISA_EEE9SelectKeyESH_SJ_E13set_empty_keyERKSA_
g_e:_Slider_get_value_m739683640
xkb:__Z19scripting_array_new17ScriptingClassPtrjj
eN:__ZN11SoundHandle13CreateChannelEb
xag:_WaitCallback_BeginInvoke_m3012509827
p4a:__ZN14SafeBinaryRead21TransferSTLStyleArrayI13dynamic_arrayI12LightmapDataLj4EEEEvRT_17TransferMetaFlags
Hja:__ZNSt3__26vectorIN9ShaderLab20SerializedSubProgram16TextureParameterENS_9allocatorIS3_EEE6assignIPS3_EENS_9enable_ifIXaasr21__is_forward_iteratorIT_EE5valuesr16is_constructibleIS3_NS_15iterator_traitsISA_E9referenceEEE5valueEvE4typeESA_SA_
APi:__ZN13Il2CppHashMapIN6il2cpp5utils13dynamic_arrayIPK10Il2CppTypeLj4EEEPFvvENS0_8metadata19Il2CppSignatureHashENS9_22Il2CppSignatureCompareENSt3__29allocatorINSC_4pairIK10KeyWrapperIS6_ES8_EEEEEC2EjRKSA_RKSB_
GEg:__Z122RuntimeInvoker_Void_t1185182177_RuntimeObject_RuntimeObject_ContractionU5BU5DU26_t2277527001_Level2MapU5BU5DU26_t359320357PFvvEPK10MethodInfoPvPS4_
N1i:__ZN15dense_hashtableINSt3__24pairIK10KeyWrapperIPK22Il2CppGenericParameterEPK24MonoGenericParameterInfoEES6_N6il2cpp5utils11PointerHashIS4_EEN14dense_hash_mapIS6_SA_SF_NS6_14EqualsComparerINS0_8equal_toIS5_EEEENS0_9allocatorISB_EEE9SelectKeyESK_SM_E15set_deleted_keyERKSB_
Red:_SByte_TryParse_m2431806379
WBh:__ZL64ObjectDisposedException_t21392786_CustomAttributesCacheGeneratorP21CustomAttributesCache
z1b:__ZN6prcoreL11inner_clearILj2EEEvPhjjj
yGh:__ZL92Debug_t3317548046_CustomAttributesCacheGenerator_Debug_LogWarningFormat_m1153215311____args2P21CustomAttributesCache
tgd:_DSACryptoServiceProvider_get_KeySize_m786836990
UNi:__ZNSt3__218uninitialized_fillIPNS_4pairIK10KeyWrapperIPKcEP11Il2CppClassEES9_EEvT_SB_RKT0_
Ig:_emscripten_exit_fullscreen
RRd:_Object_MemberwiseClone_m1474068832
Igj:__ZN6il2cpp6icalls8mscorlib6System6String19InternalAllocateStrEi
Yvc:__Z29Transfer_Blittable_ArrayFieldI8JSONRead11QuaternionfEvRT_R9ArrayInfoRK23StaticTransferFieldInfo
Qlb:__ZN20LocalFileSystemPosix8SetFlagsER13FileEntryDatajj
vfc:__Z45Register_UnityEngine_Camera_get_targetDisplayv
b6b:__ZNK24RendererAnimationBinding15GenerateBindingERKN4core12basic_stringIcNS0_20StringStorageDefaultIcEEEEbRN11UnityEngine9Animation14GenericBindingE
oaf:_IPv6Address__ctor_m3704187391
fNb:__Z15GetFlareManagerv
$1b:__ZN15ApplicationInfo24GetApplicationIdentifierEv
XJa:__ZN9Behaviour8TransferI18StreamedBinaryReadILb0EEEEvRT_
Hz:__ZN8Animator13GetAvatarRootEv
QNf:_Array_InternalArray__ICollection_Add_TisResourceCacheItem_t51292791_m3851804827_gshared
Huj:___toread
IFb:__ZNSt3__26vectorI10vector_mapIiiNS_4lessIiEE13stl_allocatorINS_4pairIiiEEL18MemLabelIdentifier38ELi16EEES4_IS9_LS7_38ELi16EEE26__swap_out_circular_bufferERNS_14__split_bufferIS9_RSA_EE
z5d:_BigInteger_get_Rng_m3283260184
Tyj:___cxa_is_pointer_type
SE:__ZN8Animator22ScriptingStringToCRC32ERK11ICallString
FCh:__ZL55EventHandler_t1348719766_CustomAttributesCacheGeneratorP21CustomAttributesCache
sC:__ZN7mecanim9animation16EvaluateAvatarDXEPKNS0_14AvatarConstantEPKNS0_11AvatarInputEPNS0_12AvatarMemoryEPNS0_15AvatarWorkspaceEPNS0_12AvatarOutputE
h2c:_RaycastResult_ToString_m2678663776_AdjustorThunk
v2h:_Array_InternalArray__get_Item_TisKeyValuePair_2_t2530217319_m2886833132_gshared
BYe:_ScrollRect_OnEndDrag_m3202230060
_jc:__Z34Transform_CUSTOM_SetAsFirstSiblingP12Il2CppObject
BYi:__ZNK15dense_hashtableINSt3__24pairIK10KeyWrapperINS1_IPK14Il2CppAssemblyP11Il2CppClassEEEjEES9_17ReflectionMapHashIS8_EN14dense_hash_mapIS9_jSD_NS9_14EqualsComparerINS0_8equal_toIS8_EEEENS0_9allocatorISB_EEE9SelectKeyESI_SK_E10test_emptyEj
zEg:__Z63RuntimeInvoker_Void_t1185182177_RuntimeObject_SByte_t1669577662PFvvEPK10MethodInfoPvPS4_
GKh:__ZL57SetupCoroutine_t2062820429_CustomAttributesCacheGeneratorP21CustomAttributesCache
MQe:_InputField_Delete_m3471899192
YAh:__ZL79Convert_t2465617642_CustomAttributesCacheGenerator_Convert_ToUInt64_m1627266664P21CustomAttributesCache
Fth:__ZL91UrlAttribute_t221584584_CustomAttributesCacheGenerator_UrlAttribute_IsContextOK_m1228378186P21CustomAttributesCache
VEe:_RemotingConfiguration_get_ProcessId_m2180277012
l3:__ZN17PersistentManager40GlobalToLocalSerializedFileIndexInternalERK26SerializedObjectIdentifier
kS:__ZN11UnityEngine15CloudWebService17SessionEventQueue14ParseEventDataERKN4core12basic_stringIcNS2_20StringStorageDefaultIcEEEE
Mua:__ZN13TranslateGLES4InitERK12GraphicsCaps16GfxDeviceLevelGL
ECb:__Z29Transfer_Blittable_ArrayFieldI18StreamedBinaryReadILb0EE10ColorRGBAfEvRT_R9ArrayInfoRK23StaticTransferFieldInfo
IVi:_NativeTypeAttribute_set_CodegenOptions_m3839252515
lWf:_EqualityComparer_1_get_Default_m180770000_gshared
vGd:_Int64_System_IConvertible_ToUInt16_m848637338_AdjustorThunk
nVh:__ZL74GraphicRaycaster_t2999697109_CustomAttributesCacheGenerator_m_BlockingMaskP21CustomAttributesCache
gMf:_Array_InternalArray__IndexOf_TisLink_t544317964_m455584088_gshared
jah:_Enumerator_get_Current_m2282646120_AdjustorThunk
X7h:_ReadOnlyCollection_1_IndexOf_m2539022912_gshared
j6e:_KeyGeneratedEventHandler__ctor_m1990062371
iXh:__ZL66Selectable_t3250028441_CustomAttributesCacheGenerator_m_TransitionP21CustomAttributesCache
Asj:__ZN6il2cpp2os6Memory12AlignedAllocEjj
m$e:_Text_set_alignByGeometry_m3828822280
kmj:__ZN6il2cpp8metadataL7CompareEPK10Il2CppTypeS3_
zsb:__Z18Transfer_BlittableI17RemapPPtrTransferLb0E11ColorRGBA32EvRK29SerializationCommandArgumentsR31RuntimeSerializationCommandInfo
B7e:_HybridDictionary__ctor_m1681134385
Y1:__ZN21ScalableBufferManager11GetInstanceEv
WAb:__Z18Transfer_BlittableI18StreamedBinaryReadILb0EELb1E10ColorRGBAfEvRK29SerializationCommandArgumentsR31RuntimeSerializationCommandInfo
F1a:__ZN12CubemapArray23VirtualRedirectTransferER17RemapPPtrTransfer
mcg:_TimeSpan_op_LessThan_m1594498345
idc:__ZL27GetComponentsImplementationILb0ELi0EEbR10GameObjectbRK17CompareParametersRK39GetComponentsImplementation_ReturnValue
qEb:__ZN9Scripting36IsSystemCollectionsGenericDictionaryE17ScriptingClassPtr
nhi:_UnityEvent_1_FindMethod_Impl_m322741469_gshared
huh:__ZL92ConstructionCallDictionary_t686578562_CustomAttributesCacheGenerator_U3CU3Ef__switchU24map24P21CustomAttributesCache
EXh:__ZL64Slider_t3903728902_CustomAttributesCacheGenerator_m_WholeNumbersP21CustomAttributesCache
wyg:_Enumerator_get_Current_m2591725252
R0:__ZL16ReadTypeTreeImplILb0EEbR8TypeTreeRK16TypeTreeIteratorRPKhS6_i
Ghf:_Interval_Contains_m110351300_AdjustorThunk
TAd:_Convert_ToInt32_m3048308591
pZh:__ZL77LayoutUtility_t2745813735_CustomAttributesCacheGenerator_U3CU3Ef__amU24cache6P21CustomAttributesCache
OVe:_RectMask2D_OnCanvasHierarchyChanged_m3195492255
kwf:_DateTimeOffset_Equals_m3030958070
gYa:__ZNK22BuiltinResourceManager21GetResourceInstanceIDEPKN5Unity4TypeERKN4core12basic_stringIcNS4_20StringStorageDefaultIcEEEE
Pra:__ZN9GfxDevice15BeginFrameStatsEv
_gc:__Z42Register_UnityEngine_RectOffset_set_bottomv
ioc:__Z28GUIStyleState_CUSTOM_CleanupP12Il2CppObject
Wtf:_DateTimeFormatInfo_GetMonthName_m2034512315
ROb:__ZN28LightProbeProxyVolumeContext8CopyFromERKS_
Izb:__ZN18StreamedBinaryReadILb1EE8TransferI13dynamic_arrayI8BitFieldLj4EEEEvRT_PKc17TransferMetaFlags
F8h:_ReadOnlyCollection_1_System_Collections_Generic_IListU3CTU3E_Insert_m2489506856_gshared
B6:__ZN23TransformChangeDispatch32QueueTransformChangeIfHasChangedER18TransformHierarchy
N0e:_SimpleCollator_ToDashTypeValue_m6184468
EDa:__ZN7ApiGLES18DeleteRenderbufferERj
gCa:__ZL23ProgramUniformMatrix4fvPK7ApiGLESjiihPKv
NDa:__ZN7ApiGLES13CreateTextureEjj14GraphicsFormatiiiii
Ynd:_Array_new_gap_m262136975
lja:__ZN9ShaderLab20SerializedSubProgram15MatrixParameter8TransferI14SafeBinaryReadEEvRT_
kdc:__ZL27GetComponentsImplementationILb0ELi1EEbR10GameObjectbRK17CompareParametersRK39GetComponentsImplementation_ReturnValue
Jdf:_X509Store__ctor_m275383717
s1e:_SimpleCollator_LastIndexOfOrdinalIgnoreCase_m2984667899
YFc:_Round_Down_To_Grid
zEa:__ZN13RenderTexture7ReleaseEv
vtc:__Z18Transfer_BlittableI8JSONReadLb1EN4math12int3_storageEEvRK29SerializationCommandArgumentsR31RuntimeSerializationCommandInfo
lbb:__ZN10MeshFilter23VirtualRedirectTransferER14SafeBinaryRead
QYh:__ZL64LayoutGroup_t2436138090_CustomAttributesCacheGenerator_m_PaddingP21CustomAttributesCache
akd:_X509CertificateEnumerator_MoveNext_m2269241175
vbb:__ZN12MeshRenderer17MainThreadCleanupEv
wLi:__ZN6il2cpp2vmL10InitLockedEP11Il2CppClassRKNS_2os12FastAutoLockE
tHa:__ZN22CreateGpuProgramOutput12CreateParamsEv
rJ:__ZN10ObjectPoolIN4FMOD7ChannelENS0_8ChannelIEE7GetFreeEi
b0g:__Z96RuntimeInvoker_RuntimeObject_CustomAttributeNamedArgument_t287865710_RuntimeObject_RuntimeObjectPFvvEPK10MethodInfoPvPS4_
Z8c:_FontData_get_font_m2720086288
wme:_InternalEnumerator_1_System_Collections_IEnumerator_get_Current_m548105685_gshared
Cua:__ZNK14GfxContextGLES13GetDefaultFBOEv
$Yg:__Z99RuntimeInvoker_Void_t1185182177_UILineInfoU5BU5DU26_t2468919161_Int32_t2950945753_Int32_t2950945753PFvvEPK10MethodInfoPvPS4_
nqd:_Byte_System_IConvertible_ToType_m2251112646
ahh:_Collection_1_Contains_m692247505_gshared
aTg:__Z81RuntimeInvoker_Char_t3634460470_RuntimeObject_Int32_t2950945753_Int16_t2552820387PFvvEPK10MethodInfoPvPS4_
tuf:_DateTime_get_Hour_m4153505178_AdjustorThunk
vAi:_AudioExtensionManager_WriteExtensionProperties_m3028464154
Qmf:_Evidence_Equals_m1478353107
qoi:_CostDelegate__ctor_m4027655829
aac:__Z13GetImagePixelI10ColorRGBAfET_PKhii13TextureFormat15TextureWrapModeS5_ii
C3g:_List_1_System_Collections_IList_set_Item_m1842844683_gshared
lji:_ObjectPool_1__ctor_m2535233435_gshared
Vhi:_EventFunction_1__ctor_m4292798223_gshared
b7i:__ZN6il2cpp2vm6Thread49CheckCurrentThreadForInterruptAndThrowIfNecessaryEv
EEf:_CultureInfo_construct_datetime_format_m1928121315
i5:__ZNSt3__23mapIN9ShaderLab16FastPropertyNameEN18UnityPropertySheet11UnityTexEnvENS_4lessIS2_EENS_9allocatorINS_4pairIKS2_S4_EEEEEixERS9_
HCa:__ZNK13TranslateGLES25GetTextureTargetDimensionEj
wSd:_RankException__ctor_m3453633632
eci:_Comparison_1__ctor_m533218197_gshared
fZg:__Z96RuntimeInvoker_Void_t1185182177_Vector3U5BU5DU26_t3038522815_Int32_t2950945753_Int32_t2950945753PFvvEPK10MethodInfoPvPS4_
c6h:_ReadOnlyCollection_1_System_Collections_IList_Remove_m1842121503_gshared
jJd:_File_OpenRead_m2936789020
qjc:__Z47Texture2D_CUSTOM_INTERNAL_CALL_GetPixelBilinearP12Il2CppObjectffR10ColorRGBAf
Gyd:_Enumerator_get_Entry_m3561948123
MQg:__Z94RuntimeInvoker_Void_t1185182177_RuntimeObject_PlayableGraph_t3515989261_RuntimeObject_IntPtr_tPFvvEPK10MethodInfoPvPS4_
Ji:_emscripten_glVertexAttrib4f
Bse:_InternalEnumerator_1_System_Collections_IEnumerator_Reset_m4072625129_AdjustorThunk
ina:__ZNSt3__26vectorIN20GpuProgramParameters14ConstantBufferENS_9allocatorIS2_EEE8__appendEj
ref:_X509CertificateCollection_AddRange_m3683116910
xpe:_InternalEnumerator_1_Dispose_m1837758743_AdjustorThunk
cFe:_SinkProviderData__ctor_m1624738837
bQb:__ZN11HaloManager21ReleaseGeometryJobMemEP25DynamicVBOGeometryJobData
ZId:_DirectoryNotFoundException__ctor_m1689636868
wSg:__Z88RuntimeInvoker_RuntimeObject_RuntimeObject_SByte_t1669577662_RuntimeObject_RuntimeObjectPFvvEPK10MethodInfoPvPS4_
w6h:_ReadOnlyCollection_1_System_Collections_Generic_IListU3CTU3E_get_Item_m978644313_gshared
Xhh:_Collection_1_get_Item_m2253972692_gshared
l_d:_RefEmitPermissionSet_t484390987_marshal_pinvoke_cleanup
lUd:_CustomAttributeTypedArgument_Equals_m2261980307
Gx:__ZN7mecanim12statemachine24CreateStateMachineMemoryEPKNS0_20StateMachineConstantERNS_6memory9AllocatorE
Ura:__ZN9GfxDevice18SetGlobalDepthBiasEff
GTi:__ZN6il2cpp6icalls8mscorlib6System8MonoType12get_AssemblyEP20Il2CppReflectionType
OKd:_IsolatedStorageException__ctor_m3386787868
F_d:_TypeBuilder_MakeGenericType_m2799607032
so:FUNCTION_TABLE_vi
nbi:_ReadOnlyCollection_1_IndexOf_m3669095250_gshared
Xi:_emscripten_glGetPointerv
o1h:_Dictionary_2_Do_CopyTo_TisKeyValuePair_2_t3842366416_TisRuntimeObject_m1564656153_gshared
fC:__ZN8Animator22ApplyBuiltinRootMotionEv
sdj:__ZN15dense_hashtableI10KeyWrapperIP18Il2CppGenericClassES3_N6il2cpp8metadata22Il2CppGenericClassHashEN14dense_hash_setIS3_S6_NS3_14EqualsComparerINS5_25Il2CppGenericClassCompareEEENSt3__29allocatorIS3_EEE8IdentityESA_SD_E5clearEv
cHb:__Z26ApplyMaterialPassWithCacheRK18SharedMaterialDataR17ShaderPassContextP6ShaderPN9ShaderLab4PassEibPKNS6_10GrabPassesEPNS6_11SubProgramsEPK22DeviceRenderStateBlock
OKg:__Z55RuntimeInvoker_DateTime_t3738529785_TimeSpan_t881159249PFvvEPK10MethodInfoPvPS4_
PQd:_MulticastDelegate_KPM_m22863605
cqe:_InternalEnumerator_1_get_Current_m1897120917_AdjustorThunk
nQd:_MonoType_ReorderParamArrayArguments_m2458683451
JMe:_FormatterConverter_ToInt16_m4282804414
wIg:__Z81RuntimeInvoker_Void_t1185182177_Int64_t3736567304_RuntimeObject_Int64_t3736567304PFvvEPK10MethodInfoPvPS4_
N2c:_StandaloneInputModule_ProcessTouchPress_m4019232747
eJd:_FileStream__ctor_m3151488352
Xnd:_Array_swap_m547389985
y3:__ZN8Renderer23VirtualRedirectTransferER14SafeBinaryRead
Mfg:_UInt32_ToString_m2420423038
A0g:_List_1_System_Collections_IList_Add_m634558835_gshared
gbi:_ReadOnlyCollection_1_System_Collections_IList_get_IsFixedSize_m1923250479_gshared
jRh:__ZL105CanvasRenderer_t2598313366_CustomAttributesCacheGenerator_CanvasRenderer_set_popMaterialCount_m1224846275P21CustomAttributesCache
IJd:_FileStream_get_Length_m426703983
kAe:_Enumerator__ctor_m1558933899_AdjustorThunk
RCh:__ZL88BigInteger_t2902905090_CustomAttributesCacheGenerator_BigInteger_op_Implicit_m3414367033P21CustomAttributesCache
GLi:__ZN6il2cpp2vmL15GetBitmapNoInitEP11Il2CppClassPjRjj
L7g:_List_1_Remove_m2092085040_gshared
j0b:__ZL13MotionHandleriPK27EmscriptenDeviceMotionEventPv
uFi:__ZL25UnresolvedVirtualCall_231P12Il2CppObjecti20UIVertex_t4057497605PK10MethodInfo
OH:__ZN12AudioManager5ResetEv
FBg:__Z67RuntimeInvoker_Boolean_t97287965_RuntimeObject_SByteU26_t3619038962PFvvEPK10MethodInfoPvPS4_
KCg:__Z143RuntimeInvoker_Boolean_t97287965_RuntimeObject_Int32_t2950945753_RuntimeObject_SByte_t1669577662_DoubleU26_t1739162597_ExceptionU26_t3600731591PFvvEPK10MethodInfoPvPS4_
n8b:__ZN15DirectorManager18ScheduleGraphStartERK14HPlayableGraph
o6h:_ReadOnlyCollection_1_get_Count_m1336304542_gshared
xZh:__ZL111LayoutUtility_t2745813735_CustomAttributesCacheGenerator_LayoutUtility_U3CGetPreferredHeightU3Em__6_m3049688934P21CustomAttributesCache
NB:__ZN7mecanim5human14RetargetToTDoFEPKNS0_5HumanEPNS0_9HumanPoseEPNS_8skeleton13SkeletonPoseTIN4math4trsXEEESB_
A1i:__ZNK15dense_hashtableINSt3__24pairIK10KeyWrapperIPK14Il2CppAssemblyEPK22Il2CppMonoAssemblyNameEES6_N6il2cpp5utils11PointerHashIS4_EEN14dense_hash_mapIS6_SA_SF_NS6_14EqualsComparerINS0_8equal_toIS5_EEEENS0_9allocatorISB_EEE9SelectKeyESK_SM_E10test_emptyEj
Rij:__ZN6il2cpp6icalls8mscorlib6System11Environment20GetWindowsFolderPathEi
wzd:_Convert_ToBoolean_m2833752130
uw:__ZN7mecanim5human18HumanPoseBlendNodeERNS0_9HumanPoseEPS1_f
fAc:_UNITY_FT_RoundFix
wR:__ZN23CloudWebServicesManager23VirtualRedirectTransferER17RemapPPtrTransfer
ypj:_GC_is_heap_ptr
E3e:_ASN1_DecodeTLV_m1200977460
ing:_UnityEventBase_PrepareInvoke_m1785382128
J8h:_ReadOnlyCollection_1_System_Collections_Generic_IListU3CTU3E_set_Item_m1584697503_gshared
xbb:__ZNK12MeshRenderer22GetTypeVirtualInternalEv
Zrd:_Char_System_IConvertible_ToUInt32_m3901815580
GWe:_Scrollbar_set_onValueChanged_m346467699
WKg:__Z157RuntimeInvoker_Int32_t2950945753_RuntimeObject_Int32_t2950945753_Int32_t2950945753_Int32_t2950945753_SByte_t1669577662_SByte_t1669577662_Int32U26_t1369213839PFvvEPK10MethodInfoPvPS4_
Qii:_ListPool_1_Release_m957266927_gshared
Vuh:__ZL105ConfigHandler_t4192437216_CustomAttributesCacheGenerator_ConfigHandler_ValidatePath_m3895556516____paths1P21CustomAttributesCache
uK:__ZN4FMOD6System17setSoftwareFormatEi17FMOD_SOUND_FORMATii18FMOD_DSP_RESAMPLER
Oha:__ZN14SafeBinaryRead19TransferSTLStyleMapINSt3__23mapIN4core12basic_stringIcNS3_20StringStorageDefaultIcEEEES7_NS1_4lessIS7_EE13stl_allocatorINS1_4pairIKS7_S7_EEL18MemLabelIdentifier1ELi16EEEEEEvRT_17TransferMetaFlags
dPc:__ZN2UI6Canvas27UpdateEventIndexesRecursiveERi
qS:__ZN11UnityEngine15CloudWebService16SessionContainer21PrepareDataErrorEventERN4core12basic_stringIcNS2_20StringStorageDefaultIcEEEE
$$c:_ExecuteEvents_get_pointerUpHandler_m3515704212
Usd:_ArrayList_set_Item_m2003485935
Gjj:__ZNSt3__218uninitialized_copyIPNS_4pairIK10KeyWrapperIPK19Il2CppGenericMethodEP10MethodInfoEESB_EET0_T_SD_SC_
a4d:_SatelliteContractVersionAttribute__ctor_m3630863995
VAh:__ZL79Convert_t2465617642_CustomAttributesCacheGenerator_Convert_ToUInt64_m3102114524P21CustomAttributesCache
U1c:_MouseButtonEventData_PressedThisFrame_m1060658845
AZc:_AxisEventData_get_moveVector_m270528189
cxb:__Z19TransferField_ArrayI19StreamedBinaryWriteILb0EE27Converter_SimpleNativeClassI8GUIStyleEEvRK23StaticTransferFieldInfoR31RuntimeSerializationCommandInfoRT0_
CMb:__Z27SetClippingPlaneShaderPropsR9GfxDevice
v6h:_ReadOnlyCollection_1_System_Collections_Generic_IListU3CTU3E_RemoveAt_m3969985996_gshared
iOh:__ZL83AudioSource_t3935305588_CustomAttributesCacheGenerator_AudioSource_Play_m3389845180P21CustomAttributesCache
qGj:_emscripten_glCopyTexSubImage2D__wrapper
j6a:__ZNK13ScreenManager12GetIsFocusedEv
Vad:_GraphicRegistry_GetGraphicsForCanvas_m4219276355
KEd:_NumberFormatter_FastToDecHex_m699829267
spi:_PatternCompiler_MakeFlags_m1977119795
jtc:__Z35Transfer_Blittable_FixedBufferFieldI8JSONReadiEvRK29SerializationCommandArgumentsR31RuntimeSerializationCommandInfo
Ula:__ZN15SerializeTraitsIN9ShaderLab16FastPropertyNameEE8TransferI19StreamedBinaryWriteILb0EEEEvRS1_RT_
Cvh:__ZL59StreamingContext_t3711869237_CustomAttributesCacheGeneratorP21CustomAttributesCache
JSi:__ZNSt3__213__vector_baseIN6il2cpp2os19SocketHandleWrapperENS_9allocatorIS3_EEED2Ev
lnh:__ZL48_Type_t3588564251_CustomAttributesCacheGeneratorP21CustomAttributesCache
$Uh:__ZL81FontUpdateTracker_t1839077620_CustomAttributesCacheGenerator_U3CU3Ef__mgU24cache0P21CustomAttributesCache
dc:invoke_viiffi
Bph:__ZL103RegionInfo_t1090270226_CustomAttributesCacheGenerator_RegionInfo_t1090270226____NativeName_PropertyInfoP21CustomAttributesCache
wGd:_Int64_System_IConvertible_ToUInt32_m109903525
eC:__ZNSt3__227__insertion_sort_incompleteIRPFbPKN8Animator11AnimatorJobES4_EPS4_EEbT0_S9_T_
bS:__ZNSt3__26__treeINS_12__value_typeIN4core12basic_stringIcNS2_20StringStorageDefaultIcEEEEjEENS_19__map_value_compareIS6_S7_NS_4lessIS6_EELb1EEE13stl_allocatorIS7_L18MemLabelIdentifier88ELi16EEE4findIS6_EENS_15__tree_iteratorIS7_PNS_11__tree_nodeIS7_PvEEiEERKT_
$oc:__ZN5Unity9rapidjson13GenericReaderINS0_4UTF8IcEES3_13JSONAllocatorE10ParseFalseILj0ENS0_19GenericStringStreamIS3_EENS0_15GenericDocumentIS3_S4_S4_EEEEvRT0_RT1_
ypg:_Mathf_CeilToInt_m432108984
C1a:__ZNK12CubemapArray20GetRuntimeMemorySizeEv
Xbg:_TimeSpan_FromHours_m1109641064
jka:__Z14resize_trimmedINSt3__26vectorIN9ShaderLab18SerializedPropertyENS0_9allocatorIS3_EEEEEvRT_j
JDi:__ZL25UnresolvedVirtualCall_138P12Il2CppObject17Color_t2555686324faaPK10MethodInfo
Wrb:__Z18Transfer_BlittableI17RemapPPtrTransferLb0EN4math12int3_storageEEvRK29SerializationCommandArgumentsR31RuntimeSerializationCommandInfo
jre:_InternalEnumerator_1__ctor_m4124630986_gshared
GQi:__ZN6il2cpp2vm13MetadataCache38GetMethodInfoFromMethodDefinitionIndexEi
M_c:_EventSystem_set_current_m38955169
SNe:_TypeMetadata__ctor_m646635308
toi:_CostDelegate_EndInvoke_m2797921932
h7a:__ZN10VertexData8TransferI24GenerateTypeTreeTransferEEvRT_
XAf:_Double_IsInfinity_m820013146
jpd:__ZN21InterfaceFuncInvoker1I19Decimal_t2948259380P12Il2CppObjectE6InvokeEjP11Il2CppClassS2_S2_
ljj:__ZN13Il2CppHashMapIPK19Il2CppGenericMethodP10MethodInfoN6il2cpp8metadata23Il2CppGenericMethodHashENS6_26Il2CppGenericMethodCompareENSt3__29allocatorINS9_4pairIK10KeyWrapperIS2_ES4_EEEEEC2EjRKS7_RKS8_
P4f:_List_1_TrimExcess_m440552561_gshared
bwg:_Screen_get_dpi_m495672463
y8f:_UTF8Encoding_InternalGetByteCount_m2120178851
OUb:__ZL10CullLightsRK22SceneCullingParametersR11CullResults
vCd:_Convert_ToUInt64_m3170916409
Bx:__ZN7mecanim12statemachine20GetBlendTreeConstantERKNS0_13StateConstantEi
jGd:_Int64_System_IConvertible_ToInt16_m4062196970_AdjustorThunk
JQd:_MonoType_GetGenericTypeDefinition_m3201894896
u1b:__Z40GetTemporaryCachePathApplicationSpecificv
_pa:__ZN9GfxDevice16EndAsyncJobFrameEv
eUg:__Z99RuntimeInvoker_Int32_t2950945753_Ray_t3785851493_RuntimeObject_Single_t1397266774_Int32_t2950945753PFvvEPK10MethodInfoPvPS4_
X$i:__ZNK15dense_hashtableINSt3__24pairIK10KeyWrapperINS1_IPK12PropertyInfoP11Il2CppClassEEEjEES9_17ReflectionMapHashIS8_EN14dense_hash_mapIS9_jSD_NS9_14EqualsComparerINS0_8equal_toIS8_EEEENS0_9allocatorISB_EEE9SelectKeyESI_SK_E10test_emptyERK30dense_hashtable_const_iteratorISB_S9_SD_SM_SI_SK_E
XCc:_UNITY_tt_face_load_hhea
ZVd:_DerivedType_get_Assembly_m2979298667
Tk:___syscall3
Wk:___syscall6
vra:__ZN9GfxDevice15GetNextCPUFenceEv
Yk:___syscall4
pT:__ZN11UnityEngine15CloudWebService20WebRequestRestClient17GetResponseStatusEv
xKe:_ReturnMessage__ctor_m2352989078
ZFg:__Z99RuntimeInvoker_Void_t1185182177_RuntimeObject_Int32_t2950945753_SByte_t1669577662_SByte_t1669577662PFvvEPK10MethodInfoPvPS4_
cnb:__ZNSt3__26__treeINS_12__value_typeIN4core12basic_stringIcNS2_20StringStorageDefaultIcEEEEPN16MemoryFileSystem4NodeEEENS_19__map_value_compareIS6_SA_NS_4lessIS6_EELb1EEE13stl_allocatorISA_L18MemLabelIdentifier55ELi16EEE7destroyEPNS_11__tree_nodeISA_PvEE
Klh:__ZL70RuntimeArray_CustomAttributesCacheGenerator_Array_get_Length_m21610649P21CustomAttributesCache
afj:__ZN6il2cpp2vm3RCW14QueryInterfaceILb1EEEP14Il2CppIUnknownP15Il2CppComObjectRK10Il2CppGuid
$be:_TlsServerCertificateRequest__ctor_m1334974076
VAd:_Convert_ToInt32_m1613163543
HZg:__Z52RuntimeInvoker_TimeSpan_t881159249_Int32_t2950945753PFvvEPK10MethodInfoPvPS4_
pUe:_MatEntry__ctor_m1949610076
X5h:_ReadOnlyCollection_1_System_Collections_ICollection_CopyTo_m3127175806_gshared
ml:_emscripten_glShaderBinary
tMh:__ZL80Logger_t274032455_CustomAttributesCacheGenerator_U3ClogEnabledU3Ek__BackingFieldP21CustomAttributesCache
DT:__ZN15DownloadHandler19OnFinishReceiveDataEv
Teg:_UInt16_ToString_m760649087
$lb:__ZNK20LocalFileSystemPosix6ExistsERK13FileEntryData
xLg:__Z21RuntimeInvoker_Guid_tPFvvEPK10MethodInfoPvPS4_
vMg:__Z46RuntimeInvoker_CipherAlgorithmType_t1174400495PFvvEPK10MethodInfoPvPS4_
Pjg:_Camera_GetAllCameras_m668492922
BSc:__Z58Register_UnityEngine_Canvas_GetETC1SupportedCanvasMaterialv
lcg:_TimeSpan_op_Inequality_m2467851530
Bzb:__ZN17AnimationCurveTplIfE8TransferI18StreamedBinaryReadILb1EEEEvRT_
o0h:_Array_Sort_TisUIVertex_t4057497605_m3996333845_gshared
clf:_ToBase64Transform_get_CanReuseTransform_m702204640
VUc:__ZN18UnityConnectClientD2Ev
gQg:__Z53RuntimeInvoker_PropertyName_t3749835189_RuntimeObjectPFvvEPK10MethodInfoPvPS4_
pod:_Swapper_BeginInvoke_m1688449973
Olg:_Display_get_renderingWidth_m1970428952
cQa:__ZN16LevelGameManager23VirtualRedirectTransferER19StreamedBinaryWriteILb0EE
zMg:__Z81RuntimeInvoker_Void_t1185182177_RuntimeObject_Int32_t2950945753_Int64_t3736567304PFvvEPK10MethodInfoPvPS4_
c7a:__Z32TransferEnumWithNameForceIntSizeI14SafeBinaryRead16GfxPrimitiveTypeEvRT_RT0_PKc17TransferMetaFlags
P0:__ZN13dynamic_arrayIcLj1EE6insertEPcPKcS3_
QKh:__ZL92Mesh_t3648964284_CustomAttributesCacheGenerator_Mesh_SetTriangles_m2205169959____baseVertex3P21CustomAttributesCache
nXg:__Z52RuntimeInvoker_Int32_t2950945753_HitInfo_t3229609740PFvvEPK10MethodInfoPvPS4_
_Ig:__Z86RuntimeInvoker_Boolean_t97287965_Int16_t2552820387_Int16_t2552820387_Int32_t2950945753PFvvEPK10MethodInfoPvPS4_
szh:__ZL80Convert_t2465617642_CustomAttributesCacheGenerator_Convert_ToBoolean_m2807110707P21CustomAttributesCache
slh:__ZL72Enum_t4135868527_CustomAttributesCacheGenerator_Enum_GetName_m2151614395P21CustomAttributesCache
iii:_IndexedSet_1_IndexOf_m241693686_gshared
$3h:_Collection_1_System_Collections_IList_Add_m1802516464_gshared
_Tc:__ZN11UnityEngine15PlatformWrapper30GetGraphicsDriverLibraryStringEv
Wdd:_RuntimeMethodHandle_Equals_m3301340296_AdjustorThunk
igg:_UInt64_System_IConvertible_ToSingle_m925613075_AdjustorThunk
TBi:__ZL24UnresolvedVirtualCall_40P12Il2CppObjectS0_PK10MethodInfo
jji:_ListPool_1__cctor_m704263611_gshared
XAb:__Z18Transfer_BlittableI18StreamedBinaryReadILb0EELb0E4AABBEvRK29SerializationCommandArgumentsR31RuntimeSerializationCommandInfo
hfb:__ZN24GenerateTypeTreeTransfer19TransferSTLStyleMapINSt3__28multimapIN4core12basic_stringIcNS3_20StringStorageDefaultIcEEEE4PPtrI6ObjectENS1_4lessIS7_EE13stl_allocatorINS1_4pairIKS7_SA_EEL18MemLabelIdentifier52ELi16EEEEEEvRT_17TransferMetaFlags
QD:__ZN16MecanimAnimation24DeleteAnimatedPropertiesERP26IAnimatedPropertyEvaluator
zIi:_CanvasRenderer_SetMaterial_m824577244
wLb:__Z14DrawGUITextureRK5RectTIfEP7Texture11ColorRGBA32P8Materiali
hHh:__ZL84RectOffset_t1369453676_CustomAttributesCacheGenerator_RectOffset_Cleanup_m2552807639P21CustomAttributesCache
r6h:_ReadOnlyCollection_1_System_Collections_Generic_ICollectionU3CTU3E_Add_m2686599243_gshared
SA:__ZN9BlobWrite8TransferI22OffsetPtrArrayTransferIKN4math7_float4EEEEvRT_PKc17TransferMetaFlags
jMb:__ZN22RenderingCommandBuffer20ExecuteCommandBufferER17ShaderPassContextR15RenderNodeQueuejP13dynamic_arrayINSt3__24pairIN9ShaderLab16FastPropertyNameEP13RenderTextureEELj4EE16ComputeQueueTypeSA_
syg:_Transform_IsChildOf_m224006092
XZa:__ZN15TextureSettings8TransferI24GenerateTypeTreeTransferEEvRT_
Usc:__ZN9JSONWrite8TransferI4AABBEEvRT_PKc17TransferMetaFlags
tOa:__ZN25MultiBlocksMemoryFileData9SetLengthEy
D2f:_List_1_Clear_m2154023298_gshared
vZc:_AbstractEventData_get_used_m2991176710
pUg:__Z94RuntimeInvoker_Void_t1185182177_ObjectU5BU5DU26_t712384779_Int32_t2950945753_Int32_t2950945753PFvvEPK10MethodInfoPvPS4_
j1h:_Dictionary_2_Do_ICollectionCopyTo_TisRuntimeObject_m1855083806_gshared
iyi:_Aes__ctor_m178909601
F2a:__ZNK9Texture2D20GetRuntimeMemorySizeEv
Lkc:__ZN11Marshalling39CreateNullExceptionForUnityEngineObjectE18ScriptingObjectPtr
_oc:__ZN5Unity9rapidjson13GenericReaderINS0_4UTF8IcEES3_13JSONAllocatorE9ParseTrueILj0ENS0_19GenericStringStreamIS3_EENS0_15GenericDocumentIS3_S4_S4_EEEEvRT0_RT1_
F5g:_List_1_Clear_m2003943277_gshared
um:_emscripten_glUniform2iv
XZf:_Enumerator_Dispose_m1204547613_AdjustorThunk
Cxc:_UNITY_FT_Outline_Transform
dae:_CipherSuite_get_ExchangeAlgorithmType_m1633709183
ZLi:__ZN6il2cpp2vm5Class10GetMethodsEP11Il2CppClassPPv
hYc:__ZNK25UnityWebRequestJavaScript17GetUploadProgressEv
MQb:__Z30AddDefaultStreamsToMeshBuffersR9GfxDeviceR11MeshBuffersRK16DrawBuffersRange17ShaderChannelMaskS6_
X1g:_List_1_GetEnumerator_m1430071802_gshared
SCa:__ZN7ApiGLES17DeleteFramebufferERN2gl6HandleILNS0_10ObjectTypeE9EEES3_
vGa:__ZN15UniformTFMethod13MapBoneBufferEj
_Nc:__ZN2UI14CanvasRendererD2Ev
O2h:_Array_InternalArray__get_Item_TisParameterModifier_t1461694466_m29553316_gshared
BGd:_Int64_CompareTo_m1928360444_AdjustorThunk
aGb:__Z9SetupArgviPPKc
jBd:_Convert_ToInt64_m2075031821
Ohb:__ZN13dynamic_arrayIP10UnitySceneLj4EE9push_backERKS1_
Tne:_InternalEnumerator_1__ctor_m236665673_gshared
iHj:_glTexParameteri__wrapper
h3:__ZN12ImmediatePtrI10GameObjectE8TransferI19StreamedBinaryWriteILb0EEEEvRT_
G1a:__ZN12CubemapArray23VirtualRedirectTransferER24GenerateTypeTreeTransfer
BBi:__ZL24UnresolvedVirtualCall_22P12Il2CppObjectS0_iS0_S0_S0_PK10MethodInfo
v1:__ZN12FileAccessor4OpenER15FileSystemEntry14FilePermission16FileAutoBehavior
oVa:__ZNSt3__26vectorI4PPtrI6ShaderE13stl_allocatorIS3_L18MemLabelIdentifier53ELi16EEE8__appendEj
Mhj:__ZN6il2cpp2os9Directory6CreateERKNSt3__212basic_stringIcNS2_11char_traitsIcEENS2_9allocatorIcEEEEPi
$ka:__ZN4PPtrI6ShaderE8TransferI18StreamedBinaryReadILb0EEEEvRT_
A6:__ZN23TransformChangeDispatch32QueueTransformChangeIfHasChangedERK15TransformAccess
O0a:__ZNSt3__26vectorINS_4pairIN9ShaderLab16FastPropertyNameEN18UnityPropertySheet11UnityTexEnvEEENS_9allocatorIS6_EEE21__push_back_slow_pathIKS6_EEvRT_
cOa:__ZN15ArchiveReadFile5WriteEyPKvPy
GSd:_Assembly_get_FullName_m293988418
B:tempValue
v$b:__Z29StdTemplateConversionFunctionIaiEbPvR14SafeBinaryRead
ktj:__ZN6il2cpp8metadata24Il2CppGenericContextHash4HashEPK20Il2CppGenericContext
koe:_InternalEnumerator_1_get_Current_m356936020_AdjustorThunk
aih:_Collection_1_CheckWritable_m1583234367_gshared
QFd:_Int32_ToString_m141394615_AdjustorThunk
Ytd:_ArrayListWrapper_CopyTo_m498486826
DId:_Directory_GetCurrentDirectory_m219218555
Jkd:_SmallXmlParser_UnexpectedEndError_m1914362401
_x:__ZN26AnimatorControllerPlayable18DeallocateBindingsEv
hvh:__ZL61FormatterTypeStyle_t3400733584_CustomAttributesCacheGeneratorP21CustomAttributesCache
Jva:__ZN14DelayedDeletorI15dense_hashtableINSt3__24pairIK9TextureIDiEES3_14GfxGenericHashIS3_EN14GfxDoubleCacheIS3_iS7_NS1_8equal_toIS3_EEN31GfxDoubleCacheConcurrencyPolicy11LocklessGetE42GfxDoubleCacheDefaultEmptyDeletedGeneratorIS3_EE9SelectKeyESA_13stl_allocatorIS5_L18MemLabelIdentifier24ELi16EEEEclEv
vN:__ZN11AudioSource19CreateOpenALRolloffEfff
RCc:_UNITY_FT_Stream_ReadAt
kbg:_TimeSpan__ctor_m1896986612_AdjustorThunk
PPi:__ZN15dense_hashtableINSt3__24pairIK10KeyWrapperIN6il2cpp5utils13dynamic_arrayIPK10Il2CppTypeLj4EEEEPFvvEEESA_NS3_8metadata19Il2CppSignatureHashEN14dense_hash_mapISA_SD_SG_NSA_14EqualsComparerINSF_22Il2CppSignatureCompareEEENS0_9allocatorISE_EEE9SelectKeyESK_SM_E9set_valueEPSE_RKSE_
fjd:_ArgumentException__ctor_m1216717135
ptg:_Ray_ToString_m1732834890_AdjustorThunk
md:_glReadBuffer
s3g:_List_1_System_Collections_IList_Contains_m3860993176_gshared
jO:__ZN11AudioModule22CreateAudioClipFromWWWEP10IWWWStreamPKcbbi
o5b:__ZN9Texture2DC2E10MemLabelId18ObjectCreationMode
Si:_emscripten_glRotatef
Xeg:_UInt32_System_IConvertible_ToBoolean_m1763673183_AdjustorThunk
cng:_UnityEvent_AddListener_m2276267359
eQc:__Z13RegisterClassIN2UI11CanvasGroupEEvv
NOg:__Z35RuntimeInvoker_RangeInt_t2094684618PFvvEPK10MethodInfoPvPS4_
B1b:__ZN6prcoreL11inner_clearILj4EEEvPhjjj
of:_emscripten_glClear
yJe:_MethodCall_get_Args_m148309537
$Je:_DictionaryEnumerator_get_Value_m2166220004
Tzi:_PCMReaderCallback_BeginInvoke_m3391809637
DBh:__ZL72LoaderOptimization_t1484956347_CustomAttributesCacheGenerator_DomainMaskP21CustomAttributesCache
xDg:__Z74RuntimeInvoker_Void_t1185182177_RuntimeObject_StreamingContext_t3711869237PFvvEPK10MethodInfoPvPS4_
Soj:_GC_initialize_offsets
oea:__ZNK8Playable6HandleEv
kPe:_SetPropertyUtility_SetColor_m2229203028
Qyj:___cxa_guard_abort
Uwe:_Enumerator_MoveNext_m481679286_gshared
B$:__ZN14MessageHandler28MessageIDToMessageIdentifierEi
D7a:__ZNK11SpriteAtlas20GetRuntimeRenderDataEPK6Sprite
tId:_FileSystemInfo__ctor_m3035148496
pig:_AssetBundleCreateRequest_t3119663542_marshal_pinvoke_cleanup
gFd:_Int32_System_IConvertible_ToDecimal_m2190376994_AdjustorThunk
B_f:_KeyValuePair_2_set_Key_m2121548577_AdjustorThunk
f_g:__Z46RuntimeInvoker_RefEmitPermissionSet_t484390987PFvvEPK10MethodInfoPvPS4_
kQg:__Z57RuntimeInvoker_PropertyName_t3749835189_Int32_t2950945753PFvvEPK10MethodInfoPvPS4_
sKc:__ZN20TextRenderingPrivate15DynamicFontData36GetFaceForCharacterIfAvailableInFontERKNS_7FontRefERK13dynamic_arrayI4PPtrIN13TextRendering4FontEELj4EEj
Yv:__ZN7mecanim14ValueArrayCopyILb0EEEvPKNS_10ValueArrayEPS1_
eF:__Z51Register_UnityEngine_Animator_get_hasBoundPlayablesv
ydh:_Collection_1_CopyTo_m3142835220_gshared
Ed:emscriptenWebGLGetUniform
to:FUNCTION_TABLE_iiiiiiiiiii
vvi:_GUI_CallWindowDelegate_m3309453386
jBe:_ValueCollection_System_Collections_IEnumerable_GetEnumerator_m2535969909_gshared
iBc:_cff_set_mm_blend
BJb:__ZN19GfxThreadableDevice15OnDeviceCreatedEb
vWb:__ZL10CleanUpJobP20CullingGroupsJobData
LQb:__Z20IsRunningNativeTestsv
oId:_DirectoryInfo_get_Exists_m3142069876
Icb:__ZN11TimeManager23VirtualRedirectTransferER17RemapPPtrTransfer
nLb:__ZN13RenderManager15BatchModeUpdateEv
Tdi:_Predicate_1__ctor_m327447107_gshared
Gdf:_X509Chain_get_CertificateAuthorities_m804805415
N6a:__ZN14SafeBinaryRead21TransferSTLStyleArrayI13dynamic_arrayI8Vector2fLj4EEEEvRT_17TransferMetaFlags
xqh:__ZL123GenericTypeParameterBuilder_t1988827940_CustomAttributesCacheGenerator_GenericTypeParameterBuilder_IsSubclassOf_m2266644074P21CustomAttributesCache
k3:__ZN17PersistentManager51InstanceIDToLocalSerializedObjectIdentifierInternalEiR31LocalSerializedObjectIdentifier
rvg:_Vector2_get_one_m738793577
cac:__ZNK4Mesh14GetIndexFormatEv
JZf:_GenericEqualityComparer_1__ctor_m4072188982_gshared
Jui:_UriParser_set_DefaultPort_m4007715058
hd:_glVertexAttribIPointer
W6f:_StringBuilder_ToString_m3317489284
jCa:__ZN13dynamic_arrayI21ComputeShaderResourceLj4EE9push_backERKS0_
pac:__ZNK6Sprite10GetPaddingE20SpriteRenderDataMode
QIf:_Array_InternalArray__ICollection_Remove_TisUInt32_t2560061978_m733727733_gshared
kfd:_CryptographicException__ctor_m503735289
HIe:_ConstructionCall_get_CallSiteActivationAttributes_m3498917408
bKd:_Stream_EndRead_m1896469262
QAg:__Z93RuntimeInvoker_Boolean_t97287965_Int32_t2950945753_SByte_t1669577662_ExceptionU26_t3600731591PFvvEPK10MethodInfoPvPS4_
GOb:__ZN14qsort_internal5QSortIP15RODataDepthPassi17ROSorterDepthPassEEvT_S4_T0_T1_
BDc:_UNITY_ft_glyphslot_alloc_bitmap
xfe:_RSASslSignatureDeformatter_SetHashAlgorithm_m895570787
Mni:_X509CrlEntry__ctor_m4013514048
COi:__ZN15dense_hashtableI10KeyWrapperIPK17Il2CppGenericInstES4_N6il2cpp8metadata21Il2CppGenericInstHashEN14dense_hash_setIS4_S7_NS4_14EqualsComparerINS6_24Il2CppGenericInstCompareEEENSt3__29allocatorIS4_EEE8IdentityESB_SE_E16reset_thresholdsEv
RPg:__Z87RuntimeInvoker_Color_t2555686324_Color_t2555686324_Color_t2555686324_Single_t1397266774PFvvEPK10MethodInfoPvPS4_
uIc:_ft_raster1_render
rlc:__Z47Register_UnityEngine_Mesh_RecalculateBoundsImplv
lqa:__ZN9GfxDevice27UpdateComputeSkinPoseBufferEP9GfxBufferP12SkinMeshInfo
j1f:_Enumerator_get_Current_m3382684163_AdjustorThunk
Hje:_InternalEnumerator_1_System_Collections_IEnumerator_Reset_m3677481164_AdjustorThunk
Axj:__ZNKSt3__221__basic_string_commonILb1EE20__throw_length_errorEv
TWf:_EqualityComparer_1_System_Collections_IEqualityComparer_Equals_m245992594_gshared
HKg:__Z52RuntimeInvoker_UInt64_t4134040092_Single_t1397266774PFvvEPK10MethodInfoPvPS4_
yMf:_Array_InternalArray__IndexOf_TisParameterModifier_t1461694466_m1227120810_gshared
TDa:__ZN18GfxFramebufferGLES13ReadbackImageER14ImageReferenceiiiiii
Cpc:__ZN5Unity9rapidjson6WriterI16TempBufferWriterNS0_4UTF8IcEES4_13JSONAllocatorE11WriteStringEPKcj
$cd:_SerializationInfo_SetType_m3923964808
wza:__ZN6prcoreL12RemapGenericI17TexFormatARGB888815TexFormatRGB565EEvPKNS_9InnerInfoE
$I:__ZN4FMOD7Channel19setReverbPropertiesEPK29FMOD_REVERB_CHANNELPROPERTIES
iMd:_StreamReader_Dispose_m156389394
k_:__ZN13MonoBehaviour22GetScriptFullClassNameEv
F4i:_il2cpp_object_get_class
Xkf:_SymmetricAlgorithm_get_Padding_m1011382560
p3b:__ZN13ProduceHelperI11MonoManagerLb0EE7ProduceE10MemLabelId18ObjectCreationMode
jif:_RIPEMD160Managed_JJ_m112143231
cOb:__ZN13BatchRendererC2ER15RenderLoopStatsRK15RenderNodeQueuebb
$ue:_Comparer_1__ctor_m191896560_gshared
O1e:_PreviousInfo_t2148130204_marshal_pinvoke_back
Vmb:__ZNK16MemoryFileSystem9EnumerateEPKcP19dynamic_block_arrayI13FileEntryInfoLj32EEbPPv19FileEnumerationFlag
_Db:__ZN13MonoBehaviour9CallAwakeEv
AYa:__ZN20SphericalHarmonicsL211AddWeightedERKS_f
SDg:__Z82RuntimeInvoker_RuntimeObject_Int64_t3736567304_Int64_t3736567304_Int64_t3736567304PFvvEPK10MethodInfoPvPS4_
htb:__Z19TransferField_ArrayI17RemapPPtrTransfer27Converter_SimpleNativeClassI8GUIStyleEEvRK23StaticTransferFieldInfoR31RuntimeSerializationCommandInfoRT0_
Sga:__ZL22StaticInitializeShaderPv
mqc:__ZN9JSONWrite8TransferI10ColorRGBAfEEvRT_PKc17TransferMetaFlags
Ore:_InternalEnumerator_1__ctor_m3913006324_AdjustorThunk
v$:__Z25scripting_method_get_name18ScriptingMethodPtr
Ife:_SslCipherSuite_ComputeKeys_m661027754
pse:_InternalEnumerator_1__ctor_m3322594868_gshared
urg:_Object_set_name_m291480324
Azd:_Convert_ToBoolean_m481380807
xyf:_Decimal_Equals_m2486655999
Uoj:_GC_exit_check
sTd:_AssemblyName_SetPublicKeyToken_m582470133
dQg:__Z52RuntimeInvoker_Boolean_t97287965_HitInfo_t3229609740PFvvEPK10MethodInfoPvPS4_
dM:__ZNK4PPtrI9AudioClipEcvPS0_Ev
VY:__Z20UnlockObjectCreationv
V0d:_MonoField_ToString_m2518484388
A4e:_DSAManaged_get_Random_m923751780
bze:_Transform_1_Invoke_m2385719192_gshared
rzg:_Vector3_set_Item_m1772472431_AdjustorThunk
zgf:_Interpreter_PopulateGroup_m4042796257
bqb:__ZN15SerializeTraitsI13dynamic_arrayIyLj8EEE19ResizeSTLStyleArrayERS1_i
l_b:__ZNSt3__26vectorINS_4pairIN4core12basic_stringIcNS2_20StringStorageDefaultIcEEEES6_EE13stl_allocatorIS7_L18MemLabelIdentifier38ELi16EEE6insertENS_11__wrap_iterIPKS7_EERSD_
Dng:_RenderPipelineManager_DoRenderLoop_Internal_m3799666479
BIh:__ZL78Sprite_t280657092_CustomAttributesCacheGenerator_Sprite_get_packed_m1179604684P21CustomAttributesCache
JA:__ZN9BlobWrite8TransferI22OffsetPtrArrayTransferI9OffsetPtrIN7mecanim12statemachine18StateMachineMemoryEEEEEvRT_PKc17TransferMetaFlags
gZ:__ZN4core8hash_mapIiP6ObjectNS_4hashIiEENSt3__28equal_toIiEEE4growEi
fZ:__ZN4core8hash_mapIiP6ObjectNS_4hashIiEENSt3__28equal_toIiEEE4growEv
tfh:_Collection_1_System_Collections_IList_IndexOf_m3894953546_gshared
Yli:_PKCS12_get_Certificates_m26161562
n8e:_NameObjectCollectionBase_Init_m2525481323
ekj:__ZN6il2cpp2vm6String8NewUtf16EPKDsi
ged:_SByte_System_IConvertible_ToByte_m2268214252_AdjustorThunk
vhj:__ZN6il2cpp2os10ThreadImpl12QueueUserAPCEPFvPvES2_
RF:__Z32TransferEnumWithNameForceIntSizeI14SafeBinaryReadN10SampleClip17CompressionFormatEEvRT_RT0_PKc17TransferMetaFlags
_si:_RegularExpression__ctor_m119502265
LUc:__ZN22BaseUnityConnectClient10QueueEventERN11UnityEngine15CloudWebService17CloudServiceEventEPKcjb
s6h:_ReadOnlyCollection_1_System_Collections_Generic_ICollectionU3CTU3E_Clear_m522482168_gshared
OVd:_DerivedType_IsByRefImpl_m2585680005
H$a:__ZN13dynamic_arrayI11ShaderTagIDLj4EE9push_backERKS0_
JIe:_ConstructionCall_InitMethodProperty_m2021094586
rGc:_UNITY_FT_Hypot
Zje:_InternalEnumerator_1__ctor_m2636293838_gshared
qNh:__ZL95TextGenerator_t3211863866_CustomAttributesCacheGenerator_TextGenerator_get_lineCount_m916872812P21CustomAttributesCache
oYh:__ZL74CanvasScaler_t2767979955_CustomAttributesCacheGenerator_m_DefaultSpriteDPIP21CustomAttributesCache
S3i:_il2cpp_class_is_abstract
yf:_emscripten_glGetError
q1i:__ZN15dense_hashtableINSt3__24pairIK10KeyWrapperIPK14Il2CppAssemblyEPK22Il2CppMonoAssemblyNameEES6_N6il2cpp5utils11PointerHashIS4_EEN14dense_hash_mapIS6_SA_SF_NS6_14EqualsComparerINS0_8equal_toIS5_EEEENS0_9allocatorISB_EEE9SelectKeyESK_SM_E14squash_deletedEv
MJ:__Z14FMOD_FILE_SeekPvjS_
KUe:_MaskableGraphic_OnDisable_m1757789159
jZa:__ZN7TextureC2E10MemLabelId18ObjectCreationMode
zSe:_LayoutGroup__ctor_m2162961217
ahg:_ValueType_t3640485471_marshal_pinvoke_cleanup
wXb:__ZNK13RenderTexture32CalculateNeedsInvertedProjectionEv
z0b:__ZN10systeminfo18GetOperatingSystemEv
Gf:emscriptenWebGLGet
Iaa:__Z19CanReplaceComponentRN5Unity9ComponentEPKNS_4TypeEPN4core12basic_stringIcNS5_20StringStorageDefaultIcEEEE
iOd:_UnmanagedMemoryStream_Flush_m1540584491
keh:_Collection_1_GetEnumerator_m3986802482_gshared
GCd:_GuidParser_ParseGuid2_m1914838819
h5b:__ZN12CubemapArray11InitTextureEiii13TextureFormatb
K0g:_List_1_System_Collections_IList_get_Item_m1112579679_gshared
KBd:_Convert_ToSingle_m3983149863
Mie:_InternalEnumerator_1_System_Collections_IEnumerator_get_Current_m55999184_gshared
TAe:_ValueCollection_System_Collections_Generic_ICollectionU3CTValueU3E_Contains_m1842955046_gshared
e_i:__ZN24dense_hashtable_iteratorINSt3__24pairIK10KeyWrapperIPK10Il2CppTypeEjEES6_N6il2cpp8metadata14Il2CppTypeHashEN14dense_hash_mapIS6_jSB_NS6_14EqualsComparerINSA_26Il2CppTypeEqualityComparerEEENS0_9allocatorIS8_EEE9SelectKeyESF_SH_E30advance_past_empty_and_deletedEv
X9c:_Graphic_get_depth_m815589653
Zui:_Event_set_displayIndex_m1342258734
b6c:_ContentSizeFitter_get_horizontalFit_m2773126143
vii:_U3CStartU3Ec__Iterator0__ctor_m2366347741_gshared
qB:__ZN7mecanim5human13HumanFixTwistEPKNS0_5HumanEPNS_8skeleton13SkeletonPoseTIN4math4trsXEEES9_iiRKf
uRb:__ZL24AssignProjectorQueuesJobP30AssignProjectorQueuesJobHeader
cSf:_KeyValuePair_2_get_Key_m1218836954_gshared
G2d:_ParameterModifier_t1461694466_marshal_pinvoke
WPi:__ZN15dense_hashtableINSt3__24pairIK10KeyWrapperIN6il2cpp5utils13dynamic_arrayIPK10Il2CppTypeLj4EEEEPFvvEEESA_NS3_8metadata19Il2CppSignatureHashEN14dense_hash_mapISA_SD_SG_NSA_14EqualsComparerINSF_22Il2CppSignatureCompareEEENS0_9allocatorISE_EEE9SelectKeyESK_SM_E4swapERSP_
fDe:_Dictionary_2_System_Collections_Generic_ICollectionU3CSystem_Collections_Generic_KeyValuePairU3CTKeyU2CTValueU3EU3E_Contains_m3724727653_gshared
qna:__ZN9ShaderLab20SerializedSubProgram14SetConstBufferEPKci
dWi:__ZN6il2cpp2os4File5CloseEPNS0_10FileHandleEPi
vPi:__ZNSt3__27__sort5IRN6il2cpp5utils11collections13ArrayValueMapIPK10Il2CppType17Il2CppInteropData26InteropDataToTypeConverterNS1_8metadata14Il2CppTypeLessENSA_26Il2CppTypeEqualityComparerEE12SortComparerEPS8_EEjT0_SH_SH_SH_SH_T_
rxg:_Touch_get_fingerId_m859576425_AdjustorThunk
JVg:__Z48RuntimeInvoker_Boolean_t97287965_Link_t544317964PFvvEPK10MethodInfoPvPS4_
cVe:_Navigation_get_selectOnDown_m1912812616_AdjustorThunk
s2g:_List_1_System_Collections_ICollection_CopyTo_m2688165607_gshared
rVg:__Z53RuntimeInvoker_UIVertex_t4057497605_Int32_t2950945753PFvvEPK10MethodInfoPvPS4_
Beg:_UInt16_CompareTo_m2664746316_AdjustorThunk
aBe:_ValueCollection_GetEnumerator_m616748621_gshared
$W:__Z40DebugStringToFilePostprocessedStacktraceRK21DebugStringToFileData
_uc:__Z29Transfer_Blittable_ArrayFieldI8JSONReadjEvRT_R9ArrayInfoRK23StaticTransferFieldInfo
jai:_ReadOnlyCollection_1_get_Item_m679165083_gshared
_oj:_GC_check_finalizer_nested
mg:__setLetterbox
$0a:__ZNSt3__26__treeINS_12__value_typeIN9ShaderLab16FastPropertyNameEfEENS_19__map_value_compareIS3_S4_NS_4lessIS3_EELb1EEENS_9allocatorIS4_EEE12__find_equalIS3_EERPNS_16__tree_node_baseIPvEENS_21__tree_const_iteratorIS4_PNS_11__tree_nodeIS4_SE_EEiEESH_RKT_
wYe:_ScrollRect_OnScroll_m3861066534
QCe:_Dictionary_2_ToTKey_m224697230_gshared
RMh:__ZL72FormerlySerializedAsAttribute_t2859083114_CustomAttributesCacheGeneratorP21CustomAttributesCache
Toc:__ZN8JSONRead32GetValueForKeyWithNameConversionEPKN5Unity9rapidjson12GenericValueINS1_4UTF8IcEE13JSONAllocatorEEPKc
Opi:_PatternCompiler_EmitFastRepeat_m3012952683
hab:__ZNSt3__26vectorI17BlendShapeChannelNS_9allocatorIS1_EEE6assignINS_11__wrap_iterIPS1_EEEENS_9enable_ifIXaasr21__is_forward_iteratorIT_EE5valuesr16is_constructibleIS1_NS_15iterator_traitsISA_E9referenceEEE5valueEvE4typeESA_SA_
s0b:__ZN11TimeManager11GetRealtimeEv
qHh:__ZL91RectOffset_t1369453676_CustomAttributesCacheGenerator_RectOffset_get_horizontal_m2663785949P21CustomAttributesCache
wrg:_Object_GetHashCode_m1944636947
hId:_BinaryReader_ReadUInt32_m2210658763
eK:__ZN29AudioEffectInternalDefinitionC2EP26UnityAudioEffectDefinitionb
cbi:_ReadOnlyCollection_1_System_Collections_IList_Remove_m2434650390_gshared
Ueg:_UInt16_ToString_m3056878594_AdjustorThunk
wD:__ZN4PPtrI6AvatarE8TransferI18StreamedBinaryReadILb0EEEEvRT_
XSf:_Dictionary_2_System_Collections_Generic_ICollectionU3CSystem_Collections_Generic_KeyValuePairU3CTKeyU2CTValueU3EU3E_Contains_m2803718146_gshared
msj:__ZN6il2cpp2os9FastMutexD2Ev
whf:_Interval_get_IsSingleton_m3386290029
lYi:__ZNSt3__2plIcNS_11char_traitsIcEENS_9allocatorIcEEEENS_12basic_stringIT_T0_T1_EERKS9_PKS6_
nxg:_Time_get_unscaledDeltaTime_m4270080131
Kbb:__ZN4Mesh14GetMeshBuffersER11MeshBuffers17ShaderChannelMaskPS_b
$jf:_SHA384Managed__ctor_m3220477113
vya:_stbir_resize
LLf:_Array_IndexOf_TisCustomAttributeTypedArgument_t2723150157_m3158556463_gshared
tWf:_EqualityComparer_1_System_Collections_IEqualityComparer_GetHashCode_m360549782_gshared
nCf:_Environment_GetOSVersionString_m407782784
gsf:_DecoderExceptionFallback_Equals_m1082173956
qYf:_EqualityComparer_1_System_Collections_IEqualityComparer_GetHashCode_m345188086_gshared
drh:__ZL69Assembly_t_CustomAttributesCacheGenerator_Assembly_GetName_m981771927P21CustomAttributesCache
qbb:__ZN4PPtrI4MeshE8TransferI14SafeBinaryReadEEvRT_
zOa:__Z37ReadDirectoryInfo_UnityWebAndUnityRawR12FileAccessorRKN20ArchiveStorageHeader6HeaderERNS1_13DirectoryInfoE
T9:__ZNSt3__26__treeINS_12__value_typeIPKciEENS_19__map_value_compareIS3_S4_15compare_tstringIS3_ELb1EEENS_9allocatorIS4_EEE7destroyEPNS_11__tree_nodeIS4_PvEE
QPf:_Array_InternalArray__Insert_TisIntPtr_t_m189626842_gshared
Lcf:_X509Certificate2_get_IssuerName_m1277209535
N$e:_Locale_GetText_m3374010885
Tih:_Collection_1_System_Collections_IEnumerable_GetEnumerator_m1598238343_gshared
Fid:_RijndaelManaged_CreateEncryptor_m263736311
Tag:_WaitCallback__ctor_m1893321019
EOb:__ZN20DynamicPropertySheet14SetValueQueuedEN9ShaderLab16FastPropertyNameEN19ShaderPropertySheet12PropertyTypeEjNS2_8SetFlagsE
OOc:__ZN2UI6Canvas26MarkAllNestedCanvasesDirtyEv
Jmg:_InvokableCallList_ClearPersistent_m1904264973
AFb:__ZN25PathNamePersistentManagerD2Ev
OY:__ZN17PersistentManager48IntegrateObjectAndUnlockIntegrationMutexInternalEi
Hga:__ZZ29InitializeSortingGroupManagerPvEN44PostLateUpdateSortingGroupsUpdateRegistrator7ForwardEv
RRh:__ZL55EventTrigger_t1076084509_CustomAttributesCacheGeneratorP21CustomAttributesCache
Hnf:_SecurityElement_SearchForChildByTag_m900466299
mp:__ZN6Object12SetHideFlagsENS_9HideFlagsE
p4e:_CryptoConvert_FromCapiPublicKeyBlob_m4073029974
fEj:_emscripten_glGetFramebufferAttachmentParameteriv__wrapper
PLb:__ZN13RendererScene15InitializeUmbraEv
rXa:__Z28CalculateGlobalMatrixInverse23TransformAccessReadOnly
Kqg:_MonoBehaviour__ctor_m1579109191
mQh:__ZL59GUITargetAttribute_t25796337_CustomAttributesCacheGeneratorP21CustomAttributesCache
wZf:_GenericEqualityComparer_1_Equals_m3457564127_gshared
T5d:_BigInteger_ModInverse_m2426215562
Dke:_InternalEnumerator_1_System_Collections_IEnumerator_Reset_m2386791007_AdjustorThunk
csf:_DecoderExceptionFallback__ctor_m4044614564
vme:_InternalEnumerator_1_System_Collections_IEnumerator_Reset_m3011999097_AdjustorThunk
n7i:__ZN6il2cpp2vm6Thread17FullMemoryBarrierEv
nOd:_LocalDataStoreSlot__cctor_m644942532
itj:__ZN6il2cpp6icalls8mscorlib6System6Object7GetTypeEP12Il2CppObject
K1d:_MonoProperty_CachePropertyInfo_m2968057423
gYc:__ZNK25UnityWebRequestJavaScript18GetDownloadedBytesEv
ntg:_Ray_GetPoint_m1852405345_AdjustorThunk
wph:__ZL53RegionInfo_t1090270226_CustomAttributesCacheGeneratorP21CustomAttributesCache
MQh:__ZL85Canvas_t3310196443_CustomAttributesCacheGenerator_Canvas_get_sortingOrder_m1860900812P21CustomAttributesCache
Ikh:__ZL74Single_t1397266774_CustomAttributesCacheGenerator_Single_IsNaN_m4024467661P21CustomAttributesCache
QGf:_Array_get_swapper_TisColor32_t2600501292_m2310851009_gshared
_Xc:__ZN12HeaderHelper14SetUnvalidatedERKN4core12basic_stringIcNS0_20StringStorageDefaultIcEEEES6_b
cG:__ZN4FMOD6SoundI7releaseEv
Wzc:_cff_parse_num
bPa:__ZN10MemoryFile9SetLengthEy
mvb:__ZN5RectTIiE8TransferI24GenerateTypeTreeTransferEEvRT_
v4a:__ZN14SafeBinaryRead21TransferSTLStyleArrayI13dynamic_arrayI7Hash128Lj8EEEEvRT_17TransferMetaFlags
CEb:__Z28scripting_class_is_interface17ScriptingClassPtr
Dh:_glTexStorage2D
Qxd:_SyncHashtable_get_Item_m2686606216
Nma:__ZNK9ShaderLab10SubProgram14EnsureCompiledEv
bZd:_MethodBuilder_GetGenericArguments_m1765425737
Nuf:_DateTime_CompareTo_m3687348273
Pnj:_GC_push_marked
Vvf:_DateTime_ToUniversalTime_m1945318289_AdjustorThunk
x2e:_Kernel_modInverse_m668448880
nBf:_Enum_t4135868527_marshal_pinvoke
l$:__Z18BuildScriptClassId17ScriptingClassPtr
eHi:_TextGenerator_Init_m1168488231
Y5e:_RSAManaged_Finalize_m3915335854
qq:__ZNK16LevelGameManager7GetNameEv
CMa:__ZL31DeleteLastPathNameComponentImplRKN4core12basic_stringIcNS_20StringStorageDefaultIcEEEEPKc
n2b:__Z13RegisterClassI18DelayedCallManagerEvv
YUc:__ZN18UnityConnectClient15GetCloudServiceEv
vtb:__Z18Transfer_BlittableI24GenerateTypeTreeTransferLb0EiEvRK29SerializationCommandArgumentsR31RuntimeSerializationCommandInfo
jne:_InternalEnumerator_1_get_Current_m2698009637_gshared
DSi:__ZN6il2cpp2os19SocketHandleWrapperD2Ev
cAe:_Enumerator_System_Collections_IEnumerator_Reset_m278261807_gshared
vEb:__ZL28SerializationCommandGroupForRK31TransferFunctionScriptingTraits17ScriptingClassPtr17ScriptingFieldPtrRK20CoreScriptingClasses
GRa:__ZN10TagManager32RegisterDefaultTagsAndLayerMasksEv
ebg:_WaitHandle_Dispose_m738127030
r6g:_List_1_System_Collections_IList_get_IsReadOnly_m1729002068_gshared
WJg:__Z50RuntimeInvoker_Double_t594665363_Int32_t2950945753PFvvEPK10MethodInfoPvPS4_
Wdi:_Predicate_1_EndInvoke_m1490920825_gshared
EBh:__ZL78LoaderOptimization_t1484956347_CustomAttributesCacheGenerator_DisallowBindingsP21CustomAttributesCache
YSf:_Dictionary_2_System_Collections_Generic_ICollectionU3CSystem_Collections_Generic_KeyValuePairU3CTKeyU2CTValueU3EU3E_CopyTo_m3122240003_gshared
BSg:__Z104RuntimeInvoker_Void_t1185182177_Color_t2555686324_Single_t1397266774_SByte_t1669577662_SByte_t1669577662PFvvEPK10MethodInfoPvPS4_
R5g:_List_1_Remove_m3853969205_gshared
B1f:_Enumerator_System_Collections_IEnumerator_get_Current_m1540440674_gshared
Cof:_Single_System_IConvertible_ToInt16_m809233024_AdjustorThunk
Nvj:_fmodf
IOe:_InputField_UpdateLabel_m1837760870
Lua:__ZN4gles8InitCapsEP7ApiGLESP12GraphicsCapsR16GfxDeviceLevelGL
Pya:__ZN6prcore14BlitImageFloatERK14ImageReferenceRS0_NS0_8BlitModeE
WUa:__Z24CalculateVertexLightDataRK15SharedLightDataR14GfxVertexLight
li:_glEnable
Spe:_InternalEnumerator_1_MoveNext_m973048327_gshared
Kma:__ZNK9ShaderLab7Program28BeginReadUnsupportedVariantsEv
m6:__ZN12CachedWriter11Align4WriteEv
Qfb:__ZNSt3__26vectorIN30RuntimeInitializeOnLoadManager9ClassInfoE13stl_allocatorIS2_L18MemLabelIdentifier13ELi16EEE7reserveEj
zqc:__Z35Transfer_Blittable_FixedBufferFieldI9JSONWriteiEvRK29SerializationCommandArgumentsR31RuntimeSerializationCommandInfo
hOh:__ZL85AudioSource_t3935305588_CustomAttributesCacheGenerator_AudioSource_set_clip_m31653938P21CustomAttributesCache
MZf:_Enumerator__ctor_m1590062855_AdjustorThunk
o2i:__ZN14dense_hash_mapI10KeyWrapperINSt3__24pairIPK10MethodInfoP11Il2CppClassEEEj17ReflectionMapHashIS8_ENS9_14EqualsComparerINS1_8equal_toIS8_EEEENS1_9allocatorINS2_IKS9_jEEEEEC2EjRKSB_RKSF_
Sx:__ZN26AnimatorControllerPlayable17ProcessRootMotionEP35AnimationPlayableEvaluationConstantP32AnimationPlayableEvaluationInputP33AnimationPlayableEvaluationOutput
_uh:__ZL54SoapServices_t133988723_CustomAttributesCacheGeneratorP21CustomAttributesCache
ONd:_UnexceptionalStreamReader_Peek_m1842169584
ATc:__ZN11UnityEngine7Connect15DeviceInfoEvent16CollectExtraInfoEv
lAg:_TypeInferenceRuleAttribute__ctor_m2736695831
Uig:_Bounds_GetHashCode_m1844059663_AdjustorThunk
Bfd:_CryptographicException__ctor_m1422015889
Qzg:_Vector4_Equals_m1779210055_AdjustorThunk
wCd:_Convert_ChangeType_m739676612
Ywj:_atoi
lFd:_Int32_System_IConvertible_ToInt32_m265310525_AdjustorThunk
Zwj:_atol
Qlj:__ZThn8_N6il2cpp2vm13CachedCCWBaseINS0_13ManagedObjectEE6AddRefEv
I9d:_Alert_GetAlertMessage_m1942367141
pXh:__ZL88Selectable_t3250028441_CustomAttributesCacheGenerator_U3CisPointerDownU3Ek__BackingFieldP21CustomAttributesCache
BGe:_RemotingServices_GetRealProxy_m2081098851
g4e:_BlockProcessor_Core_m189015002
WNi:__ZN15dense_hashtableINSt3__24pairIK10KeyWrapperIPKcEP11Il2CppClassEES5_N6il2cpp5utils11StringUtils12StringHasherIS4_EEN14dense_hash_mapIS5_S8_SE_NS5_14EqualsComparerINSB_13VmStringUtils21CaseSensitiveComparerEEENS0_9allocatorIS9_EEE9SelectKeyESJ_SL_EC2EjRKSE_RKSJ_RKSN_
nEj:_emscripten_glScissor__wrapper
yo:FUNCTION_TABLE_viifi
zo:FUNCTION_TABLE_viiff
mjd:_X501__cctor_m1166912714
MSh:__ZL102PointerEventData_t3807901092_CustomAttributesCacheGenerator_PointerEventData_set_lastPress_m2928324031P21CustomAttributesCache
TUe:_MaskUtilities_GetRectMasksForClip_m532898711
IGc:_UNITY_tt_face_free_hdmx
ujg:_Bounds_ToString_m4208690781
m5i:__ZN15dense_hashtableINSt3__24pairIK10KeyWrapperINS1_IP11Il2CppClassjEEES4_EES6_N6il2cpp8metadata14ArrayClassHashEN14dense_hash_mapIS6_S4_SB_NS6_14EqualsComparerINSA_17ArrayClassCompareEEENS0_9allocatorIS8_EEE9SelectKeyESF_SH_E5clearEv
tNi:__ZNSt3__218uninitialized_copyIPNS_4pairIK10KeyWrapperIPK11Il2CppClassEPKcEESB_EET0_T_SD_SC_
TWi:__ZN6il2cpp2vm14TypeNameParser5ParseEb
EOd:_Math_Sqrt_m1297338011
BMd:_StreamWriter_Initialize_m3490883444
Ddg:_Type_GetGenericArguments_m3500465462
bXc:__ZN23UnityPurchasingSettingsC2Ev
yyj:__ZNSt9bad_allocD0Ev
S$d:_Module_IsDefined_m2423524910
BVd:_DerivedType_create_unmanaged_type_m747846525
FPh:__ZL60EventType_t3528516131_CustomAttributesCacheGenerator_repaintP21CustomAttributesCache
LTa:__ZN17GPUFenceInternals7ReleaseEv
hXh:__ZL66Selectable_t3250028441_CustomAttributesCacheGenerator_m_NavigationP21CustomAttributesCache
_2d:_ResolveEventHandler__ctor_m1911137231
Ogh:_Collection_1_System_Collections_IList_Contains_m2393482847_gshared
xXb:__ZL10RenderFaceR9GfxDeviceR18MaterialStateCacheP13RenderTextureiif
KLf:_Array_IndexOf_TisCustomAttributeNamedArgument_t287865710_m2817957199_gshared
wja:__ZN15SerializeTraitsI13dynamic_arrayIN9ShaderLab21SerializedBindChannelELj4EEE19ResizeSTLStyleArrayERS3_i
ccj:__ZNK24NamespaceAndNamePairHashclERKNSt3__24pairIPKcS3_EE
lli:_ExtendedKeyUsageExtension_ToString_m2116504780
Jib:__ZNK5Unity9Component38MarkGameObjectAndComponentDependenciesER27GarbageCollectorThreadState
THd:_BinaryReader_Read_m3708759962
vYc:__ZN20UnityWebRequestProtoI24UnityWebRequestTransport16AtomicRefCounter14RedirectHelper14ResponseHelper15DownloadHandler13UploadHandler12HeaderHelper14AsyncOperationED0Ev
MN:__ZNK7Texture21GetShadowSamplingModeEv
x6a:__ZN13ScreenManager21OnWindowRegainedFocusEv
MBb:__Z18Transfer_BlittableI18StreamedBinaryReadILb0EELb1EdEvRK29SerializationCommandArgumentsR31RuntimeSerializationCommandInfo
qua:__ZN9GfxDevice26CreateDefaultVertexBuffersEv
GFj:_emscripten_glVertexAttrib2fv__wrapper
ZYc:__ZN13RuntimeStaticINSt3__26vectorIPN5physx15PxVehicleWheelsENS0_9allocatorIS4_EEEELb0EE13StaticDestroyEPv
aNd:_SynchronizedReader_ReadToEnd_m2160105378
KAf:_Double_System_IConvertible_ToUInt16_m4132603953_AdjustorThunk
Jxa:__ZN4crnd12symbol_codec32decode_receive_static_data_modelERNS_25static_huffman_data_modelE
Q0b:__ZN18ScriptingArguments8AddFloatEf
Axg:_TouchScreenKeyboard_Open_m3325559252
acd:_Image_set_fillOrigin_m469806249
oTc:__ZN11UnityEngine15PlatformWrapper16GetVRRenderScaleEv
zrc:__Z18Transfer_BlittableI9JSONWriteLb0EaEvRK29SerializationCommandArgumentsR31RuntimeSerializationCommandInfo
MR:__ZN11UnityEngine15CloudWebService14DataDispatcher34OnSessionContainerArchivedAndReadyERNS0_16SessionContainerE
Yqg:_ConnectionChangeEvent__ctor_m764126802
f6d:_Kernel_Multiply_m193213393
APd:_IntComparer__ctor_m2901422390
$2d:_ResolveEventHandler_Invoke_m1337322179
dwh:__ZL50HMACMD5_t2742219965_CustomAttributesCacheGeneratorP21CustomAttributesCache
rue:_Comparer_1__ctor_m1078828713_gshared
Rvb:__Z18Transfer_BlittableI19StreamedBinaryWriteILb0EELb0E8Vector3fEvRK29SerializationCommandArgumentsR31RuntimeSerializationCommandInfo
t0f:_Enumerator_VerifyState_m2621680056_gshared
Vti:_UriParser_InternalRegister_m3643767086
mNh:__ZL106TextGenerator_t3211863866_CustomAttributesCacheGenerator_TextGenerator_INTERNAL_get_rectExtents_m183810018P21CustomAttributesCache
Uha:__ZN14SafeBinaryRead19TransferSTLStyleMapINSt3__23mapIN4core12basic_stringIcNS3_20StringStorageDefaultIcEEEEiNS1_4lessIS7_EENS1_9allocatorINS1_4pairIKS7_iEEEEEEEEvRT_17TransferMetaFlags
Hvf:_DateTimeFormatInfo_get_RawAbbreviatedDayNames_m1257850285
g$i:__ZN15dense_hashtableINSt3__24pairIK10KeyWrapperINS1_IPK11Il2CppImageP11Il2CppClassEEEjEES9_17ReflectionMapHashIS8_EN14dense_hash_mapIS9_jSD_NS9_14EqualsComparerINS0_8equal_toIS8_EEEENS0_9allocatorISB_EEE9SelectKeyESI_SK_ED2Ev
UEc:_gray_move_to
Swf:_DBNull_System_IConvertible_ToSingle_m13713620
YYh:__ZL127U3CDelayedSetDirtyU3Ec__Iterator0_t3170500204_CustomAttributesCacheGenerator_U3CDelayedSetDirtyU3Ec__Iterator0_Reset_m160466733P21CustomAttributesCache
Yjg:_CameraCallback__ctor_m899467377
x5h:_ReadOnlyCollection_1_System_Collections_IList_Contains_m1327645028_gshared
ncd:_Image_GetDrawingDimensions_m3060965396
eNh:__ZL69FontTextureRebuildCallback_t2467502454_CustomAttributesCacheGeneratorP21CustomAttributesCache
Wdg:_TypeLoadException__ctor_m1154572625
_dc:__Z30RegisterValidateMethodCallbackiPF18ScriptingMethodPtrS_17ScriptingClassPtrP6ObjectEPKc
wlb:__ZN20LocalFileSystemPosixD0Ev
Rkh:__ZL75Decimal_t2948259380_CustomAttributesCacheGenerator_Decimal__ctor_m593929528P21CustomAttributesCache
Oce:_Context_get_WriteSequenceNumber_m1115956887
Ald:_Activator_CreateInstanceInternal_m1337209899
w1h:_Dictionary_2_Do_ICollectionCopyTo_TisKeyValuePair_2_t2401056908_m1169495264_gshared
NZd:_OpCodes__cctor_m3821715395
a6c:_ContentSizeFitter__ctor_m2349275633
FDh:__ZL56TypeConverter_t2249118273_CustomAttributesCacheGeneratorP21CustomAttributesCache
ygh:_Collection_1_RemoveAt_m3506636491_gshared
fEc:_tt_cmap_init
Rvc:__ZN8JSONRead8TransferI9BoundsIntEEvRT_PKc17TransferMetaFlagsb
Ia:invoke_viidi
Z$h:_Array_Sort_TisOrderBlock_t1585977831_m2922111197_gshared
O9c:_Graphic_OnRectTransformDimensionsChange_m3695755375
ied:_SByte_System_IConvertible_ToChar_m1489191771_AdjustorThunk
FI:__ZN9AudioClip7CleanupEv
GYg:__Z76RuntimeInvoker_Void_t1185182177_Int32_t2950945753_PlayableBinding_t354260709PFvvEPK10MethodInfoPvPS4_
qhf:_Interval_t1802865632_marshal_pinvoke_cleanup
y6i:__ZNK15dense_hashtableINSt3__24pairIK10KeyWrapperIP11Il2CppClassES4_EES5_N6il2cpp8metadata16SZArrayClassHashEN14dense_hash_mapIS5_S4_SA_NS5_14EqualsComparerINS9_19SZArrayClassCompareEEENS0_9allocatorIS7_EEE9SelectKeyESE_SG_E12test_deletedEj
iad:_Graphic_GraphicUpdateComplete_m1502194795
suc:__Z18Transfer_BlittableI8JSONReadLb0EdEvRK29SerializationCommandArgumentsR31RuntimeSerializationCommandInfo
QHe:_SynchronizationAttribute_EnterContext_m1660729920
OHi:_Canvas_get_referencePixelsPerUnit_m3420541976
D5h:_ReadOnlyCollection_1_System_Collections_ICollection_get_SyncRoot_m2522539235_gshared
bvi:_Event_get_current_m2393892120
kzi:_VertexHelper_Clear_m627349662
WSi:__ZN6il2cpp2vm21ThreadPoolCompartment13QueueWorkItemEP17Il2CppAsyncResult
npa:__ZNK9GfxDevice13GetViewMatrixEv
jOd:_UnmanagedMemoryStream_Dispose_m2681886347
Jhb:__ZN17RemapPPtrTransferC2E24TransferInstructionFlagsb
qAd:_Convert_ToDecimal_m889385228
J0:__ZN8TypeTree8BlobReadERPKhS1_ib
DGh:__ZL87Display_t1387065949_CustomAttributesCacheGenerator_Display_GetSystemExtImpl_m2808197389P21CustomAttributesCache
Pnd:_Array_Reverse_m3714848183
i8c:_Dropdown_ClearOptions_m4085591601
n5c:_CanvasUpdateRegistry_InternalRegisterCanvasElementForGraphicRebuild_m3522560454
sSf:_KeyValuePair_2__ctor_m880186442_gshared
lgb:__ZN18LoadSceneOperation23GetAllowSceneActivationEv
eSa:__ZN6CameraD0Ev
tfa:__ZN31CanvasBatchIntermediateRenderer16StaticInitializeEPv
Xih:_Collection_1_System_Collections_IList_IndexOf_m837396833_gshared
ix:__ZN7mecanim12AndValueMaskILb0EEEvPKNS_14ValueArrayMaskEPS1_
Efb:__ZN14SafeBinaryRead21TransferSTLStyleArrayINSt3__26vectorIi13stl_allocatorIiL18MemLabelIdentifier13ELi16EEEEEEvRT_17TransferMetaFlags
c5f:_EncoderFallback__cctor_m3806755293
ike:_InternalEnumerator_1__ctor_m962177456_AdjustorThunk
RKc:_raccess_guess_apple_double
OBa:__ZL18ProgramUniform1uivPK7ApiGLESjiihPKv
r5b:__ZN14Texture2DArray13RebuildMipMapEv
VMi:__ZN13Il2CppHashSetIPK17Il2CppGenericInstN6il2cpp8metadata21Il2CppGenericInstHashENS4_24Il2CppGenericInstCompareENSt3__29allocatorI10KeyWrapperIS2_EEEEC2EjRKS5_RKS6_
Sob:__Z18Transfer_BlittableI14SafeBinaryReadLb1EaEvRK29SerializationCommandArgumentsR31RuntimeSerializationCommandInfo
Cij:__ZN6il2cpp2gc16GarbageCollector14RemoveWeakLinkEPPv
rna:__ZN9ShaderLab20SerializedSubProgram14AddVectorParamEPKcii15ShaderParamTypei
U2g:_List_1_GetEnumerator_m563931292_gshared
yQc:__ZN2UI14CanvasRenderer12CleanupClassEv
Yyd:_Enumerator__ctor_m3362421874
YQg:__Z117RuntimeInvoker_CSSSize_t3377836552_IntPtr_t_Single_t1397266774_Int32_t2950945753_Single_t1397266774_Int32_t2950945753PFvvEPK10MethodInfoPvPS4_
JJj:_emscripten_glIsFramebuffer__wrapper
Cfj:__ZN6il2cpp2vm6Object3BoxEP11Il2CppClassPv
m7i:__ZN6il2cpp2vm6Thread7SetNameEP12Il2CppThreadP12Il2CppString
IGb:__ZN13ScreenManager18SetAllowCursorLockEb
eT:__ZN11UnityEngine15CloudWebService10RestClientINS0_23WebRequestRestHeaderMapEE16SetRequestHeaderERKN4core12basic_stringIcNS4_20StringStorageDefaultIcEEEESA_
Jfb:__ZN30RuntimeInitializeOnLoadManager15ClassMethodInfo8TransferI14SafeBinaryReadEEvRT_
BIe:_ConstructionCall_InitDictionary_m2824447813
T2d:_TargetException__ctor_m3701535709
uWg:__Z86RuntimeInvoker_Int32_t2950945753_Vector3_t3722313464_Vector3_t3722313464_RuntimeObjectPFvvEPK10MethodInfoPvPS4_
BP:__ZL22InitializeModule_Audiov
Imb:__ZN16MemoryFileSystem8IsLockedERK13FileEntryData
V8i:__ZN6il2cpp6icalls8mscorlib6System2IO6MonoIO5WriteEiP11Il2CppArrayiiPi
Ipg:_Mathf_InverseLerp_m4155825980
hHg:__Z92RuntimeInvoker_RuntimeObject_RuntimeObject_RuntimeObject_SByte_t1669577662_SByte_t1669577662PFvvEPK10MethodInfoPvPS4_
Zk:_emscripten_glBindRenderbuffer
D0g:_List_1_System_Collections_IList_Insert_m1011775503_gshared
Poj:_GC_dirty_init
Xcj:__ZN6il2cpp2vm5Image33GetCachedMemoryMappedResourceFileEP24Il2CppReflectionAssembly
ofj:__ZN6il2cpp2vm5Field14GetValueObjectEP9FieldInfoP12Il2CppObject
WPc:__ZNK2UI6Canvas16GetTargetDisplayEv
yVg:__Z69RuntimeInvoker_Void_t1185182177_Int32_t2950945753_Vector2_t2156229523PFvvEPK10MethodInfoPvPS4_
Obg:_TimeSpan_CompareTo_m3633415627_AdjustorThunk
ida:__ZN6Object17FindObjectsOfTypeEPKN5Unity4TypeER13dynamic_arrayIPS_Lj4EEb
j9b:__ZNSt3__26vectorINS_4pairIiiEE13stl_allocatorIS2_L18MemLabelIdentifier1ELi16EEE21__push_back_slow_pathIKS2_EEvRT_
LUe:_MaskableGraphic_OnTransformParentChanged_m329502413
Edh:_Collection_1_Remove_m3611142372_gshared
UDb:__ZN13MonoBehaviour17RemoveFromManagerEv
pzg:_Vector3_get_Item_m668685504_AdjustorThunk
LSa:__ZN12ImageFilters14AddImageFilterERK11ImageFilter
NGe:_Context_NotifyDynamicSinks_m1841702879
Dvi:_GUIUtility_get_pixelsPerPoint_m2369948084
tnf:_WindowsIdentity_System_Runtime_Serialization_IDeserializationCallback_OnDeserialization_m3428853631
pW:__ZN13MemoryManagerC2Ev
HFa:__ZN12SkinMeshInfo10DeallocateEPS_
JNi:__ZNK15dense_hashtableINSt3__24pairIK10KeyWrapperIPKcEP11Il2CppClassEES5_N6il2cpp5utils11StringUtils12StringHasherIS4_EEN14dense_hash_mapIS5_S8_SE_NS5_14EqualsComparerINSB_13VmStringUtils21CaseSensitiveComparerEEENS0_9allocatorIS9_EEE9SelectKeyESJ_SL_E8min_sizeEjj
ZXe:_ScrollRect_SetDirty_m214267968
qPa:__ZN20ArchiveStorageReader28AcquireAndPrefillUnusedBlockEjPNS_11CacheResultE
tpd:_Boolean_System_IConvertible_ToDateTime_m603510836
l5b:__Z12NHxRoughnessIA4_tEvP9Texture2DPT_iiii
J3e:_ASN1_get_Value_m1857007406
cDi:__ZL25UnresolvedVirtualCall_105P12Il2CppObjecthPK10MethodInfo
Cda:__ZN18AsyncUploadManagerD2Ev
kkb:__ZN9Transform5ResetEv
Yyf:_Decimal_op_Explicit_m1842265407
Cvb:__Z22TransferField_NonArrayI24GenerateTypeTreeTransfer16Converter_StringEvRK23StaticTransferFieldInfoR31RuntimeSerializationCommandInfoRT0_
EIi:_CanvasRenderer_SetAlphaTexture_m2009567627
AAc:_UNITY_FT_CMap_New
Yje:_InternalEnumerator_1_get_Current_m4241643334_AdjustorThunk
$ie:_InternalEnumerator_1_MoveNext_m154749640_AdjustorThunk
BGb:__Z17MainLoopKeepalivePv
AXh:__ZL62Slider_t3903728902_CustomAttributesCacheGenerator_m_HandleRectP21CustomAttributesCache
GOi:__ZN15dense_hashtableI10KeyWrapperIPK17Il2CppGenericInstES4_N6il2cpp8metadata21Il2CppGenericInstHashEN14dense_hash_setIS4_S7_NS4_14EqualsComparerINS6_24Il2CppGenericInstCompareEEENSt3__29allocatorIS4_EEE8IdentityESB_SE_E12expand_arrayEjN21dense_hash_map_traits17integral_constantIbLb0EEE
mqe:_InternalEnumerator_1_get_Current_m1588647567_AdjustorThunk
Suj:_printf_core
Lsh:__ZL51GCHandle_t3351438187_CustomAttributesCacheGeneratorP21CustomAttributesCache
HVb:__Z14CalcHullBoundsPK8Vector3fPKhhRK5PlaneRK10Matrix4x4fR10MinMaxAABB
$Oe:_InputField_get_caretBlinkRate_m3620074524
zOb:__Z19SetupLODFadeKeywordR17ShaderPassContexti
pjf:_RSAPKCS1SignatureFormatter_CreateSignature_m3191980616
g$a:__ZN10builtintex16GetDefaultTexEnvE16TextureDimensionb
jFa:__ZL25CheckCopyTextureArgumentsRK7ApiGLESP11GLESTextureS3_
oqe:_InternalEnumerator_1__ctor_m362401472_AdjustorThunk
T0g:_List_1_AsReadOnly_m2400800347_gshared
wIj:_glDeleteShader__wrapper
$ub:__Z29Transfer_Blittable_ArrayFieldI24GenerateTypeTreeTransferyEvRT_R9ArrayInfoRK23StaticTransferFieldInfo
ehg:_ValueType_Equals_m1524437845
qKh:__ZL71RuntimePlatform_t4159857903_CustomAttributesCacheGenerator_OSXWebPlayerP21CustomAttributesCache
qJ:__ZN4FMOD7SystemI9playSoundE17FMOD_CHANNELINDEXPNS_5SoundEbPPNS_7ChannelE
fUg:__Z123RuntimeInvoker_RuntimeObject_Ray_t3785851493_RuntimeObject_Single_t1397266774_Int32_t2950945753_RuntimeObject_RuntimeObjectPFvvEPK10MethodInfoPvPS4_
EGd:_Int64_GetHashCode_m703091690
FEf:_CultureInfo_set_DateTimeFormat_m1843682751
Zni:_X509CrlEntry_get_RevocationDate_m606796547
Wui:_Event_get_commandName_m4275147343
hx:__ZN27AnimationLayerMixerPlayable17LayerMixerProcessEP35AnimationPlayableEvaluationConstantP32AnimationPlayableEvaluationInputP33AnimationPlayableEvaluationOutputM17AnimationPlayableFvS1_S3_S5_EMS_FvS1_S3_S5_ESA_MS_FvS5_S1_S3_S5_ifE
dzf:_Decimal_op_Implicit_m4256234411
RH:__ZN12AudioManager23VirtualRedirectTransferER18StreamedBinaryReadILb0EE
KDg:__Z60RuntimeInvoker_RuntimeObject_RuntimeObject_Int16_t2552820387PFvvEPK10MethodInfoPvPS4_
eMd:_StreamReader__ctor_m3941437302
fkc:__Z57Register_UnityEngine_Transform_INTERNAL_get_localRotationv
caf:_IPv6Address_get_Address_m1389170741
wfb:__ZN30RuntimeInitializeOnLoadManager23VirtualRedirectTransferER17RemapPPtrTransfer
cBj:dynCall_viif
jTd:_AssemblyName_get_Flags_m1616840602
ls:__ZN7mecanim4hand8HandPoseC2Ev
uIh:__ZL86Material_t340375123_CustomAttributesCacheGenerator_Material_DisableKeyword_m1245091008P21CustomAttributesCache
XMd:_StringReader_ReadLine_m2337102945
Hsb:__ZL26Transfer_SimpleNativeClassI17RemapPPtrTransfer8GradientLb0EEvRK29SerializationCommandArgumentsR31RuntimeSerializationCommandInfo
Txd:_SyncHashtable_Add_m3016107307
Uy:__ZN17AnimationPlayable26DisconnectNoTopologyChangeEPS_i
aqd:_Boolean_Equals_m2410333903_AdjustorThunk
g7g:_List_1_System_Collections_IList_Contains_m2131605266_gshared
qvh:__ZL61ISurrogateSelector_t3040401154_CustomAttributesCacheGeneratorP21CustomAttributesCache
O8g:_List_1_ToArray_m1990123684_gshared
$T:__ZN13UploadHandlerD2Ev
Azj:dynCall_viiiiiffi
XFi:_Hacker__ctor_m518604791
zc:_emscripten_glBlendFuncSeparate
Dfh:_Collection_1_Add_m809543251_gshared
D_:__Z20scripting_string_newPKc
Eic:__Z43Material_CUSTOM_Internal_CreateWithMaterialP12Il2CppObjectS0_
dti:_Parser_IsSingleline_m326238187
Xvd:_CollectionBase_get_Count_m1708965601
Ygd:_HMAC__ctor_m97939284
o7h:_ReadOnlyCollection_1_System_Collections_IList_get_Item_m1005238747_gshared
gBh:__ZL49DBNull_t3725197148_CustomAttributesCacheGeneratorP21CustomAttributesCache
dhg:_ValueType_DefaultEquals_m2927252100
Xpc:__ZN9JSONWrite12AppendToNodeEPN5Unity9rapidjson12GenericValueINS1_4UTF8IcEE13JSONAllocatorEEPKcRS6_
Q3e:_ASN1_ToString_m1340204511
Mdf:_X509Store_get_Certificates_m2149701265
KTf:_DefaultComparer_GetHashCode_m2865442331_gshared
GTh:__ZL144StandaloneInputModule_t2760469101_CustomAttributesCacheGenerator_StandaloneInputModule_t2760469101____allowActivationOnMobileDevice_PropertyInfoP21CustomAttributesCache
V6f:_StringBuilder_set_Chars_m3548656617
XVi:__ZN6il2cpp2os4File17GetFileAttributesERKNSt3__212basic_stringIcNS2_11char_traitsIcEENS2_9allocatorIcEEEEPi
dXg:__Z59RuntimeInvoker_Int32_t2950945753_X509ChainStatus_t133602714PFvvEPK10MethodInfoPvPS4_
_B:__ZNSt3__26__sortIRPFbPKN8Animator11AnimatorJobES4_EPS4_EEvT0_S9_T_
WG:__ZN17AudioCustomFilterD2Ev
Anc:__ZN11IMGUIModule26SetDeveloperConsoleVisibleEb
KXg:__Z56RuntimeInvoker_Void_t1185182177_MonoResource_t4103430009PFvvEPK10MethodInfoPvPS4_
rkb:__ZN9Transform16ResetReplacementEv
Imj:_GC_unpromote_black_lists
bph:__ZL64DebuggerBrowsableState_t747501856_CustomAttributesCacheGeneratorP21CustomAttributesCache
ADa:__ZN18GfxFramebufferGLES18ReleaseFramebufferEP17RenderSurfaceBaseP14GfxContextGLES
itc:__Z18Transfer_BlittableI8JSONReadLb1EiEvRK29SerializationCommandArgumentsR31RuntimeSerializationCommandInfo
oNd:_TextReader_Dispose_m4253712522
oV:__ZN19CloudServiceHandler34HandleSaveFileWebRequestPlayerLoopEv
MCh:__ZL82BigInteger_t2902905090_CustomAttributesCacheGenerator_BigInteger__ctor_m2474659844P21CustomAttributesCache
Gy:__ZN7mecanim21ValueArrayReverseCopyEPKNS_18ValueArrayConstantEPKNS_10ValueArrayES2_PS3_PKi
EG:__Z31GetParentSampleClipFromInstancePN11SoundHandle8InstanceE
yji:_InternalAsyncResult_get_BytesRead_m3975435112
L3b:__ZNK28RectTransformPropertyBinding13GetFloatValueERKN11UnityEngine9Animation10BoundCurveE
UXb:__ZN6Camera22StandaloneCustomRenderENS_10RenderFlagEP6ShaderRKN4core12basic_stringIcNS3_20StringStorageDefaultIcEEEEPNS_21PerformRenderFunctionE
eMf:_Array_InternalArray__IndexOf_TisKeyValuePair_2_t2401056908_m4118889689_gshared
$eb:__ZNSt3__26vectorI4PPtrI6ObjectE13stl_allocatorIS3_L18MemLabelIdentifier52ELi16EEE6assignINS_11__wrap_iterIPS3_EEEENS_9enable_ifIXaasr21__is_forward_iteratorIT_EE5valuesr16is_constructibleIS3_NS_15iterator_traitsISD_E9referenceEEE5valueEvE4typeESD_SD_
f4h:_Collection_1_System_Collections_ICollection_get_IsSynchronized_m500240145_gshared
bEh:__ZL68X509CertificateCollection_t3399372417_CustomAttributesCacheGeneratorP21CustomAttributesCache
Ftj:__ZN6il2cpp2os16ThreadLocalValue8GetValueEPPv
Pcf:_X509Certificate2_get_PublicKey_m370665820
Nxc:_cff_slot_init
mRi:__ZN6il2cpp2vm13MetadataCache14GetGenericInstEPKPK10Il2CppTypej
EP:__ZN13AudioListener17ReadExtensionNameEi
Lb:invoke_iiidii
fdh:_Collection_1_System_Collections_Generic_ICollectionU3CTU3E_get_IsReadOnly_m1419845799_gshared
jP:__ZN9AudioClip15InitializeClassEv
cp:setThrew
VKe:_SoapMethodAttribute_get_XmlNamespace_m4029617514
c5b:__ZL21BuildEmptyCubeTexturePKci11ColorRGBA3217TextureColorSpace
vFh:__ZL106AsyncOperation_t1445031843_CustomAttributesCacheGenerator_AsyncOperation_InvokeCompletionEvent_m1410305036P21CustomAttributesCache
hwg:_SelectionBaseAttribute__ctor_m2749097321
Xha:__ZN14SafeBinaryRead21TransferSTLStyleArrayINSt3__26vectorIN9ShaderLab20SerializedSubProgramENS1_9allocatorIS4_EEEEEEvRT_17TransferMetaFlags
DMf:_Array_InternalArray__IndexOf_TisX509ChainStatus_t133602714_m48896230_gshared
VNa:__ZN19dynamic_block_arrayI13FileEntryInfoLj32EE4growEj
rtc:__Z15Transfer_StringI8JSONReadLb1EEvRK29SerializationCommandArgumentsR31RuntimeSerializationCommandInfo
Aci:_Comparison_1_BeginInvoke_m816899747_gshared
jAa:__ZN6prcoreL17RemapGenericFloatI17TexFormatRGBFloat15TexFormatRGHalfEEvPKNS_9InnerInfoE
Wth:__ZL63IContributeEnvoySink_t2817847987_CustomAttributesCacheGeneratorP21CustomAttributesCache
UCc:_sfnt_load_face
oKc:_UNITY_FT_Render_Glyph_Internal
N9i:__ZNSt3__212basic_stringIDsNS_11char_traitsIDsEENS_9allocatorIDsEEE21__grow_by_and_replaceEjjjjjjPKDs
UAc:_UNITY_ft_service_list_lookup
Asb:__Z18Transfer_BlittableI17RemapPPtrTransferLb1E11ColorRGBA32EvRK29SerializationCommandArgumentsR31RuntimeSerializationCommandInfo
Zmc:__ZN5IMGUI21SelectReceivingWindowER8GUIStateb
mhd:_HMAC_Initialize_m3157696427
YXa:__ZN4PPtrI5LightE8TransferI14SafeBinaryReadEEvRT_
Uvj:___strchrnul
j5g:_List_1_System_Collections_ICollection_CopyTo_m3643417403_gshared
QV:__ZN13BaseAllocator13TryDeallocateEPv
Fxb:__Z29Transfer_Blittable_ArrayFieldI19StreamedBinaryWriteILb0EEfEvRT_R9ArrayInfoRK23StaticTransferFieldInfo
iji:_ListPool_1_Release_m1363449253_gshared
Ibf:_X509SubjectKeyIdentifierExtension__ctor_m2055934916
J0f:_Enumerator_Dispose_m2531396701_AdjustorThunk
qmb:__ZN16MemoryFileSystem5WriteER13FileEntryDatayPvPy
VTa:__ZNSt3__26vectorIN12FlareManager10FlareEntryENS_9allocatorIS2_EEE21__push_back_slow_pathIKS2_EEvRT_
Ouj:_sprintf
XLh:__ZL67NativeContainerAttribute_t2600515814_CustomAttributesCacheGeneratorP21CustomAttributesCache
Fdc:__ZN9Scripting25CreateNullExceptionObjectE18ScriptingObjectPtr
T5e:_PrivateKeyInfo_DecodeRSA_m2889346634
yH:__ZN13AudioListener17RemoveFromManagerEv
td:_glAttachShader
l6c:_ContentSizeFitter_SetLayoutHorizontal_m2833273874
hY:__ZNK6Camera19GetProjectionMatrixEv
SVh:__ZL70InputField_t3762917431_CustomAttributesCacheGenerator_m_SelectionColorP21CustomAttributesCache
BPe:_InputField_SetToCustomIfContentTypeIsNot_m2813459946
BAg:__Z49RuntimeInvoker_DateTime_t3738529785_RuntimeObjectPFvvEPK10MethodInfoPvPS4_
wKh:__ZL70RuntimePlatform_t4159857903_CustomAttributesCacheGenerator_FlashPlayerP21CustomAttributesCache
xGf:_Guid_GetHashCode_m3042133858_AdjustorThunk
c_:__Z38PreallocateObjectFromPersistentManagerib
Mui:_Event_t2956885303_marshal_pinvoke_cleanup
Onf:_SecurityException_get_FirstPermissionThatFailed_m3934559164
Hgf:_Interpreter_Backtrack_m2828876822
M2a:__ZNK9Texture2D20GetUnscaledTextureIDEv
Vqh:__ZL103TypeBuilder_t1073948154_CustomAttributesCacheGenerator_TypeBuilder_DefineDefaultConstructor_m2168449784P21CustomAttributesCache
yed:_SByte_System_IConvertible_ToType_m4075253447
NGj:_glFenceSync__wrapper
NKi:__ZNK15dense_hashtableINSt3__24pairIK10KeyWrapperIPK22Il2CppGenericParameterEP11Il2CppClassEES6_N6il2cpp5utils11PointerHashIS4_EEN14dense_hash_mapIS6_S9_SE_NS6_14EqualsComparerINS0_8equal_toIS5_EEEENS0_9allocatorISA_EEE9SelectKeyESJ_SL_E8min_sizeEjj
nyg:_Transform_INTERNAL_get_worldToLocalMatrix_m2730237241
RQe:_InputField_IsValidChar_m1928072643
XXg:__Z51RuntimeInvoker_Void_t1185182177_HitInfo_t3229609740PFvvEPK10MethodInfoPvPS4_
R2a:__ZNK9Texture2D26CanReuploadDataToGfxDeviceEv
DCb:__ZN18StreamedBinaryReadILb0EE21TransferSTLStyleArrayI13dynamic_arrayI4AABBLj4EEEEvRT_17TransferMetaFlags
mxh:__ZL63CodeAccessPermission_t2681295399_CustomAttributesCacheGeneratorP21CustomAttributesCache
Xgb:__Z29ClearRepeatingLogMessageStatev
zoe:_InternalEnumerator_1_get_Current_m3191242573_gshared
crd:_Byte_Equals_m1161982810_AdjustorThunk
oXg:__Z53RuntimeInvoker_Int32_t2950945753_UICharInfo_t75501106PFvvEPK10MethodInfoPvPS4_
W3b:__ZN15QualitySettings12CleanupClassEv
Gfe:_SslCipherSuite_ComputeMasterSecret_m3963626850
p8g:_List_1_GrowIfNeeded_m278824317_gshared
EJa:__ZN7ApiGLESD2Ev
aRa:__ZN9Transform47ClearTransformHierarchyAndApplyToSerializedDataEv
Guc:__ZN8JSONRead21TransferSTLStyleArrayINSt3__26vectorI8MonoPPtr13stl_allocatorIS3_L18MemLabelIdentifier1ELi16EEEEEEvRT_17TransferMetaFlags
xHd:_IntPtr_op_Explicit_m536245531
kSa:__ZN6Camera23VirtualRedirectTransferER19StreamedBinaryWriteILb0EE
tBj:dynCall_fidi
bZi:__ZN15dense_hashtableINSt3__24pairIK10KeyWrapperINS1_IPK9FieldInfoP11Il2CppClassEEEjEES9_17ReflectionMapHashIS8_EN14dense_hash_mapIS9_jSD_NS9_14EqualsComparerINS0_8equal_toIS8_EEEENS0_9allocatorISB_EEE9SelectKeyESI_SK_E12resize_deltaEjj
l1g:_List_1_TrimExcess_m3433550210_gshared
blh:__ZL63IntPtr_t_CustomAttributesCacheGenerator_IntPtr__ctor_m987082960P21CustomAttributesCache
hOi:__ZNK15dense_hashtableINSt3__24pairIK10KeyWrapperIPK19Il2CppGenericMethodEPK26Il2CppGenericMethodIndicesEES6_N6il2cpp8metadata23Il2CppGenericMethodHashEN14dense_hash_mapIS6_SA_SE_NS6_14EqualsComparerINSD_26Il2CppGenericMethodCompareEEENS0_9allocatorISB_EEE9SelectKeyESI_SK_E8min_sizeEjj
Tth:__ZL58IContextProperty_t840037424_CustomAttributesCacheGeneratorP21CustomAttributesCache
Ovi:_GUILayoutEntry__ctor_m2229197035
uU:__ZN11UnityEngine15CloudWebService14RestDownloaderD2Ev
iWd:_EnumBuilder_get_Assembly_m1175292766
R_b:__Z29StdTemplateConversionFunctionIjhEbPvR14SafeBinaryRead
m4:__ZN15dense_hashtableINSt3__24pairIKN9ShaderLab7Program23ShaderKeywordSetAndHashEPKNS2_10SubProgramEEES4_NS3_24ShaderKeywordHashFunctorEN14dense_hash_mapIS4_S8_SA_NS0_8equal_toIS4_EE13stl_allocatorIS9_L18MemLabelIdentifier67ELi16EEE9SelectKeyESD_SG_E15insert_noresizeERKS9_
D0h:_Array_swap_TisCustomAttributeNamedArgument_t287865710_TisCustomAttributeNamedArgument_t287865710_m881919420_gshared
Ddc:__ZNK13MonoBehaviour13GetScriptTypeEv
hZa:__ZN13RenderTexture12SetDimensionE16TextureDimension
t4e:_DSAManaged_add_KeyGenerated_m2286864968
je:_SDL_FreeRW
jSh:__ZL109ExecuteEvents_t3484638744_CustomAttributesCacheGenerator_ExecuteEvents_U3Cs_HandlerListPoolU3Em__0_m391641698P21CustomAttributesCache
vYg:__Z79RuntimeInvoker_Void_t1185182177_Int32_t2950945753_ParameterModifier_t1461694466PFvvEPK10MethodInfoPvPS4_
kRc:__Z34CanvasRenderer_Get_Custom_PropCullP12Il2CppObject
kN:__ZN20SoundChannelInstance8getDelayE14FMOD_DELAYTYPEPjS1_
frj:__ZNSt3__26__treeINS_12__value_typeIPvxEENS_19__map_value_compareIS2_S3_NS_4lessIS2_EELb1EEENS_9allocatorIS3_EEE12__find_equalIS2_EERPNS_16__tree_node_baseIS2_EESF_RKT_
D4:__ZNSt3__26vectorIN20GpuProgramParameters15StructParameterENS_9allocatorIS2_EEEC2ERKS5_
bie:_ArrayReadOnlyList_1_Contains_m232667507_gshared
zJg:__Z77RuntimeInvoker_Boolean_t97287965_IntPtr_t_Int32_t2950945753_SByte_t1669577662PFvvEPK10MethodInfoPvPS4_
msg:_PlayableHandle_GetPlayableType_m432385838_AdjustorThunk
dJc:__ZNSt3__26vectorIN20TextRenderingPrivate8FontImpl13CharacterInfoE13stl_allocatorIS3_L18MemLabelIdentifier1ELi16EEE8__appendEj
v:tempBigInt
nQf:_Array_InternalArray__Insert_TisKeyframe_t4206410242_m1558638568_gshared
xzh:__ZL77Convert_t2465617642_CustomAttributesCacheGenerator_Convert_ToByte_m3567528984P21CustomAttributesCache
re:_emscripten_glVertexAttrib1fv
Eia:__ZNSt3__26vectorIN9ShaderLab20SerializedSubProgram12UAVParameterENS_9allocatorIS3_EEE7reserveEj
vyj:__ZSt11__terminatePFvvE
QJ:__ZN12AudioManager14systemCallbackEP11FMOD_SYSTEM24FMOD_SYSTEM_CALLBACKTYPEPvS3_
Idi:_Nullable_1_Equals_m4046255732_gshared
g9h:_ReadOnlyCollection_1_System_Collections_Generic_ICollectionU3CTU3E_Clear_m3451551308_gshared
Y3c:_BaseMeshEffect_OnEnable_m3291426649
$jg:_ClassLibraryInitializer_Init_m988673678
xF:__ZN10SampleClip23VirtualRedirectTransferER24GenerateTypeTreeTransfer
tYa:__ZN16ReflectionProbes16UpdateSampleDataEv
JMh:__ZL90PlayerEditorConnectionEvents_t3411787513_CustomAttributesCacheGenerator_disconnectionEventP21CustomAttributesCache
NEf:_CultureInfo_GetCultureInfo_m56098747
b8a:__ZN14Texture2DArray5ResetEv
XUb:__Z20AddActiveLocalLightsR11CullResultsR27LocalLightCullingParametersPPK15SharedLightDataPK8Vector4fRK9IndexListPfRSA_R12ActiveLightsSG_P5RectTIfEP13TargetEyeMask
Eoh:__ZL80Hashtable_t1853889766_CustomAttributesCacheGenerator_Hashtable__ctor_m1763145853P21CustomAttributesCache
lAd:_Convert_ToDecimal_m1284148187
thh:_Collection_1__ctor_m3489157029_gshared
pEj:_emscripten_glRenderbufferStorage__wrapper
nXi:__ZNK6il2cpp2vm14TypeNameParser10NextWillBeEcb
oyc:_cf2_getNormalizedVector
Oe:_JS_Sound_Play
wUc:__Z26GetUnityConnectSettingsPtrv
dai:_ReadOnlyCollection_1_System_Collections_IList_set_Item_m1538987737_gshared
jha:__ZN9ShaderLab16SerializedShader8TransferI14SafeBinaryReadEEvRT_
zLa:__ZN5Mutex7TryLockEv
lbd:_GridLayoutGroup_set_constraint_m3308895167
qOh:__ZL103AudioSource_t3935305588_CustomAttributesCacheGenerator_AudioSource_ReadExtensionPropertyValue_m72717540P21CustomAttributesCache
UIe:_ConstructionCallDictionary_SetMethodProperty_m3145285304
wFd:_Int32_System_IConvertible_ToUInt32_m3557270157
uMg:__Z243RuntimeInvoker_Void_t1185182177_Int16_t2552820387_RuntimeObject_Int32_t2950945753_Int32_t2950945753_Int32_t2950945753_SByte_t1669577662_SByte_t1669577662_SByte_t1669577662_SByte_t1669577662_Int16_t2552820387_SByte_t1669577662_SByte_t1669577662PFvvEPK10MethodInfoPvPS4_
Wie:_InternalEnumerator_1_System_Collections_IEnumerator_get_Current_m1503522504_gshared
sB:__ZN7mecanim8skeleton13SkeletonAlignEPKNS0_8SkeletonERKN4math7_float4ES7_i
W5b:__ZN19ShaderPropertySheet16SetVectorIndexedEN9ShaderLab16FastPropertyNameEifRK8Vector4fNS_8SetFlagsE
Gcg:_Type_get_IsAbstract_m1120089130
vzg:_Vector3_get_normalized_m2454957984_AdjustorThunk
jq:__ZN14SafeBinaryRead21TransferSTLStyleArrayIN4core12basic_stringIcNS1_20StringStorageDefaultIcEEEEEEvRT_17TransferMetaFlags
Cui:_UriFormatException__ctor_m1115096473
zme:_InternalEnumerator_1_Dispose_m2818366163_AdjustorThunk
cKf:_Array_InternalArray__IEnumerable_GetEnumerator_TisSlot_t384495010_m460993382_gshared
iIh:__ZL114MonoBehaviour_t3962482529_CustomAttributesCacheGenerator_MonoBehaviour_StopCoroutineViaEnumerator_Auto_m3883784228P21CustomAttributesCache
l5i:__ZN15dense_hashtableINSt3__24pairIK10KeyWrapperINS1_IP11Il2CppClassjEEES4_EES6_N6il2cpp8metadata14ArrayClassHashEN14dense_hash_mapIS6_S4_SB_NS6_14EqualsComparerINSA_17ArrayClassCompareEEENS0_9allocatorIS8_EEE9SelectKeyESF_SH_E9copy_fromERKSK_j
VEi:__ZL25UnresolvedVirtualCall_204P12Il2CppObjectPK10MethodInfo
t$b:__Z29StdTemplateConversionFunctionIayEbPvR14SafeBinaryRead
h9f:_WaitHandle__ctor_m1707080176
a0g:__Z55RuntimeInvoker_Boolean_t97287965_Nullable_1_t2603721331PFvvEPK10MethodInfoPvPS4_
xxi:_GUIUtility_IsExitGUIException_m3644066650
XU:__ZN11UnityEngine15CloudWebService14DataDispatcher4StopEv
_5c:_ColorBlock_GetHashCode_m4264192507
lDd:_Int16_System_IConvertible_ToUInt64_m134975563
Gia:__ZNSt3__26vectorIN9ShaderLab20SerializedSubProgram12UAVParameterENS_9allocatorIS3_EEE8__appendEj
hsh:__ZL68TargetInvocationException_t4266643902_CustomAttributesCacheGeneratorP21CustomAttributesCache
I0i:__ZNK15dense_hashtableINSt3__24pairIK10KeyWrapperINS1_IPK9EventInfoP11Il2CppClassEEEjEES9_17ReflectionMapHashIS8_EN14dense_hash_mapIS9_jSD_NS9_14EqualsComparerINS0_8equal_toIS8_EEEENS0_9allocatorISB_EEE9SelectKeyESI_SK_E12test_deletedERK24dense_hashtable_iteratorISB_S9_SD_SM_SI_SK_E
Rmc:__ZN5IMGUI9GUIWindow5OnGUIER8GUIState
ZAi:_AudioConfigurationChangeHandler_EndInvoke_m4175380841
yof:_Single_System_IConvertible_ToDecimal_m325860800_AdjustorThunk
_Of:_Array_InternalArray__ICollection_CopyTo_TisSingle_t1397266774_m455540885_gshared
RMa:__ZN17ScriptingGCHandle7AcquireE18ScriptingObjectPtr25ScriptingGCHandleWeakness
NLg:__Z74RuntimeInvoker_RuntimeObject_RuntimeObject_Int64_t3736567304_RuntimeObjectPFvvEPK10MethodInfoPvPS4_
ePc:__ZN2UI14CanvasRenderer14AttachToCanvasER8JobFencePNS_6CanvasENS0_15InstructionTypeE
uAe:_Enumerator__ctor_m1734342590_gshared
pAj:dynCall_iifiii
VNg:__Z85RuntimeInvoker_Int32_t2950945753_RuntimeObject_Int32U26_t1369213839_Int32_t2950945753PFvvEPK10MethodInfoPvPS4_
jya:__Z21HasAlphaTextureFormat13TextureFormat
VO:__ZN12AudioManager6UpdateEv
cya:__ZN14ImageReference9BlitImageERKS_NS_8BlitModeE
Vs:__ZN8Animator12AddToManagerEv
NOd:_MissingFieldException__ctor_m3742452630
Def:_X509Chain__ctor_m2674663382
h9h:_ReadOnlyCollection_1_System_Collections_Generic_IListU3CTU3E_Insert_m1121807192_gshared
OEb:__ZN23CachedSerializationDataD2Ev
UWb:__ZNK25CameraStackRenderingState31CalculateStereoCameraTargetTypeEv
VXa:__ZN14RenderSettings23VirtualRedirectTransferER14SafeBinaryRead
xre:_InternalEnumerator_1_get_Current_m114240259_gshared
Dhj:__ZN6il2cpp2os10ThreadImpl15CurrentThreadIdEv
xQf:_Array_InternalArray__Insert_TisVector2_t2156229523_m2148694950_gshared
wVa:__ZN17GlobalGameManager8TransferI17RemapPPtrTransferEEvRT_
Qkf:_SymmetricAlgorithm_get_Key_m3241860519
VRe:_U3CMouseDragOutsideRectU3Ec__Iterator1_Reset_m2233410497
lPe:_InputField_set_customCaretColor_m720445789
BXa:__ZN16LevelGameManager8TransferI18StreamedBinaryReadILb0EEEEvRT_
OGc:_UNITY_tt_face_load_fpgm
WQa:__Z17IsObjectAvailablei
dcb:__ZN12InputManagerD0Ev
Dah:_Queue_1_Peek_m1713833142_gshared
bwh:__ZL64DSASignatureFormatter_t2007981259_CustomAttributesCacheGeneratorP21CustomAttributesCache
r9f:_ExecutionContext_Capture_m681135907
PSf:_Dictionary_2_System_Collections_IDictionary_Add_m4011968134_gshared
gBb:__Z18Transfer_BlittableI18StreamedBinaryReadILb0EELb1EtEvRK29SerializationCommandArgumentsR31RuntimeSerializationCommandInfo
mke:_InternalEnumerator_1_System_Collections_IEnumerator_get_Current_m2889979481_AdjustorThunk
pxj:_posix_memalign
Atg:_Rect_get_position_m2115952571
v7h:_ReadOnlyCollection_1_get_Item_m4005849861_gshared
ZZe:_Slider_get_direction_m3871593184
N3e:_ASN1_GetBytes_m3305539297
I8g:_List_1_Remove_m2092116835_gshared
aAh:__ZL77Convert_t2465617642_CustomAttributesCacheGenerator_Convert_ToSByte_m717245755P21CustomAttributesCache
Mte:_DefaultComparer__ctor_m2039558311_gshared
g_:__ZNK15MonoScriptCache7ReleaseEv
JLi:__ZN6il2cpp2vm5Class13HasReferencesEP11Il2CppClass
Nsd:_CLSCompliantAttribute__ctor_m581760440
bg:_glBindTexture
Fvj:_snprintf
CHd:_InvalidCastException__ctor_m2551002860
vSg:__Z50RuntimeInvoker_RuntimeObject_Resources_t1597885468PFvvEPK10MethodInfoPvPS4_
FFj:_emscripten_glVertexAttrib1fv__wrapper
fYg:__Z76RuntimeInvoker_Void_t1185182177_Int32_t2950945753_KeyValuePair_2_t2401056908PFvvEPK10MethodInfoPvPS4_
vib:__Z36scripting_liveness_calculation_begin17ScriptingClassPtriPFvPP12Il2CppObjectiPvES3_PFvvES7_
KAi:_AudioExtensionManager_RemoveExtensionFromManager_m442924172
dEj:_emscripten_glGetProgramInfoLog__wrapper
UD:__ZN25AnimatedPropertyEvaluator29BindCurveToScriptingObjectPtrERKN13AnimationClip10FloatCurveEj18ScriptingObjectPtrb
lxh:__ZL80AllowPartiallyTrustedCallersAttribute_t1828959166_CustomAttributesCacheGeneratorP21CustomAttributesCache
HTh:__ZL52InputMode_t3382566315_CustomAttributesCacheGeneratorP21CustomAttributesCache
d0:__ZN17PersistentManager23DestroyFromFileInternalEi
Mlg:_Display__ctor_m501911701
R5h:_ReadOnlyCollection_1_System_Collections_Generic_IListU3CTU3E_Insert_m1020890112_gshared
X7c:_Dropdown_get_onValueChanged_m2462066659
j7c:_DefaultControls_SetDefaultTextValues_m1943359795
dQb:__Z19SetupMotionMatricesR6CameraR18RPDataMotionVector
oKi:__ZL7log2_64y
OC:__ZN26AnimatorControllerPlayable18PrepareForPlaybackERN7mecanim6memory9AllocatorE
kD:__ZN8Animator11AnimatorJob11AddPlayableEP17AnimationPlayablef
gbd:_GridLayoutGroup_get_cellSize_m2967185053
Zsf:_CurrentSystemTimeZone_GetUtcOffset_m340358963
Nli:_PKCS12_Decrypt_m1280162536
vke:_InternalEnumerator_1_get_Current_m3081223448_gshared
evi:_Event_get_isMouse_m1058251071
DWa:__ZN10VertexDataC2ERKS_17ShaderChannelMask10MemLabelId
Dvd:_CaseInsensitiveHashCodeProvider_AreEqual_m1790260777
vbh:_Collection_1_IndexOf_m3762683187_gshared
vBc:_otv_JSTF_validate
G4:__ZN22CreateGpuProgramOutputC2Ev
C6d:_BigInteger_op_LessThanOrEqual_m3925173639
Xmg:_PersistentCallGroup_Initialize_m4253175514
spd:_Boolean_System_IConvertible_ToChar_m4279513009_AdjustorThunk
Cwd:_Hashtable__ctor_m1763145853
dJe:_LogicalCallContext__ctor_m1263247987
AEd:_NumberFormatter_ScaleOrder_m3813786990
J2f:_List_1_GetEnumerator_m239622569_gshared
ASg:__Z43RuntimeInvoker_VerticalWrapMode_t2936607737PFvvEPK10MethodInfoPvPS4_
U5e:_PrivateKeyInfo_DecodeDSA_m771724585
u_i:__ZNK15dense_hashtableINSt3__24pairIK10KeyWrapperINS1_IPK10MethodInfoP11Il2CppClassEEEjEES9_17ReflectionMapHashIS8_EN14dense_hash_mapIS9_jSD_NS9_14EqualsComparerINS0_8equal_toIS8_EEEENS0_9allocatorISB_EEE9SelectKeyESI_SK_E23find_position_with_hashERSA_j
KRh:__ZL53EventHandle_t600343995_CustomAttributesCacheGeneratorP21CustomAttributesCache
Q6b:__ZN8GUILayer12CleanupClassEv
Jud:_SynchronizedArrayListWrapper_get_SyncRoot_m3862302789
z0g:_List_1_System_Collections_IEnumerable_GetEnumerator_m839737540_gshared
mfg:_UInt32_System_IConvertible_ToSByte_m1061556466
UFe:_WellKnownClientTypeEntry__ctor_m2471908952
ILi:__ZN6il2cpp2vm5Class4InitEP11Il2CppClass
ga:invoke_vidi
v$a:__ZN8Material17MainThreadCleanupEv
YDe:_RemotingServices_CreateClientProxyForContextBound_m783705199
BTg:__Z30RuntimeInvoker_Axis_t809944411PFvvEPK10MethodInfoPvPS4_
dbc:__ZNK15GUIEventManager15GetEventAtIndexEi
tji:_InternalAsyncResult_get_ProceedAfterHandshake_m2508379800
vPc:__ZN2UI14CanvasRenderer17SyncDirtyElementsER8JobFence
cBb:__Z18Transfer_BlittableI18StreamedBinaryReadILb0EELb0ExEvRK29SerializationCommandArgumentsR31RuntimeSerializationCommandInfo
Xrd:_Convert_ToUInt16_m2952781888
Fwe:_Enumerator_System_Collections_IEnumerator_get_Current_m3816090481_gshared
Hkj:__ZN6il2cpp5utils11StringUtils15StringDuplicateEPKc
zVf:_DefaultComparer_Equals_m2480133610_gshared
X3:__ZNK9ShaderLab21ShaderRasterStateDesc16ToGfxRasterStateEPK19ShaderPropertySheetS3_R14GfxRasterState
u0h:_Array_Sort_TisVector3_t3722313464_m1915176437_gshared
Mtj:__ZN6il2cpp2os9EventImplC2Ebb
o3f:_List_1_System_Collections_IList_get_IsFixedSize_m3566150119_gshared
$q:__ZN4PPtrI13MonoBehaviourE8TransferI19StreamedBinaryWriteILb0EEEEvRT_
g4g:_List_1_get_Item_m2113769949_gshared
aUa:__ZN12FlareManager12RemoveCameraER6Camera
cwg:_ScriptableObject_t2528358522_marshal_pinvoke
W4:__Z20IsMatrixBuiltinParamPKcPi
g1i:__ZN6il2cpp2gc19AppendOnlyGCHashMapINSt3__24pairIPK10MethodInfoP11Il2CppClassEEP11Il2CppArray17ReflectionMapHashIS9_ENS2_8equal_toIS9_EEEC2Ev
hmf:_String_memcpy4_m979367827
Wnf:_SecurityFrame_t1422462475_marshal_pinvoke
B_i:__ZN15dense_hashtableINSt3__24pairIK10KeyWrapperINS1_IPK10MethodInfoP11Il2CppClassEEEjEES9_17ReflectionMapHashIS8_EN14dense_hash_mapIS9_jSD_NS9_14EqualsComparerINS0_8equal_toIS8_EEEENS0_9allocatorISB_EEE9SelectKeyESI_SK_E16reset_thresholdsEv
v7f:_UnicodeEncoding_GetBytesInternal_m1902824297
D5b:__ZN8Renderer19PostInitializeClassEv
BLf:_Array_FindIndex_TisRuntimeObject_m2504082708_gshared
Eni:_X509Chain_FindCertificateRoot_m1937726457
ame:_InternalEnumerator_1__ctor_m217498388_AdjustorThunk
$pj:__ZN6il2cpp6icalls8mscorlib6System8Delegate23CreateDelegate_internalEP20Il2CppReflectionTypeP12Il2CppObjectP22Il2CppReflectionMethodb
Gxe:_Enumerator_System_Collections_IEnumerator_get_Current_m921113401_AdjustorThunk
ZVb:__ZNK13RendererScene22GetStaticBoundingBoxesEv
gEb:__ZN18DelayedCallManager18CancelCallDelayed2E4PPtrI6ObjectEPF15CallObjectStatePS1_PvES7_
Lpg:_Matrix4x4_GetHashCode_m4034747639
GKa:__ZN25ThreadsafeLinearAllocator10ReallocateEPvji
hob:__Z18Transfer_BlittableI14SafeBinaryReadLb1E11QuaternionfEvRK29SerializationCommandArgumentsR31RuntimeSerializationCommandInfo
Dga:__ZN18SpriteAtlasManagerD0Ev
xZf:_GenericEqualityComparer_1__ctor_m1058369027_gshared
dzi:_ToggleGroup_set_allowSwitchOff_m4192200290
FVg:__Z57RuntimeInvoker_Boolean_t97287965_KeyValuePair_2_t71524366PFvvEPK10MethodInfoPvPS4_
$9a:__ZN10Matrix4x4f8TransferI14SafeBinaryReadEEvRT_
H$i:__ZNK10KeyWrapperINSt3__24pairIPK12PropertyInfoP11Il2CppClassEEE14EqualsComparerINS0_8equal_toIS7_EEEclERKS8_SE_
yfd:_CryptographicUnexpectedOperationException__ctor_m2381988196
L1i:__ZN14dense_hash_mapI10KeyWrapperIPK22Il2CppGenericParameterEPK24MonoGenericParameterInfoN6il2cpp5utils11PointerHashIS2_EENS4_14EqualsComparerINSt3__28equal_toIS3_EEEENSD_9allocatorINSD_4pairIKS4_S7_EEEEE15set_deleted_keyERSJ_
IC:__ZN14AvatarPlayback8StopTimeEv
_me:_InternalEnumerator_1_System_Collections_IEnumerator_get_Current_m4213507601_gshared
gba:__Z6AppendRKN4core12basic_stringIcNS_20StringStorageDefaultIcEEEEPKc
R_g:__Z74RuntimeInvoker_DictionaryEntry_t3123975638_RuntimeObject_SByte_t1669577662PFvvEPK10MethodInfoPvPS4_
uib:__ZL14OnWorldStoppedv
lKf:_Array_InternalArray__IEnumerable_GetEnumerator_TisCustomAttributeNamedArgument_t287865710_m523021714_gshared
k4h:__ZN21InterfaceFuncInvoker1I19Vector4_t3319028937iE6InvokeEjP11Il2CppClassP12Il2CppObjecti
Txb:__Z18Transfer_BlittableI18StreamedBinaryReadILb1EELb0E8Vector3fEvRK29SerializationCommandArgumentsR31RuntimeSerializationCommandInfo
wxd:_HashKeys_get_SyncRoot_m3757723936
qxi:_GUIUtility_RemoveCapture_m1294193818
dua:__ZN7ApiGLES18ClearBufferSubDataEjN2gl12BufferTargetEll
jfc:__Z37Camera_Get_Custom_PropAllCamerasCountv
w8a:__ZN14Texture2DArray8TransferI18StreamedBinaryReadILb0EEEEvRT_
B7g:_List_1_CopyTo_m2746988508_gshared
eUb:__Z18ApplyOcclusionMaskR19ProbeOcclusionCacheRK17LightProbeContextRK10RenderNodeb
pIc:_Split_Cubic
cb:invoke_fiiii
sRe:_InputField_OnSubmit_m3583210804
lDh:__ZL64CipherSuiteCollection_t1129639304_CustomAttributesCacheGeneratorP21CustomAttributesCache
bQh:__ZL72GUISkin_t1244372282_CustomAttributesCacheGenerator_m_horizontalScrollbarP21CustomAttributesCache
Pti:_Uri_CheckHostName_m2213216182
CFj:_emscripten_glBindRenderbuffer__wrapper
Z1h:_Mesh_SetUvsImpl_TisVector2_t2156229523_m3009194955_gshared
chg:_ValueType_InternalEquals_m1384040357
w0h:_Array_Sort_TisVector4_t3319028937_TisVector4_t3319028937_m4254533673_gshared
lre:_InternalEnumerator_1_System_Collections_IEnumerator_Reset_m729791527_AdjustorThunk
Otd:_ArrayListWrapper_Contains_m2641184447
bIc:_ft_black_render
WIg:__Z177RuntimeInvoker_Int32_t2950945753_RuntimeObject_Int32_t2950945753_Int32_t2950945753_RuntimeObject_Int32_t2950945753_EncoderFallbackBufferU26_t2343550713_CharU5BU5DU26_t3299466565PFvvEPK10MethodInfoPvPS4_
zBj:dynCall_viiifi
NCa:__ZN18GfxFramebufferGLES20ActiveContextChangedEPP17RenderSurfaceBaseS2_
Ysd:_ArrayList_get_IsFixedSize_m24366329
ECa:__Z19PluginsRenderMarkeri
mte:_InternalEnumerator_1__ctor_m2307827786_AdjustorThunk
BE:__ZN10HumanTrait18InitializeBoneNameEv
Nia:__ZNSt3__26vectorIN9ShaderLab20SerializedSubProgram15StructParameterENS_9allocatorIS3_EEE6assignINS_11__wrap_iterIPS3_EEEENS_9enable_ifIXaasr21__is_forward_iteratorIT_EE5valuesr16is_constructibleIS3_NS_15iterator_traitsISC_E9referenceEEE5valueEvE4typeESC_SC_
a8a:__ZN14Texture2DArray21AwakeFromLoadThreadedEv
cCb:__Z29Transfer_Blittable_ArrayFieldI18StreamedBinaryReadILb0EEyEvRT_R9ArrayInfoRK23StaticTransferFieldInfo
txg:_Touch_get_position_m3109777936_AdjustorThunk
adj:__ZNSt3__214__split_bufferIN6il2cpp2vm5Image20EmbeddedResourceDataERNS_9allocatorIS4_EEEC2EjjS7_
A4c:_CanvasScaler_set_screenMatchMode_m2975492035
cH:__ZN12AudioManager17RemoveAudioSourceEP11AudioSource
Ndf:_X509Certificate2Collection_Add_m3151757943
Qmh:__ZL83RuntimeArray_CustomAttributesCacheGenerator_RuntimeArray____LongLength_PropertyInfoP21CustomAttributesCache
ive:_Comparer_1__cctor_m951016718_gshared
Hvd:_CaseInsensitiveHashCodeProvider_get_DefaultInvariant_m4264275163
zBh:__ZL67IndexOutOfRangeException_t1578797820_CustomAttributesCacheGeneratorP21CustomAttributesCache
mJg:__Z195RuntimeInvoker_Int32_t2950945753_RuntimeObject_Int32_t2950945753_Int32_t2950945753_Int32_t2950945753_RuntimeObject_DecoderFallbackBufferU26_t3866396827_ByteU5BU5DU26_t4057885439_SByte_t1669577662PFvvEPK10MethodInfoPvPS4_
LQ:__ZN5physx14PxLightCpuTask12addReferenceEv
lWa:__ZNK15InstancingProps35FillInstanceBufferDispatchConstantsIN10Instancing14RenderLoopArgsEEEvPPvjjRK19ShaderPropertySheetRKT_
oWg:__Z86RuntimeInvoker_Int32_t2950945753_Color32_t2600501292_Color32_t2600501292_RuntimeObjectPFvvEPK10MethodInfoPvPS4_
_4a:__ZN21EnlightenSceneMapping8TransferI19StreamedBinaryWriteILb0EEEEvRT_
Pej:__ZN6il2cpp2gc16GarbageCollector19InitializeFinalizerEv
Iy:__ZN7mecanim8skeleton18CreateSkeletonMaskEjPKNS0_19SkeletonMaskElementERNS_6memory9AllocatorE
Wai:_ReadOnlyCollection_1_System_Collections_Generic_ICollectionU3CTU3E_get_IsReadOnly_m2508509261_gshared
wmc:__ZN10GUIManager10DoGUIEventER10InputEventb
$tb:__Z35Transfer_Blittable_FixedBufferFieldI24GenerateTypeTreeTransferxEvRK29SerializationCommandArgumentsR31RuntimeSerializationCommandInfo
jCc:_otv_LangSys_validate
Dug:_RectOffset_get_right_m2294081512
MQf:_Array_InternalArray__set_Item_TisLink_t544317964_m1234244240_gshared
UGc:_UNITY_TT_Init_Glyph_Loading
ePb:__Z20CalculateSqrDistanceRK8Vector3fRK4AABB
b8c:_OptionData_get_text_m2997376818
ddd:_SerializationInfo_GetBoolean_m1756153320
BL:__Z32AudioMixerDuckingProcessCallbackP21UnityAudioEffectStatePfS1_jii
qXe:_U3CClickRepeatU3Ec__Iterator0_System_Collections_IEnumerator_get_Current_m543328413
oqg:_Mesh_get_uv2_m3615020997
I5h:_ReadOnlyCollection_1_Contains_m2979956790_gshared
H4b:__ZN26CustomRenderTextureManagerD2Ev
lhc:__Z32Input_Get_Custom_PropInputStringv
zWf:_EqualityComparer_1_System_Collections_IEqualityComparer_Equals_m4172006498_gshared
WH:__ZN12AudioManager8TransferI24GenerateTypeTreeTransferEEvRT_
P_h:_Array_qsort_TisOrderBlock_t1585977831_m3322202512_gshared
xpg:_Mathf_Round_m4098141538
hxa:__Z25GetBytesFromTextureFormat13TextureFormat
S8a:__ZN9Texture3D19UnloadFromGfxDeviceEb
q8i:__ZN6il2cpp6icalls8mscorlib6System9Threading6Thread20Thread_free_internalEP12Il2CppThreadi
Czj:dynCall_iiffi
isb:__Z18Transfer_BlittableI17RemapPPtrTransferLb0EsEvRK29SerializationCommandArgumentsR31RuntimeSerializationCommandInfo
mch:_Collection_1_get_Item_m4103760396_gshared
G8e:__KeysEnumerator_get_Current_m2996478063
ySd:_AmbiguousMatchException__ctor_m2012725345
ND:__ZN16MecanimAnimation25RegisterIAnimationBindingEPKN5Unity4TypeEiP17IAnimationBinding
V$:__Z32scripting_class_get_assemblyname17ScriptingClassPtr
qTc:__ZN11UnityEngine15PlatformWrapper15GetVRDeviceNameEv
uZh:__ZL109LayoutUtility_t2745813735_CustomAttributesCacheGenerator_LayoutUtility_U3CGetFlexibleWidthU3Em__3_m1091238571P21CustomAttributesCache
hSg:__Z99RuntimeInvoker_Boolean_t97287965_Int32_t2950945753_PointerEventDataU26_t867828220_SByte_t1669577662PFvvEPK10MethodInfoPvPS4_
Gle:_InternalEnumerator_1_get_Current_m2128158355_AdjustorThunk
IIa:__ZN9GfxDevice21RegisterNativeTextureE9TextureIDi16TextureDimension
T9c:_GraphicRegistry__ctor_m1851575309
TXg:__Z52RuntimeInvoker_Void_t1185182177_Keyframe_t4206410242PFvvEPK10MethodInfoPvPS4_
xCh:__ZL53TypeFilter_t2356120900_CustomAttributesCacheGeneratorP21CustomAttributesCache
prj:__ZN6il2cpp6icalls8mscorlib6System10Reflection4Emit11TypeBuilder20create_generic_classEP27Il2CppReflectionTypeBuilder
Djf:_SHA1Internal_FillBuff_m3615718415
oJf:_PlayableHandle_IsPlayableOfType_TisAnimationLayerMixerPlayable_t3631223897_m201603007_gshared
yyh:__ZL50Monitor_t2197244473_CustomAttributesCacheGeneratorP21CustomAttributesCache
yUi:__ZNSt3__26vectorIPK10MethodInfoNS_9allocatorIS3_EEE26__swap_out_circular_bufferERNS_14__split_bufferIS3_RS5_EE
P6d:_PrimalityTest_EndInvoke_m1035389364
oQ:__Z60Register_UnityEngine_AudioListener_GetNumExtensionPropertiesv
Wi:_emscripten_glUniformMatrix4fv
A5i:__ZN15dense_hashtableINSt3__24pairIK10KeyWrapperINS1_IP11Il2CppClassjEEES4_EES6_N6il2cpp8metadata14ArrayClassHashEN14dense_hash_mapIS6_S4_SB_NS6_14EqualsComparerINSA_17ArrayClassCompareEEENS0_9allocatorIS8_EEE9SelectKeyESF_SH_E13set_empty_keyERKS8_
ajb:__ZN12ScriptMapperD2Ev
AAe:_Enumerator_Dispose_m3040896940_AdjustorThunk
pJj:b100
rqg:_Mesh_get_colors32_m1253190811
qnj:_GC_stopped_mark
Uhg:_AnimationCurve_Finalize_m2397002729
w$e:_Text_OnEnable_m616205807
r0g:__Z50RuntimeInvoker_RuntimeObject_ColorTween_t809614380PFvvEPK10MethodInfoPvPS4_
Use:_InternalEnumerator_1__ctor_m945079686_AdjustorThunk
lOe:_SerializationCallbacks__cctor_m1674315180
QBg:__Z194RuntimeInvoker_Void_t1185182177_ByteU2AU26_t57153304_ByteU2AU26_t57153304_DoubleU2AU26_t3650786047_UInt16U2AU26_t531067350_UInt16U2AU26_t531067350_UInt16U2AU26_t531067350_UInt16U2AU26_t531067350PFvvEPK10MethodInfoPvPS4_
Rja:__Z32TransferEnumWithNameForceIntSizeI14SafeBinaryRead7FogModeEvRT_RT0_PKc17TransferMetaFlags
zjc:__Z52Register_UnityEngine_RenderTexture_Internal_GetWidthv
koj:_GC_check_leaked
Nla:__ZN9ShaderLab20SerializedSubProgram16TextureParameter8TransferI19StreamedBinaryWriteILb0EEEEvRT_
jKa:__ZNK7Hash12812PackToUInt32Ev
Pud:_SynchronizedArrayListWrapper_IndexOf_m3642674350
I1:__ZNSt3__227__insertion_sort_incompleteIRNS_6__lessI14ObjectLoadDataS2_EEPS2_EEbT0_S6_T_
dV:__ZN11UnityEngine15CloudWebService16SessionContainer8AddEventEPNS0_14CloudEventInfoE
xHa:__Z4TrimRKN4core12basic_stringIcNS_20StringStorageDefaultIcEEEES5_
x8h:_ReadOnlyCollection_1_CopyTo_m209634623_gshared
q1h:_Dictionary_2_Do_ICollectionCopyTo_TisKeyValuePair_2_t3842366416_m1399105608_gshared
WRh:__ZL77ExecuteEvents_t3484638744_CustomAttributesCacheGenerator_U3CU3Ef__mgU24cache2P21CustomAttributesCache
Zcf:_X509Certificate2_Import_m4026562329
LGj:_glGetStringi__wrapper
W6a:__ZN10VertexData8TransferI14SafeBinaryReadEEvRT_
kJ:__ZN4FMOD8ChannelI8setDelayE14FMOD_DELAYTYPEjj
epj:_GC_malloc_atomic
q5d:_ActivatedClientTypeEntry_ToString_m2494181680
w_f:_HashSet_1_GetEnumerator_m3346268098_gshared
Orj:__ZN6il2cpp5utils6Memory13AlignedMallocEjj
Hsg:_PropertyName_GetHashCode_m3570549176_AdjustorThunk
_Kh:__ZL55PropertyName_t3749835189_CustomAttributesCacheGeneratorP21CustomAttributesCache
yRe:_Selectable_get_animator_m2899312855
YY:__ZL20SortItemByInstanceIDRKN18AwakeFromLoadQueue4ItemES2_
bzg:_Vector2_op_Multiply_m2347887432
h9c:_FontData_get_maxSize_m195374730
Y8e:_TypeConverterAttribute__ctor_m1774069684
Ty:__ZNK34AnimationStateMachineMixerPlayable26GetInterruptedPosePlayableEv
WVc:__ZN20UnityConnectSettings8TransferI24GenerateTypeTreeTransferEEvRT_
VA:__ZN34BlobWriteTransferSTLStyleArrayImplI22OffsetPtrArrayTransferIbEEclERS1_17TransferMetaFlagsR9BlobWrite
gkd:_Byte_ToString_m4063101981
WPd:_MonoType_GetConstructors_m2574682189
Ejj:__ZNK15dense_hashtableINSt3__24pairIK10KeyWrapperIPK19Il2CppGenericMethodEP10MethodInfoEES6_N6il2cpp8metadata23Il2CppGenericMethodHashEN14dense_hash_mapIS6_S9_SD_NS6_14EqualsComparerINSC_26Il2CppGenericMethodCompareEEENS0_9allocatorISA_EEE9SelectKeyESH_SJ_E10test_emptyERK30dense_hashtable_const_iteratorISA_S6_SD_SL_SH_SJ_E
Pth:__ZL59SinkProviderData_t4151372974_CustomAttributesCacheGeneratorP21CustomAttributesCache
I9e:_ServicePointManager_FindServicePoint_m4119451290
Ute:__ZN21InterfaceFuncInvoker1Ii22OrderBlock_t1585977831E6InvokeEjP11Il2CppClassP12Il2CppObjectS0_
Mca:__ZL31InitializeRendererUpdateManagerPv
$Ud:_ParameterInfo__ctor_m2779026345
sPe:_InputField_set_onValueChange_m1251390545
r9c:_FontData_get_verticalOverflow_m4132840071
gQc:__ZN2UI13CanvasManager14GetRenderOrderEPKNS_6CanvasE
oRd:_NumberFormatter_get_IsZeroInteger_m2263284741
tP:__ZN13AudioListener12CleanupClassEv
fda:__Z13GetIEnlightenv
qwg:_HitInfo_t3229609740_marshal_pinvoke
_ji:_X509Certificate_PEM_m2020851166
m3e:_BigInteger_op_GreaterThanOrEqual_m700865613
KPf:_Array_InternalArray__Insert_TisDateTime_t3738529785_m2308632330_gshared
Aif:_RNGCryptoServiceProvider_RngGetBytes_m1695806698
cee:_TlsServerCertificateRequest_ProcessAsTls1_m3214041063
FCc:_compare_uni_maps
xQg:__Z72RuntimeInvoker_Boolean_t97287965_Vector2_t2156229523_Vector2_t2156229523PFvvEPK10MethodInfoPvPS4_
dUc:__ZN11UnityEngine15PlatformWrapper27GetGraphicsCapsSupportFlagsEv
ANc:__ZNSt3__218__insertion_sort_3IRPFbPN2UI6CanvasES3_EPS3_EEvT0_S8_T_
Cxb:__ZN12NativeBufferI16Converter_StringE15SetupForWritingER9ArrayInfo
Wfa:__ZN13RuntimeStaticI18AssetBundleManagerLb1EE16StaticInitializeEPv
gDj:___cxa_end_catch__wrapper
WNg:__Z121RuntimeInvoker_Int32_t2950945753_RuntimeObject_Int32U26_t1369213839_Int32_t2950945753_Int32_t2950945753_Int32_t2950945753PFvvEPK10MethodInfoPvPS4_
Dsd:_Char_ToString_m278452217
Z9d:_CipherSuite_get_DecryptionCipher_m2839827488
cBg:__Z32RuntimeInvoker_Boolean_t97287965PFvvEPK10MethodInfoPvPS4_
RQb:__ZNK4PPtrI5LightEcvPS0_Ev
x6d:_BigInteger_op_RightShift_m460065452
REb:__ZN13MonoBehaviour22DoScriptRebuildWarningEv
lfc:__Z38Camera_CUSTOM_INTERNAL_CALL_RaycastTryP12Il2CppObjectRK3Rayfi
Sii:_ListPool_1_U3Cs_ListPoolU3Em__0_m2790550420_gshared
CMc:__Z38TextGenerator_Get_Custom_PropLineCountP12Il2CppObject
Gji:_InternalAsyncResult_SetComplete_m963842420
Q5f:_Encoding_GetEncoding_m2801244948
ync:__ZN11IMGUIModule25GetGUIStyleScriptingClassEv
hFc:_tt_get_interface
Uge:_SslStreamBase_EndRead_m495357226
b8i:__ZN6il2cpp5utils9PathUtils7CombineIcEENSt3__212basic_stringIT_NS3_11char_traitsIS5_EENS3_9allocatorIS5_EEEERKSA_SC_
gtc:__ZN9JSONWrite8TransferI13dynamic_arrayIiLj4EEEEvRT_PKc17TransferMetaFlags
jgh:_Collection_1_System_Collections_IList_get_IsFixedSize_m214626114_gshared
FLg:__Z64RuntimeInvoker_RuntimeObject_SByte_t1669577662_SByte_t1669577662PFvvEPK10MethodInfoPvPS4_
_G:__ZL16FMOD_ErrorString11FMOD_RESULT_363
Q8b:__ZN13PlayableGraph21InvalidateMultithreadEv
k0f:_Enumerator_System_Collections_IEnumerator_get_Current_m713684915_AdjustorThunk
XYf:_GenericComparer_1_Compare_m459680062_gshared
EWd:_EnumBuilder_GetConstructorImpl_m3068576149
G_:__Z18ConvertUTF16toUTF8PPKtS0_PPhS2_15ConversionFlags
Zij:__ZN6il2cpp2os20PathErrnoToErrorCodeERKNSt3__212basic_stringIcNS1_11char_traitsIcEENS1_9allocatorIcEEEEi
IVh:__ZL68InputField_t3762917431_CustomAttributesCacheGenerator_m_KeyboardTypeP21CustomAttributesCache
Hkf:_SymmetricAlgorithm_System_IDisposable_Dispose_m3402297829
bKi:__ZL16my_g_bit_nth_msfj
RBh:__ZL65NonSerializedAttribute_t2945079482_CustomAttributesCacheGeneratorP21CustomAttributesCache
P5i:__ZN15dense_hashtableINSt3__24pairIK10KeyWrapperIP11Il2CppClassES4_EES5_N6il2cpp8metadata16SZArrayClassHashEN14dense_hash_mapIS5_S4_SA_NS5_14EqualsComparerINS9_19SZArrayClassCompareEEENS0_9allocatorIS7_EEE9SelectKeyESE_SG_E12expand_arrayEjN21dense_hash_map_traits17integral_constantIbLb0EEE
EUf:_DefaultComparer_GetHashCode_m3369508712_gshared
_9g:_Enumerator_MoveNext_m3662315381_AdjustorThunk
Mde:_TlsClientFinished_ProcessAsTls1_m2429863130
n5d:_ActivatedClientTypeEntry_get_ApplicationUrl_m2894992111
qNb:__Z23SetupStereoFlareElementP11FlareVertexRK8Vector2fS3_S3_RK11ColorRGBA32RK10Matrix4x4fRK8Vector3fb
WLi:__ZN6il2cpp2vm5Class15GetInstanceSizeEPK11Il2CppClass
bhg:_ValueType__ctor_m2036258423
sa:invoke_iiiifiiii
yPe:_InputField_EnforceContentType_m2436948794
wgh:__ZN23InterfaceActionInvoker2Ii20UICharInfo_t75501106E6InvokeEjP11Il2CppClassP12Il2CppObjectiS0_
LHh:__ZL82Input_t1431474628_CustomAttributesCacheGenerator_Input_get_inputString_m1307069105P21CustomAttributesCache
grf:_String_Join_m2050845953
Cye:_ShimEnumerator_MoveNext_m2406150314_gshared
GDa:__ZL19BlitFramebufferImplRN4gles23BlitFramebufferDrawQuadER9GfxDevice9TextureIDRK8Vector4f
Mrb:__Z18Transfer_BlittableI17RemapPPtrTransferLb0EhEvRK29SerializationCommandArgumentsR31RuntimeSerializationCommandInfo
EZi:__ZN15dense_hashtableINSt3__24pairIK10KeyWrapperIPK10Il2CppTypeEjEES6_N6il2cpp8metadata14Il2CppTypeHashEN14dense_hash_mapIS6_jSB_NS6_14EqualsComparerINSA_26Il2CppTypeEqualityComparerEEENS0_9allocatorIS8_EEE9SelectKeyESF_SH_E4findERS7_
mAj:dynCall_viiiiiiiiiiiiii
yGc:_UNITY_FT_List_Add
f5b:__ZN14Texture2DArray11InitTextureEiii13TextureFormatb
Zki:_X509Extension__ctor_m1474351312
Sxh:__ZL104Encoding_t1523322056_CustomAttributesCacheGenerator_Encoding_t1523322056____DecoderFallback_PropertyInfoP21CustomAttributesCache
Lfi:_InvokableCall_1_Invoke_m1524307439_gshared
z1a:__ZN12CubemapArray21AwakeFromLoadThreadedEv
lId:_Directory_CreateDirectoriesInternal_m3735342319
UTh:__ZL108U3CStartU3Ec__Iterator0_t1249263001_CustomAttributesCacheGenerator_U3CStartU3Ec__Iterator0__ctor_m1316384627P21CustomAttributesCache
Q2f:_List_1_RemoveAll_m517055598_gshared
ITe:_LayoutUtility_GetLayoutProperty_m3731360667
A2i:__ZN15dense_hashtableINSt3__24pairIK10KeyWrapperINS1_IPK11Il2CppImageP11Il2CppClassEEEjEES9_17ReflectionMapHashIS8_EN14dense_hash_mapIS9_jSD_NS9_14EqualsComparerINS0_8equal_toIS8_EEEENS0_9allocatorISB_EEE9SelectKeyESI_SK_E14squash_deletedEv
Fkf:_SHAConstants__cctor_m1699027474
C0d:_MonoEventInfo_t346866618_marshal_pinvoke_back
_X:__ZNK6Camera26GetStereoSingleCullEnabledEv
W2f:_List_1_TrimExcess_m4121641494_gshared
Rzh:__ZL78Convert_t2465617642_CustomAttributesCacheGenerator_Convert_ToInt16_m1733792763P21CustomAttributesCache
Ufb:__Z14resize_trimmedINSt3__26vectorIN4core12basic_stringIcNS2_20StringStorageDefaultIcEEEE13stl_allocatorIS6_L18MemLabelIdentifier13ELi16EEEEEvRT_j
Rob:__Z18Transfer_BlittableI14SafeBinaryReadLb0EaEvRK29SerializationCommandArgumentsR31RuntimeSerializationCommandInfo
Hsd:_CharEnumerator_System_Collections_IEnumerator_get_Current_m1328529384
sCj:_emscripten_glFrustum__wrapper
mJi:_AnimationLayerMixerPlayable__ctor_m860721801
lBg:__Z98RuntimeInvoker_Boolean_t97287965_RuntimeObject_Int32_t2950945753_RuntimeObject_Int64U26_t200113976PFvvEPK10MethodInfoPvPS4_
cHc:_UNITY_FT_List_Iterate
rVa:__ZN17GlobalGameManager8TransferI24GenerateTypeTreeTransferEEvRT_
asd:_Char_System_IConvertible_ToUInt64_m3536560782
QVf:_EqualityComparer_1__cctor_m3452395357_gshared
hIc:_Render_Single_Pass
XLb:__Z20SyncFenceCullResultsR11CullResults
jGa:__ZN15TextureTFMethod20IsBoneCountSupportedEi
iBf:_Double_ToString_m3828879243_AdjustorThunk
ktb:__Z22TransferField_NonArrayI17RemapPPtrTransfer27Converter_SimpleNativeClassI8GUIStyleEEvRK23StaticTransferFieldInfoR31RuntimeSerializationCommandInfoRT0_
uNd:_TextReader_Synchronized_m3004980758
U0b:__ZNK17AnimationCurveTplIfE20EvaluateWithoutCacheEfRf
qQg:__Z67RuntimeInvoker_Boolean_t97287965_Rect_t2360479859_SByte_t1669577662PFvvEPK10MethodInfoPvPS4_
lYa:__ZN19ShaderPropertySheet10SetTextureERK23FastTexturePropertyNameP7Texture
ZTd:_CustomAttributeData__ctor_m2966233049
a5c:_CanvasUpdateRegistry_PerformUpdate_m1793997159
ade:_Context_set_ClientWriteIV_m3405909624
Gac:__ZN4Mesh10SetNormalsEPK8Vector3fj
myi:_AesManaged_CreateDecryptor_m692040246
ykj:__ZNSt3__212basic_stringIDsNS_11char_traitsIDsEENS_9allocatorIDsEEE9__grow_byEjjjjjj
TGi:_TextGenerationSettings_t1351628751_marshal_pinvoke_back
ns:__ZN17AnimationCurveTplIfE8TransferI14SafeBinaryReadEEvRT_
mDe:_Dictionary_2_get_Count_m2449135560_gshared
SQf:_Array_InternalArray__set_Item_TisInt16_t2552820387_m2544074754_gshared
vmd:_ArithmeticException__ctor_m3551809662
MId:_MonoIO_ExistsDirectory_m2182482658
q9g:__ZN21InterfaceFuncInvoker0I19Vector4_t3319028937E6InvokeEjP11Il2CppClassP12Il2CppObject
uZg:__Z72RuntimeInvoker_CustomAttributeNamedArgument_t287865710_Int32_t2950945753PFvvEPK10MethodInfoPvPS4_
B_b:__Z29StdTemplateConversionFunctionIybEbPvR14SafeBinaryRead
v5a:__ZNSt3__26vectorIN15QualitySettings14QualitySettingENS_9allocatorIS2_EEE6assignIPS2_EENS_9enable_ifIXaasr21__is_forward_iteratorIT_EE5valuesr16is_constructibleIS2_NS_15iterator_traitsIS9_E9referenceEEE5valueEvE4typeES9_S9_
z2:__ZNK5Unity9Component10GetEnabledEv
YDi:__ZL25UnresolvedVirtualCall_153P12Il2CppObject40CustomAttributeTypedArgument_t2723150157S1_PK10MethodInfo
JXe:_ScrollRect_get_scrollSensitivity_m2832710591
f:HEAPU32
O2f:_List_1_CheckCollection_m1671972112_gshared
Z3i:_il2cpp_class_get_image
lbe:_CipherSuiteFactory_GetSsl3SupportedCiphers_m3757358569
H7f:_UnicodeEncoding_GetPreamble_m3002287178
l1:__Z16AsyncReadRequestP16AsyncReadCommand
iLi:__ZNK15dense_hashtableINSt3__24pairIK10KeyWrapperIPK22Il2CppGenericParameterEP11Il2CppClassEES6_N6il2cpp5utils11PointerHashIS4_EEN14dense_hash_mapIS6_S9_SE_NS6_14EqualsComparerINS0_8equal_toIS5_EEEENS0_9allocatorISA_EEE9SelectKeyESJ_SL_E12test_deletedEj
nAi:_AudioSource_get_spatialize_m3609701298
VPg:__Z52RuntimeInvoker_Color_t2555686324_Color32_t2600501292PFvvEPK10MethodInfoPvPS4_
kna:__ZN20GpuProgramParameters14AddVectorParamEPKcii15ShaderParamTypeiiiP16PropertyNamesSet
LXc:__ZNK12HeaderHelper3GetERKN4core12basic_stringIcNS0_20StringStorageDefaultIcEEEE
tcb:__ZN9InputAxis8TransferI14SafeBinaryReadEEvRT_
rZ:__ZNK21ExecutionOrderManager30GetCustomAwakeFromLoadQueueForEPKN5Unity4TypeE
eXc:__Z27RegisterModule_UnityConnectv
dLd:_MemoryStream_Expand_m3554752073
X0i:__ZN6il2cpp2vm10Reflection27GetCustomAttributesCacheForEP25Il2CppReflectionParameter
fwg:_ScriptableObject_CreateInstance_m2611081756
wMe:_ObjectRecord_get_IsInstanceReady_m2304516395
wre:_InternalEnumerator_1_System_Collections_IEnumerator_get_Current_m1635397542_gshared
KLd:_Path__cctor_m3273994011
Byj:__ZNSt11logic_errorD2Ev
Rtf:_DateTimeUtils_CountRepeat_m3396693018
Ihg:_WeakReference_get_Target_m168713953
EK:__ZN10ObjectPoolIN4FMOD12ChannelGroupENS0_13ChannelGroupIEE7SetSizeEi
iZh:__ZL103LayoutRebuilder_t541313304_CustomAttributesCacheGenerator_LayoutRebuilder_U3CRebuildU3Em__5_m1288787547P21CustomAttributesCache
Zxi:_SymmetricTransform_FinalDecrypt_m764004682
Jhj:__ZN6il2cpp2os10ThreadImpl33UnregisterCurrentThreadForCleanupEv
m8g:_List_1_System_Collections_IList_get_Item_m1315368445_gshared
RSh:__ZL114PointerEventData_t3807901092_CustomAttributesCacheGenerator_PointerEventData_get_pointerCurrentRaycast_m2627585223P21CustomAttributesCache
Jqi:_Parser_ParseGroupingConstruct_m263270497
h_c:_UIBehaviour_OnDisable_m1784507360
EMh:__ZL112PlayerConnection_t3081694049_CustomAttributesCacheGenerator_PlayerConnection_MessageCallbackInternal_m1914517467P21CustomAttributesCache
HW:__Z22ValidateTlsfAllocationPvjiS_
Yle:_InternalEnumerator_1_MoveNext_m3525157932_gshared
bkg:_Color__ctor_m2943235014_AdjustorThunk
G2i:__ZN14dense_hash_mapI10KeyWrapperINSt3__24pairIPK9EventInfoP11Il2CppClassEEEj17ReflectionMapHashIS8_ENS9_14EqualsComparerINS1_8equal_toIS8_EEEENS1_9allocatorINS2_IKS9_jEEEEE15set_deleted_keyERSH_
Zw:__ZN27AnimationLayerMixerPlayable22PrepareAnimationEventsEfR13dynamic_arrayI22AnimationClipEventInfoLj4EE
Bqb:__Z14resize_trimmedINSt3__26vectorI17AnimationCurveTplIfE13stl_allocatorIS3_L18MemLabelIdentifier1ELi16EEEEEvRT_j
SWb:__ZN25CameraStackRenderingState19SetupLastEyeCamerasERK11CameraStack
GPa:__Z12GUIDToStringRK9UnityGUID
yfe:_RSASslSignatureDeformatter_SetKey_m2204705853
BG:__ZN11SoundHandleC2ERKS_
it:__ZN17AnimationPlayableC2E18DirectorPlayerType
AOe:_InputField_set_shouldHideMobileInput_m1650743574
TQi:__ZNK6il2cpp5utils11collections13ArrayValueMapIPK10Il2CppType17Il2CppInteropData26InteropDataToTypeConverterNS_8metadata14Il2CppTypeLessENS8_26Il2CppTypeEqualityComparerEE10find_firstERKS5_
I9g:_List_1_Reverse_m1445355384_gshared
HJd:_FileStream_get_CanSeek_m331583577
V_b:__Z29StdTemplateConversionFunctionItxEbPvR14SafeBinaryRead
YLe:_WellKnownServiceTypeEntry_get_ObjectType_m3211195371
Uzi:_PCMReaderCallback_EndInvoke_m3916876196
M_d:_TypeBuilder_get_ContainsGenericParameters_m1769080325
Bgd:_DSAParameters_t1885824122_marshal_pinvoke_back
xz:__ZN8Animator22OnGraphTopologyChangedEP8Playablei
h3e:_Kernel_MultiplyByDword_m1266935086
iBd:_Convert_ToInt64_m3916071102
AYb:__ZN6Camera25StandaloneRenderToCubemapEP7TextureiPFvPK9SceneNodePK4AABBR9IndexListPvESA_j
cqf:_String_Trim_m3384720403
ZXa:__ZN14RenderSettings18TransferDeprecatedI14SafeBinaryReadEEvRT_
tJg:__Z93RuntimeInvoker_Single_t1397266774_SingleU26_t1922108698_Single_t1397266774_Single_t1397266774PFvvEPK10MethodInfoPvPS4_
Pui:_Event__ctor_m526447123
bCh:__ZL56RankException_t3812021567_CustomAttributesCacheGeneratorP21CustomAttributesCache
MVg:__Z72RuntimeInvoker_Boolean_t97287965_CustomAttributeNamedArgument_t287865710PFvvEPK10MethodInfoPvPS4_
CMg:__Z88RuntimeInvoker_RuntimeObject_RuntimeObject_RuntimeObject_RuntimeObject_Int32_t2950945753PFvvEPK10MethodInfoPvPS4_
Cdg:_Type_ToString_m3975981286
jZ:__ZN12TLSAllocatorI14StackAllocatorE8AllocateEji
k$:__ZN16ScriptingManager18GetMonoScriptCacheEi
Xqi:_ExpressionAssertion__ctor_m2554412824
tsi:_CapturingGroup_IsComplex_m4061114763
Yob:__Z18Transfer_BlittableI14SafeBinaryReadLb1EyEvRK29SerializationCommandArgumentsR31RuntimeSerializationCommandInfo
KGh:__ZL99GameObject_t1113636619_CustomAttributesCacheGenerator_GameObject_GetComponentInChildren_m2670866854P21CustomAttributesCache
$Qd:_NullReferenceException__ctor_m3076065613
cqc:__ZN8JSONRead8TransferIfEEvRT_PKc17TransferMetaFlagsb
zlh:__ZL73Enum_t4135868527_CustomAttributesCacheGenerator_Enum_ToObject_m3092348831P21CustomAttributesCache
pci:_Comparison_1_EndInvoke_m3981968715_gshared
lpd:__ZN21InterfaceFuncInvoker2IP12Il2CppObjectP6Type_tS1_E6InvokeEjP11Il2CppClassS1_S3_S1_
Lbf:_X509SubjectKeyIdentifierExtension_Decode_m1505409124
Vma:__ZL23AddGpuProgramParametersR20GpuProgramParametersRKNSt3__26vectorIN9ShaderLab20SerializedSubProgram15MatrixParameterENS1_9allocatorIS5_EEEERKNS2_INS4_15VectorParameterENS6_ISB_EEEEiiP16PropertyNamesSet
yAa:__ZN6prcoreL17RemapGenericFloatI18TexFormatARGBFloat17TexFormatRGBAHalfEEvPKNS_9InnerInfoE
Hpf:_String_System_IConvertible_ToUInt16_m2888090399
lM:__ZN11AudioSource21ApplyCachedParametersE12SoundChannel
QSd:_Assembly_InternalGetType_m3065345470
hR:__ZN13Simd4iFactoryIN6detail9FourTupleEEC2Eiiii
Lke:_InternalEnumerator_1__ctor_m3390957028_gshared
K3d:_ResourceSet__ctor_m3356376607
G6d:_PrimeGeneratorBase_get_PrimalityTest_m2487240563
v0c:_PhysicsRaycaster_get_maxRayIntersections_m3887348715
wth:__ZL56_ParameterInfo_t489405856_CustomAttributesCacheGeneratorP21CustomAttributesCache
A4a:__ZN15SerializeTraitsI33EnlightenTerrainChunksInformationE8TransferI14SafeBinaryReadEEvRS0_RT_
T5b:__ZNK32RendererMaterialAnimationBinding9BindValueER6ObjectRKN11UnityEngine9Animation14GenericBindingERNS3_10BoundCurveE
sWh:__ZL109MaskableGraphic_t3839221559_CustomAttributesCacheGenerator_MaskableGraphic_ParentMaskStateChanged_m1092090553P21CustomAttributesCache
Hze:_Transform_1_Invoke_m1731820209_gshared
UYa:__Z13GetIAnimationv
Hya:__ZL18stbir__support_onef
_of:_Single_CompareTo_m189772128
Prc:__Z26Transfer_UnityEngineObjectI9JSONWriteLb0EEvRK29SerializationCommandArgumentsR31RuntimeSerializationCommandInfo
Ite:_DefaultComparer_Compare_m4042058291_gshared
Pbd:_Image_set_overrideSprite_m3213596394
g0a:__ZNSt3__26vectorIN4core12basic_stringIcNS1_20StringStorageDefaultIcEEEE13stl_allocatorIS5_L18MemLabelIdentifier1ELi16EEE6assignINS_11__wrap_iterIPS5_EEEENS_9enable_ifIXaasr21__is_forward_iteratorIT_EE5valuesr16is_constructibleIS5_NS_15iterator_traitsISF_E9referenceEEE5valueEvE4typeESF_SF_
DOc:__ZNSt3__27__sort5IRNS_6__lessIN2UI14DepthSortEntryES3_EEPS3_EEjT0_S7_S7_S7_S7_T_
sJd:_FileLoadException_ToString_m2989457882
Yki:_AuthorityKeyIdentifierExtension__ctor_m2197389230
FAi:_AudioListener_ClearExtensionProperties_m3849891634
Xxc:_UNITY_FT_DivFix
A2h:_Array_InternalArray__get_Item_TisDecimal_t2948259380_m3511003792_gshared
q$i:__ZNSt3__218uninitialized_copyIPNS_4pairIK10KeyWrapperINS1_IPK11Il2CppImageP11Il2CppClassEEEjEESC_EET0_T_SE_SD_
tmf:_SecurityElement_IsValidAttributeValue_m948345692
Qwc:__ZN19ControllerHitReport15onControllerHitERKN5physx16PxControllersHitE
Ba:invoke_vdd
yn:FUNCTION_TABLE_fiii
Srh:__ZL102MethodInfo_t_CustomAttributesCacheGenerator_MethodInfo_MakeGenericMethod_m1996785325____typeArguments0P21CustomAttributesCache
FNd:_TextWriter_Write_m2252948084
f8b:__Z19RegisterModule_Corev
uIe:_AsyncResult_get_CallMessage_m1679778649
JKf:_Array_InternalArray__IEnumerable_GetEnumerator_TisPlayableBinding_t354260709_m1924544205_gshared
gMc:__ZZ29InitializeTextRenderingModulevEN27cleanupAfterLoadRegistrator7ForwardEv
ckb:__ZNSt3__26__sortIRPFbRK23TransformAccessReadOnlyS3_EPS1_EEvT0_S8_T_
$Cf:_CCFixed_FromDateTime_m3894190577
FWb:__Z29PluginsIssueRenderingExtEvent26UnityRenderingExtEventTypePv
sEg:__Z116RuntimeInvoker_RuntimeObject_RuntimeObject_Int32_t2950945753_RuntimeObject_RuntimeObject_RuntimeObject_RuntimeObjectPFvvEPK10MethodInfoPvPS4_
Qdd:_RuntimeMethodHandle__ctor_m2229201676_AdjustorThunk
_Me:_MessageFormatter_ReadMethodCall_m2327590823
U4b:__Z14RandomRotationP9Texture2DPhiiii
YNf:_Array_InternalArray__ICollection_Add_TisUInt16_t2177724958_m3981262878_gshared
Yxf:_Decimal_GetBits_m453754410
t_f:_HashSet_1_Contains_m3173358704_gshared
Eyi:_ToggleEvent__ctor_m834619998
Pse:_InternalEnumerator_1_Dispose_m436383441_AdjustorThunk
D8d:_PKCS1_Encode_v15_m2077073129
DSf:_Dictionary_2_get_Values_m2682483593_gshared
Jih:_Collection_1_set_Item_m4084225937_gshared
z$g:__Z51RuntimeInvoker_OrderBlock_t1585977831_RuntimeObjectPFvvEPK10MethodInfoPvPS4_
Bug:_RectOffset_get_left_m1232181034
IBa:__ZN4gles14UseGLSLProgramER15DeviceStateGLESjbij
DRg:__Z59RuntimeInvoker_Boolean_t97287965_Int32_t2950945753_IntPtr_tPFvvEPK10MethodInfoPvPS4_
vIj:_glDeleteProgram__wrapper
sfc:__Z50Register_UnityEngine_Camera_INTERNAL_get_pixelRectv
Qza:__ZN6prcoreL18BlitFloatToIntegerERK14ImageReferenceRS0_
Vwf:_DBNull_System_IConvertible_ToUInt32_m3784627971
dce:_ClientSessionCache_Add_m964342678
Vwi:_SkinChangedDelegate__ctor_m1270439727
TFa:__ZN13dynamic_arrayI15ComputeShaderCBLj4EE6assignEPKS0_S3_
vNb:__Z13GetIPhysics2Dv
yU:__ZN11UnityEngine15CloudWebService14RestDownloader17OnCompleteContentEv
vYi:__ZN15dense_hashtableINSt3__24pairIK10KeyWrapperINS1_IPK14Il2CppAssemblyP11Il2CppClassEEEjEES9_17ReflectionMapHashIS8_EN14dense_hash_mapIS9_jSD_NS9_14EqualsComparerINS0_8equal_toIS8_EEEENS0_9allocatorISB_EEE9SelectKeyESI_SK_E15insert_noresizeERKSB_
eyg:_Transform_get_localScale_m129152068
qyf:_DivideByZeroException__ctor_m3496959969
WCa:__ZN26SinglePassStereoSupportExt19AfterDrawCallStereoEv
_Ye:_ScrollRect_get_layoutPriority_m1584702890
Qa:invoke_viffi
dz:__ZN17AnimationPlayable28UpdateInternalStateRecursiveILi1ELb0EEEvPK35AnimationPlayableEvaluationConstant
bfj:__ZN6il2cpp2gcL10CleanupCCWEPvS1_
Ta:invoke_vifff
hHj:_glGetVertexAttribiv__wrapper
Ne:_emscripten_request_fullscreen
eei:_Predicate_1_Invoke_m851618236_gshared
Iph:__ZL67IsolatedStorageException_t3468072396_CustomAttributesCacheGeneratorP21CustomAttributesCache
LFb:__ZN20LocalFileSystemWebGL6DeleteER13FileEntryDatab
Pe:_emscripten_glDisableVertexAttribArray
MIf:_Array_InternalArray__ICollection_Remove_TisSingle_t1397266774_m3361324455_gshared
Um:FUNCTION_TABLE_iiiifiiii
Ega:__ZN4core8hash_mapINS_12basic_stringIcNS_20StringStorageDefaultIcEEEE13dynamic_arrayI4PPtrI6SpriteELj4EENS_4hashIS4_EENSt3__28equal_toIS4_EEE12delete_nodesEv
nle:_InternalEnumerator_1__ctor_m3456047704_gshared
jc:invoke_fifffi
xhh:_Collection_1_System_Collections_IList_Add_m2969482770_gshared
uJ:__ZN4FMOD5Sound15getNumSubSoundsEPi
cwa:__ZN4gles23ClearCurrentFramebufferEP7ApiGLESbbbRK10ColorRGBAffi
Nwe:_Enumerator_System_Collections_IDictionaryEnumerator_get_Entry_m3249874482_AdjustorThunk
jhi:_UnityEvent_1_Invoke_m3604335408_gshared
UAh:__ZL79Convert_t2465617642_CustomAttributesCacheGenerator_Convert_ToUInt64_m2652538228P21CustomAttributesCache
_e:_emscripten_glDeleteObjectARB
Y_c:_EventSystem_RaycastComparer_m3685368675
Vf:_IMG_Load
mIg:__Z131RuntimeInvoker_Void_t1185182177_RuntimeObject_RuntimeObject_Int64_t3736567304_ObjectU26_t2146539884_SerializationInfoU26_t419328957PFvvEPK10MethodInfoPvPS4_
eBa:__ZN6prcoreL27StretchGenericFloatBilinearI18TexFormatARGBFloatEEvPKNS_9InnerInfoE
Ajc:__Z53Register_UnityEngine_RenderTexture_Internal_GetHeightv
JUh:__ZL87U3CDelayedDestroyDropdownListU3Ec__Iterator0_t3853912249_CustomAttributesCacheGeneratorP21CustomAttributesCache
s7e:_PKCS12_RemoveCertificate_m1421555398
C_e:_Slider_FindSelectableOnLeft_m1667068522
RAa:__ZN6prcoreL17RemapGenericFloatI17TexFormatRGBAHalf18TexFormatARGBFloatEEvPKNS_9InnerInfoE
pAb:__ZN18StreamedBinaryReadILb1EE21TransferSTLStyleArrayI13dynamic_arrayIN4math12int3_storageELj4EEEEvRT_17TransferMetaFlags
onc:__Z14GetBuiltinSkini
MJe:_MethodDictionary_get_Item_m1201458851
DBg:__Z60RuntimeInvoker_SByte_t1669577662_RuntimeObject_RuntimeObjectPFvvEPK10MethodInfoPvPS4_
k4e:_CryptoConvert_ToInt32LE_m3340980429
F7:___cxx_global_var_init_18
il:_JS_SystemInfo_GetBrowserVersionString
Ejb:__ZN2UI13RectTransform23VirtualRedirectTransferER14SafeBinaryRead
_fb:__ZN24GenerateTypeTreeTransfer8TransferINSt3__26vectorIN4core12basic_stringIcNS3_20StringStorageDefaultIcEEEE13stl_allocatorIS7_L18MemLabelIdentifier13ELi16EEEEEEvRT_PKc17TransferMetaFlags
BAe:_Enumerator_MoveNext_m3045873697_gshared
rOg:__Z31RuntimeInvoker_Rect_t2360479859PFvvEPK10MethodInfoPvPS4_
cka:__ZNSt3__26vectorIN9ShaderLab20SerializedSubProgramENS_9allocatorIS2_EEE6assignIPS2_EENS_9enable_ifIXaasr21__is_forward_iteratorIT_EE5valuesr16is_constructibleIS2_NS_15iterator_traitsIS9_E9referenceEEE5valueEvE4typeES9_S9_
$tc:__Z18Transfer_BlittableI8JSONReadLb0E8BitFieldEvRK29SerializationCommandArgumentsR31RuntimeSerializationCommandInfo
Wlf:_SecurityPermission_set_Flags_m1503445204
n_f:_HashSet_1_CopyTo_m2849056227_gshared
Wyb:__ZL17Transfer_GUIStyleI18StreamedBinaryReadILb1EELb0EEvRK29SerializationCommandArgumentsR31RuntimeSerializationCommandInfo
R2e:_ModulusRing_Multiply_m343333088
Tha:__ZN9ShaderLab14SerializedPass8TransferI14SafeBinaryReadEEvRT_
goc:__Z71Register_UnityEngine_GUILayoutUtility_INTERNAL_CALL_Internal_MoveWindowv
ZO:__ZN12AudioManager16SetListenerPauseEb
Rfb:__ZNSt3__26vectorIN30RuntimeInitializeOnLoadManager9ClassInfoE13stl_allocatorIS2_L18MemLabelIdentifier13ELi16EEE6assignINS_11__wrap_iterIPS2_EEEENS_9enable_ifIXaasr21__is_forward_iteratorIT_EE5valuesr16is_constructibleIS2_NS_15iterator_traitsISC_E9referenceEEE5valueEvE4typeESC_SC_
yJf:_SetPropertyUtility_SetStruct_TisSingle_t1397266774_m2805350785_gshared
R6f:_StringBuilder_get_Length_m3238060835
y9i:__ZN6il2cpp2vm9Exception25RaiseOutOfMemoryExceptionERKNS_5utils10StringViewIDsEE
O_f:_KeyValuePair_2_set_Value_m2953914627_AdjustorThunk
da:invoke_viiiiiiiiiii
ruj:___syscall_ret
Qli:_DeriveBytes_set_Salt_m1400945044
f1c:_PointerEventData_set_worldNormal_m1888481930
u4c:_CanvasScaler_set_referencePixelsPerUnit_m1768965301
Fri:_AnchorInfo__ctor_m46784903
Lae:_CipherSuiteCollection_get_Item_m4188309062
tge:_SslHandshakeHash_HashFinal_m2573455475
IHe:_SynchronizationAttribute_ReleaseLock_m1030353464
E0h:_Array_swap_TisCustomAttributeNamedArgument_t287865710_m2628186452_gshared
y7a:__ZN11ChannelInfo8TransferI19StreamedBinaryWriteILb0EEEEvRT_
Bkj:__ZN4utf88internal13validate_nextIPKcEENS0_9utf_errorERT_S5_Rj
RXh:__ZL53ToggleGroup_t123837990_CustomAttributesCacheGeneratorP21CustomAttributesCache
Hjf:_SHA1Internal_AddLength_m2737455899
eOb:__ZN14qsort_internal13Partition3WayIP17RODataReplacementi19ROSorterReplacementEENSt3__24pairIT_S6_EES6_S6_T0_T1_
jRe:_InputField_CreateCursorVerts_m3585916868
dSf:_KeyValuePair_2_get_Value_m755756747_gshared
Agc:__Z34Register_UnityEngine_Gradient_Initv
VSe:_LayoutGroup_OnDidApplyAnimationProperties_m1333813659
s$i:__ZN24dense_hashtable_iteratorINSt3__24pairIK10KeyWrapperINS1_IPK11Il2CppImageP11Il2CppClassEEEjEES9_17ReflectionMapHashIS8_EN14dense_hash_mapIS9_jSD_NS9_14EqualsComparerINS0_8equal_toIS8_EEEENS0_9allocatorISB_EEE9SelectKeyESI_SK_E30advance_past_empty_and_deletedEv
QXd:_GenericTypeParameterBuilder_IsArrayImpl_m67259334
WGe:_Context_ToString_m1073616138
DUd:_DefaultMemberAttribute_get_MemberName_m3384235354
w6a:__ZN13ScreenManager23SetIsOrientationEnabledE18EnabledOrientationb
iCi:__ZL24UnresolvedVirtualCall_57P12Il2CppObjectiPK10MethodInfo
uOe:_InputField_EnforceTextHOverflow_m3400115777
t2g:_List_1_System_Collections_IEnumerable_GetEnumerator_m1225415523_gshared
APg:__Z41RuntimeInvoker_TextureWrapMode_t584250749PFvvEPK10MethodInfoPvPS4_
ycb:__ZN9InputAxis8TransferI19StreamedBinaryWriteILb0EEEEvRT_
KDd:__Z33il2cpp_codegen_check_sub_overflowxx
lAj:dynCall_viififiii
hPe:_InputField_get_caretColor_m2973283772
aji:_ListPool_1_Release_m591299672_gshared
rAh:__ZL79Convert_t2465617642_CustomAttributesCacheGenerator_Convert_ToUInt16_m3116648921P21CustomAttributesCache
rre:_InternalEnumerator_1_MoveNext_m1096095130_AdjustorThunk
Uhh:_Collection_1_RemoveAt_m226266097_gshared
zhi:_UnityEvent_1_AddListener_m1590149461_gshared
jQh:__ZL63GUISkin_t1244372282_CustomAttributesCacheGenerator_m_ScrollViewP21CustomAttributesCache
T3h:_Resources_ConvertObjects_TisRuntimeObject_m1486780300_gshared
AAf:_Double_System_IConvertible_ToInt16_m3591921965_AdjustorThunk
rci:_Comparison_1_Invoke_m2925518770_gshared
DQa:__ZN10GameObject23VirtualRedirectTransferER18StreamedBinaryReadILb0EE
Ixi:_SymmetricTransform__ctor_m2693628991
VRd:_ObjectDisposedException__ctor_m1034312941
qg:_glFrontFace
LKd:_FileSystemInfo_InternalRefresh_m1700260373
s8c:_Dropdown_OnSubmit_m1624226516
xug:_RectOffset__ctor_m3236153262
DQi:__ZNK15dense_hashtableINSt3__24pairIK10KeyWrapperIPK19Il2CppGenericMethodEPK26Il2CppGenericMethodIndicesEES6_N6il2cpp8metadata23Il2CppGenericMethodHashEN14dense_hash_mapIS6_SA_SE_NS6_14EqualsComparerINSD_26Il2CppGenericMethodCompareEEENS0_9allocatorISB_EEE9SelectKeyESI_SK_E12test_deletedEj
JUe:_MaskUtilities_IsDescendantOrSelf_m2247511982
tKg:__Z51RuntimeInvoker_UInt16_t2177724958_SByte_t1669577662PFvvEPK10MethodInfoPvPS4_
aTb:__ZNSt3__26vectorI16ShadowCasterData13stl_allocatorIS1_L18MemLabelIdentifier2ELi16EEE21__push_back_slow_pathIKS1_EEvRT_
DAg:__Z46RuntimeInvoker_Double_t594665363_RuntimeObjectPFvvEPK10MethodInfoPvPS4_
QMc:__Z51Register_UnityEngine_TextGenerator_GetLinesInternalv
Zze:_Enumerator_get_Current_m2250080680_AdjustorThunk
tyi:_AesManaged_set_Key_m767972181
MCd:_Int16_System_IConvertible_ToBoolean_m1656400658_AdjustorThunk
Jqd:_Byte_System_IConvertible_ToInt64_m285584218
vta:__ZN13GfxDeviceGLES22SetScissorRectPlatformERK5RectTIiE
gAa:__ZN6prcoreL17RemapGenericFloatI17TexFormatRGBFloat18TexFormatRGBAFloatEEvPKNS_9InnerInfoE
owd:_DictionaryEntry_t3123975638_marshal_pinvoke_cleanup
qNf:_Array_InternalArray__ICollection_Add_TisDictionaryEntry_t3123975638_m665385049_gshared
SOd:_MissingMemberException__ctor_m2707802176
YWc:__ZN20UnityConnectSettings10InitializeEv
JHi:_Canvas_get_renderMode_m841659411
G4a:__ZN15SerializeTraitsI13dynamic_arrayI28EnlightenRendererInformationLj8EEE19ResizeSTLStyleArrayERS2_i
Zcd:_SerializationInfo_GetValue_m42271953
sG:__ZN9AudioClip11CreateSoundEv
U2i:__ZN14dense_hash_mapI10KeyWrapperINSt3__24pairIPK9FieldInfoP11Il2CppClassEEEj17ReflectionMapHashIS8_ENS9_14EqualsComparerINS1_8equal_toIS8_EEEENS1_9allocatorINS2_IKS9_jEEEEEC2EjRKSB_RKSF_
q_i:__ZNK15dense_hashtableINSt3__24pairIK10KeyWrapperINS1_IPK10MethodInfoP11Il2CppClassEEEjEES9_17ReflectionMapHashIS8_EN14dense_hash_mapIS9_jSD_NS9_14EqualsComparerINS0_8equal_toIS8_EEEENS0_9allocatorISB_EEE9SelectKeyESI_SK_E13find_positionERSA_
Csa:__ZN13GfxDeviceGLES20CreateComputeProgramEPKhj
rWc:__ZN11UnityEngine7Connect16PersistentValues13RestoreValuesER8JSONRead
zmh:__ZL65RuntimeArray_CustomAttributesCacheGenerator_Array_Sort_m182264525P21CustomAttributesCache
DGf:_Guid_BaseToString_m3600006650
kOa:__ZN20ArchiveStorageReader31TryToReadDirectoryFromBlockDataEyPKvj
q_c:_PointerEventData_set_pointerEnter_m3256217464
Ebj:__ZN6il2cpp2vmL11GetIdentityEP14Il2CppIUnknown
Vnj:_GC_push_gc_structures
Wde:_TlsServerCertificate_ProcessAsTls1_m819212276
a8h:_ReadOnlyCollection_1_System_Collections_Generic_ICollectionU3CTU3E_Clear_m2102011098_gshared
D1h:_Dictionary_2_Do_ICollectionCopyTo_TisRuntimeObject_m3942192587_gshared
VUi:__ZN6il2cpp6icalls8mscorlib6SystemL8IsPublicEPK9EventInfo
wRh:__ZL139RectTransformUtility_t1743242446_CustomAttributesCacheGenerator_RectTransformUtility_INTERNAL_CALL_RectangleContainsScreenPoint_m1214874141P21CustomAttributesCache
R6d:_PrimalityTests_RabinMillerTest_m2544317101
dDa:__Z22GetShaderCachePathGLESv
a6d:_Kernel_DwordDivMod_m1540317819
afi:_CachedInvokableCall_1_Invoke_m931536002_gshared
V9g:_Enumerator_System_Collections_IEnumerator_get_Current_m1399273671_gshared
x_d:_TypeBuilder_GetPropertyImpl_m3104345782
S7a:__ZNSt3__213__stable_sortIRNS_4lessI4PPtrI11SpriteAtlasEEENS_11__wrap_iterIPS4_EEEEvT0_SA_T_NS_15iterator_traitsISA_E15difference_typeEPNSD_10value_typeEi
_Gd:_Int64_ToString_m2085073918_AdjustorThunk
d$d:_FieldInfo_GetFieldOffset_m1356898082
A$g:__Z36RuntimeInvoker_Enumerator_t652329154PFvvEPK10MethodInfoPvPS4_
BMf:_Array_InternalArray__IndexOf_TisTypeTag_t3541821701_m2988972362_gshared
X8:__ZN8keywords6CreateEPKc
pKi:__ZL7log2_32j
S:Math_imul
l0f:_Enumerator_Dispose_m786980821_AdjustorThunk
WVg:__Z49RuntimeInvoker_Boolean_t97287965_Byte_t1134296376PFvvEPK10MethodInfoPvPS4_
pee:_TlsServerKeyExchange_Update_m453798279
J5a:__ZN11PlayerPrefs6GetIntERKN4core12basic_stringIcNS0_20StringStorageDefaultIcEEEEi
Sae:_CipherSuiteCollection_System_Collections_IList_IndexOf_m1361500977
v$e:_Text_set_fontStyle_m648756124
yMc:__Z45TextGenerator_CUSTOM_INTERNAL_get_rectExtentsP12Il2CppObjectP5RectTIfE
UOg:__Z50RuntimeInvoker_Touch_t1921856868_Int32_t2950945753PFvvEPK10MethodInfoPvPS4_
jtf:_DateTime__ctor_m2135476686_AdjustorThunk
SKe:_SoapFieldAttribute_IsInteropXmlElement_m2819415462
LP:__ZN11AudioSource12SetAudioClipEP9AudioClip
lvg:_RectTransform_GetLocalCorners_m823861473
Xud:_SynchronizedArrayListWrapper_GetEnumerator_m1579424644
BWf:_EqualityComparer_1__ctor_m3717935020_gshared
Jci:_Comparison_1_EndInvoke_m2734814639_gshared
s_:__ZN18ScriptingArguments9AddObjectE18ScriptingObjectPtr
MQc:__Z39CanvasGroup_Get_Custom_PropInteractableP12Il2CppObject
GR:__ZN11UnityEngine15CloudWebService16SessionContainerD2Ev
BWc:__ZL38InitializeUnityConnectScriptingClassesv
nXb:__ZN13ProbeRenderer8ConvolveEbijjb
mxi:_GUIUtility_set_systemCopyBuffer_m608712289
wwa:__ZN17GenericDynamicVBOC2ER9GfxDevice13GfxBufferModejj
pmc:__ZZN10GUIManager14InitGUIManagerEvEN41PreUpdateIMGUISendQueuedEventsRegistrator7ForwardEv
Oaf:_ServicePointManager_get_SecurityProtocol_m966397919
aDa:__ZN13dynamic_arrayIN18GlslGpuProgramGLES9GLProgramELj4EE6insertEPS1_jRKS1_
fWf:_EqualityComparer_1_System_Collections_IEqualityComparer_Equals_m2639327655_gshared
kDf:_CCGregorianCalendar_day_from_fixed_m1674702403
ZS:__ZN11UnityEngine15CloudWebService17SessionEventQueue10PurgeItemsEj
TXb:__ZN6Camera16StandaloneRenderENS_10RenderFlagEP6ShaderRKN4core12basic_stringIcNS3_20StringStorageDefaultIcEEEE
pdf:_X509Chain_PrepareForNextCertificate_m3691934993
O1a:__ZNK12CubemapArray13GetIsReadableEv
oyb:__Z18Transfer_BlittableI18StreamedBinaryReadILb1EELb1EtEvRK29SerializationCommandArgumentsR31RuntimeSerializationCommandInfo
DPh:__ZL58EventType_t3528516131_CustomAttributesCacheGenerator_keyUpP21CustomAttributesCache
Evh:__ZL57X509Certificate_t713131622_CustomAttributesCacheGeneratorP21CustomAttributesCache
Kab:__ZN12BoneWeights48TransferI19StreamedBinaryWriteILb0EEEEvRT_
Hqa:__ZN9GfxDevice20DeallocRenderSurfaceEP17RenderSurfaceBase
MBe:_ValueCollection_System_Collections_Generic_ICollectionU3CTValueU3E_get_IsReadOnly_m1110422367_gshared
_ma:__ZN20GpuProgramParameters36UpdatePrepareValuesMaximumBufferSizeEv
dBi:_AudioSourceExtension_Stop_m387892536
H6h:_ReadOnlyCollection_1_System_Collections_IList_RemoveAt_m2129436005_gshared
I0e:_SimpleCollator_GetContraction_m2205549079
RYf:_EqualityComparer_1_get_Default_m168544645_gshared
L6h:_ReadOnlyCollection_1_System_Collections_IList_get_IsReadOnly_m3888539454_gshared
zda:__ZN13RuntimeStaticI10WatermarksLb0EE13StaticDestroyEPv
z7d:_ARC4Managed_GenerateKey_m1607343060
GOf:_Array_InternalArray__ICollection_CopyTo_TisDecimal_t2948259380_m2749946216_gshared
mfe:_ReceiveRecordAsyncResult_get_ResultingBuffer_m1839161335
bSa:__ZN12BaseRenderer23RendererBecameInvisibleEv
fXd:_EnumBuilder_IsPointerImpl_m2644353933
RHe:_EnvoyInfo__ctor_m276600651
lJc:__ZN20TextRenderingPrivate8FontImpl13CharacterInfo8TransferI18StreamedBinaryReadILb0EEEEvRT_
Dvb:__Z29Transfer_Blittable_ArrayFieldI24GenerateTypeTreeTransferfEvRT_R9ArrayInfoRK23StaticTransferFieldInfo
zba:__ZNSt3__26__treeINS_12__value_typeIN4core12basic_stringIcNS2_20StringStorageDefaultIcEEEES6_EENS_19__map_value_compareIS6_S7_NS_4lessIS6_EELb1EEE13stl_allocatorIS7_L18MemLabelIdentifier13ELi16EEE7destroyEPNS_11__tree_nodeIS7_PvEE
fng:_UnityEvent_FindMethod_Impl_m2312362624
hZb:__ZN19CustomRenderTexture9AddParentE4PPtrIS_E
W6:__ZN8Gradient8TransferI14SafeBinaryReadEEvRT_
Sig:_Vector3_GetHashCode_m2879461828
Hqi:_Parser_ParseSpecial_m1961501104
Sof:_Single_System_IConvertible_ToUInt64_m3299129161_AdjustorThunk
f0a:__ZNSt3__26vectorIN4core12basic_stringIcNS1_20StringStorageDefaultIcEEEE13stl_allocatorIS5_L18MemLabelIdentifier1ELi16EEE7reserveEj
tRh:__ZL93CanvasRenderer_t2598313366_CustomAttributesCacheGenerator_CanvasRenderer_set_cull_m4222419074P21CustomAttributesCache
tBe:_ValueCollection_System_Collections_Generic_ICollectionU3CTValueU3E_Contains_m3110959791_gshared
taf:_IPv6Address_AsIPv4Int_m844941024
rSd:_Random__ctor_m3209279193
Mee:_RecordProtocol__cctor_m1280873827
I6f:_StringBuilder__ctor_m3504405255
U4d:_Marshal__cctor_m4007734770
Pmj:_GC_new_free_list_inner
A6e:_SymmetricTransform_Random_m2004892672
TMg:__Z79RuntimeInvoker_Void_t1185182177_RuntimeObject_Byte_t1134296376_Byte_t1134296376PFvvEPK10MethodInfoPvPS4_
M8d:_EncryptedPrivateKeyInfo_get_IterationCount_m2912222740
umj:_GC_err_printf
vCi:__ZL24UnresolvedVirtualCall_70P12Il2CppObjectPK10MethodInfo
eqh:__ZL63PathTooLongException_t2919094560_CustomAttributesCacheGeneratorP21CustomAttributesCache
d9d:_RSAManaged_DecryptValue_m1804388365
Eie:_InternalEnumerator_1_System_Collections_IEnumerator_get_Current_m2980550840_AdjustorThunk
Puc:__ZN8JSONRead8TransferI10RectOffsetEEvRT_PKc17TransferMetaFlagsb
Ccj:__ZNK15dense_hashtableINSt3__24pairIK10KeyWrapperINS1_IPKcS4_EEEiEES6_24NamespaceAndNamePairHashN14dense_hash_mapIS6_iS9_NS6_14EqualsComparerI26NamespaceAndNamePairEqualsEENS0_9allocatorIS8_EEE9SelectKeyESD_SF_E12test_deletedERK24dense_hashtable_iteratorIS8_S6_S9_SH_SD_SF_E
IS:__ZN9JSONWrite8TransferIN11UnityEngine15CloudWebService14DataErrorEvent15FileErrorDetailEEEvRT_PKc17TransferMetaFlags
Ueh:_Collection_1_ClearItems_m2728738230_gshared
LFd:_Int32_Parse_m2087562008
NUa:__Z21ClearFenceWithoutSyncR8JobFence
xLf:_Array_compare_TisVector4_t3319028937_m1974066282_gshared
T1d:_MonoProperty_GetAccessors_m412928203
Hii:_TweenRunner_1_Start_m3757154622_gshared
yJ:__ZN12SoundManager20RegisterModifiedClipEP10SampleClip
eEe:_RemotingServices_GetClientChannelSinkChain_m1499550585
RSd:_Assembly_FillName_m1660001542
lth:__ZL56_EventBuilder_t2558055199_CustomAttributesCacheGeneratorP21CustomAttributesCache
HXe:_ScrollRect_get_decelerationRate_m74583805
fkf:_SHA384Managed_processBlock_m1272529332
cM:__ZN11AudioSource4PlayEd
Esd:_Char_ToString_m278452217_AdjustorThunk
wOi:__ZN15dense_hashtableI10KeyWrapperIPK17Il2CppGenericInstES4_N6il2cpp8metadata21Il2CppGenericInstHashEN14dense_hash_setIS4_S7_NS4_14EqualsComparerINS6_24Il2CppGenericInstCompareEEENSt3__29allocatorIS4_EEE8IdentityESB_SE_E13set_empty_keyERKS4_
VBg:__Z63RuntimeInvoker_Char_t3634460470_Int16_t2552820387_RuntimeObjectPFvvEPK10MethodInfoPvPS4_
xAd:_Convert_ToDouble_m2924063577
Llb:__ZNK20LocalFileSystemPosix8IsHiddenERK13FileEntryData
rse:_InternalEnumerator_1_System_Collections_IEnumerator_Reset_m1601477281_AdjustorThunk
tUd:_CustomAttributeNamedArgument_ToString_m1488801416_AdjustorThunk
gBe:_ValueCollection_System_Collections_Generic_ICollectionU3CTValueU3E_Remove_m3673494156_gshared
pRh:__ZL113CanvasRenderer_t2598313366_CustomAttributesCacheGenerator_CanvasRenderer_SplitUIVertexStreamsInternal_m3280623346P21CustomAttributesCache
H2a:__ZN7Cubemap23VirtualRedirectTransferER18StreamedBinaryReadILb0EE
Xre:_InternalEnumerator_1__ctor_m1739091604_gshared
Qhc:__ZNSt3__27__sort4IRNS_6__lessI11KeyframeTplIfES3_EEPS3_EEjT0_S7_S7_S7_T_
OFc:_Read_CVT
SL:__ZN11AudioSource23VirtualRedirectTransferER19StreamedBinaryWriteILb0EE
K0e:_SimpleCollator_GetTailContraction_m2107754083
rub:__ZL26Transfer_SimpleNativeClassI24GenerateTypeTreeTransfer17AnimationCurveTplIfELb0EEvRK29SerializationCommandArgumentsR31RuntimeSerializationCommandInfo
Pvc:__ZN8JSONRead21TransferSTLStyleArrayI13dynamic_arrayI9BoundsIntLj4EEEEvRT_17TransferMetaFlags
O4a:__ZN24GenerateTypeTreeTransfer8TransferI13dynamic_arrayI33EnlightenTerrainChunksInformationLj4EEEEvRT_PKc17TransferMetaFlags
$tf:_DateTimeFormatInfo__ctor_m3106345035
Ibe:_TlsServerKeyExchange_verifySignature_m3412856769
HVf:_EqualityComparer_1_System_Collections_IEqualityComparer_GetHashCode_m4137147946_gshared
Wca:__ZN16LightmapSettings20DidChangeActiveSceneEP10UnitySceneS1_
Tvb:__Z18Transfer_BlittableI19StreamedBinaryWriteILb0EELb0EN4math12int3_storageEEvRK29SerializationCommandArgumentsR31RuntimeSerializationCommandInfo
SZh:__ZL59g_AssemblyU2DCSharp_Assembly_CustomAttributesCacheGeneratorP21CustomAttributesCache
hVi:__ZN6il2cpp5utils9PathUtils8BasenameIcEENSt3__212basic_stringIT_NS3_11char_traitsIS5_EENS3_9allocatorIS5_EEEERKSA_
SLe:_RemotingProxy__cctor_m4096951805
Unc:__Z35Register_UnityEngine_Event_get_typev
J9i:__ZN6il2cpp2vm9Exception23GetInvalidCastExceptionERKNS_5utils10StringViewIDsEE
FWh:__ZL64Scrollbar_t1494447233_CustomAttributesCacheGenerator_m_DirectionP21CustomAttributesCache
ez:__ZN8Animator28BuildControllerPlayableCacheEv
iuh:__ZL48Header_t549724581_CustomAttributesCacheGeneratorP21CustomAttributesCache
YQh:__ZL88CanvasGroup_t4083511760_CustomAttributesCacheGenerator_CanvasGroup_get_alpha_m2918269489P21CustomAttributesCache
vRg:__Z36RuntimeInvoker_EventType_t3528516131PFvvEPK10MethodInfoPvPS4_
$Y:__Z63ThreadAndSerializationSafeCheckGetMonoBehaviourBeingTransferredv
_zf:_StackTrace__ctor_m206492268
q1g:_List_1_set_Item_m4224739467_gshared
YDg:__Z74RuntimeInvoker_Int32_t2950945753_RuntimeObject_RuntimeObject_RuntimeObjectPFvvEPK10MethodInfoPvPS4_
r6c:_ColorTween_set_startColor_m2562993758_AdjustorThunk
jVd:_ConstructorBuilder_get_Name_m2426555260
whc:__Z37Register_UnityEngine_Input_GetAxisRawv
VCh:__ZL80ModulusRing_t596511505_CustomAttributesCacheGenerator_ModulusRing_Pow_m729002192P21CustomAttributesCache
Iqi:_Parser_ParseCharacterClass_m4285351396
uBd:_Convert_ToSByte_m2653418303
Jxd:_SyncHashtable__ctor_m2449935938
QL:__ZN11AudioSource5ResetEv
rjf:_RSAPKCS1SignatureFormatter_SetKey_m2935054088
ENb:__ZN12ImageFilters27SetSurfaceUseResolvedBufferEP13RenderTextureb
f8a:__ZN14Texture2DArray23VirtualRedirectTransferER18StreamedBinaryReadILb0EE
q8f:_UTF7Encoding_GetByteCount_m209415911
vjb:__ZN2UI13RectTransform13AwakeFromLoadE17AwakeFromLoadMode
oti:_RegularExpression_Compile_m2385682508
uDf:_CompareInfo__cctor_m1837489679
ASb:__ZN14qsort_internal30FindAndMovePivotToLastPositionIP20ShadowCasterSortDatai26ShadowCasterSortDataSorterEEvT_S4_T0_T1_
Nuh:__ZL60IRemotingTypeInfo_t2222593263_CustomAttributesCacheGeneratorP21CustomAttributesCache
Pnb:__Z18Transfer_BlittableI14SafeBinaryReadLb1EiEvRK29SerializationCommandArgumentsR31RuntimeSerializationCommandInfo
vdf:_X509ExtensionEnumerator_get_Current_m256207749
_7:__GLOBAL__sub_I_modules_profiler_public_0_cpp
Jei:_Predicate_1__ctor_m3829092036_gshared
Xhb:__ZN17PersistentManager13GetAllFileIDsERKN4core12basic_stringIcNS0_20StringStorageDefaultIcEEEER13dynamic_arrayIxLj8EE
Wxh:__ZL83StringBuilder_t_CustomAttributesCacheGenerator_StringBuilder_AppendLine_m1438862993P21CustomAttributesCache
cod:_Array_Sort_m182264525
BSe:_LayoutGroup_set_padding_m282562135
mbh:_Collection_1_System_Collections_IList_get_IsReadOnly_m773226719_gshared
NTd:_Default_IsArrayAssignable_m953489228
mD:__ZNK4PPtrI8RendererEcvPS0_Ev
h4i:_il2cpp_field_get_offset
Peg:_UInt16_ToString_m355311020_AdjustorThunk
eid:_RC2__ctor_m1146135664
Rfi:_InvokableCall_1_remove_Delegate_m667188944_gshared
LHe:_SynchronizedClientContextSink__ctor_m4129963630
Ek:_glGetStringi
esf:_DecoderExceptionFallback_CreateFallbackBuffer_m1133375601
Adj:__ZNK15dense_hashtableI10KeyWrapperIP18Il2CppGenericClassES3_N6il2cpp8metadata22Il2CppGenericClassHashEN14dense_hash_setIS3_S6_NS3_14EqualsComparerINS5_25Il2CppGenericClassCompareEEENSt3__29allocatorIS3_EEE8IdentityESA_SD_E10test_emptyERK30dense_hashtable_const_iteratorIS3_S3_S6_SF_SA_SD_E
nxe:_Enumerator_get_CurrentKey_m889650866_gshared
_0a:__ZNSt3__26__treeINS_12__value_typeIN9ShaderLab16FastPropertyNameEN18UnityPropertySheet11UnityTexEnvEEENS_19__map_value_compareIS3_S6_NS_4lessIS3_EELb1EEENS_9allocatorIS6_EEE12__find_equalIS3_EERPNS_16__tree_node_baseIPvEENS_21__tree_const_iteratorIS6_PNS_11__tree_nodeIS6_SG_EEiEESJ_RKT_
$8a:__ZN18StreamedBinaryReadILb0EE21TransferSTLStyleArrayI13dynamic_arrayI8Vector4fLj4EEEEvRT_17TransferMetaFlags
sve:_Comparer_1_get_Default_m1513846993_gshared
R6e:_EncryptedData_get_EncryptionAlgorithm_m1297902161
HUh:__ZL67OptionDataList_t1438173104_CustomAttributesCacheGenerator_m_OptionsP21CustomAttributesCache
xA:__ZN8Animator9WriteStepEy
Gwe:_Enumerator_VerifyCurrent_m829026141_gshared
Y8b:__ZN16PropertyAccessorC2Ev
S5a:__ZNSt3__23mapIN4core12basic_stringIcNS1_20StringStorageDefaultIcEEEE9PrefValueNS_4lessIS5_EENS_9allocatorINS_4pairIKS5_S6_EEEEEixERSB_
Myb:__Z35Transfer_Blittable_FixedBufferFieldI18StreamedBinaryReadILb1EEaEvRK29SerializationCommandArgumentsR31RuntimeSerializationCommandInfo
s8b:__ZN15DirectorManager22ConstructPlayableGraphEv
EWh:__ZL65Scrollbar_t1494447233_CustomAttributesCacheGenerator_m_HandleRectP21CustomAttributesCache
i6a:__ZN13ScreenManager16SetScreenTimeoutEi
Usb:__Z18Transfer_BlittableI17RemapPPtrTransferLb0EdEvRK29SerializationCommandArgumentsR31RuntimeSerializationCommandInfo
qch:_Collection_1_ConvertItem_m1743542180_gshared
FMc:__Z38Register_UnityEngine_Font_HasCharacterv
f$g:__Z68RuntimeInvoker_Boolean_t97287965_Int16_t2552820387_Int16_t2552820387PFvvEPK10MethodInfoPvPS4_
xWb:__Z35IntersectSpherePlaneBoundsOptimizedRKN4math7_float4EPS1_i
yif:_RNGCryptoServiceProvider__cctor_m3587754670
nne:_InternalEnumerator_1_MoveNext_m1728532725_AdjustorThunk
Qni:_X509Crl_get_IssuerName_m1792797338
S4f:_List_1_get_Count_m241572196_gshared
ogj:__ZN6il2cpp2os5posix15PosixWaitObject13InterruptWaitEv
tca:__Z22CleanupLODGroupManagerPv
Qnc:__Z21Event_CUSTOM_PopEventP12Il2CppObject
ol:_glUniform3fv
Jsj:__ZNK6il2cpp8metadata24Il2CppGenericInstCompareclERK10KeyWrapperIPK17Il2CppGenericInstES8_
Veb:__ZNSt3__218__insertion_sort_3IRN15ResourceManager10Dependency6SorterEPS2_EEvT0_S6_T_
Qdf:_X509ChainElement_Set_m655180762
Nqg:_MonoBehaviour_StopCoroutine_m615723318
Wsg:_Quaternion_GetHashCode_m2636680144
lRb:__ZNK16LightmapSettings31GetRealtimeLightmapDecodeValuesEv
SK:__ZN5audio5mixer12SetSuspendedERNS0_16AudioMixerMemoryEb
Pib:__ZN17PersistentManager21UnloadNonDirtyStreamsEv
G7f:_UnicodeDecoder__ctor_m3606046165
YIg:__Z96RuntimeInvoker_Int32_t2950945753_RuntimeObject_Int32_t2950945753_RuntimeObject_Int32_t2950945753PFvvEPK10MethodInfoPvPS4_
Qti:_Uri_get_Parser_m3737125102
SHi:_Canvas_get_overrideSorting_m2740418462
Oag:_Scheduler__ctor_m3313141270
g9a:__ZN12ImageFilters4BlitER17ShaderPassContextP7TextureP13RenderTextureiPK18SharedMaterialDataPKcP6ShaderiNS_9BlitFlagsE11CubemapFaceRK8Vector2fSH_
Eqf:_String_LastIndexOf_m3451222878
Eoi:_Mark_get_Index_m3048692661
iYh:__ZL69CanvasScaler_t2767979955_CustomAttributesCacheGenerator_m_ScaleFactorP21CustomAttributesCache
nFe:_ConfigHandler_CheckPath_m3079311646
hT:__ZN11UnityEngine15CloudWebService10RestClientINS0_23WebRequestRestHeaderMapEED2Ev
sdi:_U3CCreateWhereIteratorU3Ec__Iterator1D_1__ctor_m1723214851_gshared
Kl:_emscripten_glDepthMask
XDe:_RemotingServices_CreateClientProxy_m3886727610
Lxa:__ZN4crnd25static_huffman_data_model22prepare_decoder_tablesEv
H3a:__ZN9Texture2D23VirtualRedirectTransferER17RemapPPtrTransfer
qig:_AssetBundleRequest_t699759206_marshal_pinvoke
STf:_DefaultComparer__ctor_m1292755885_gshared
Ree:_RecordProtocol_GetMessage_m2086135164
Pmc:__Z23GUIStatePopDisplayIndexv
VAb:__Z18Transfer_BlittableI18StreamedBinaryReadILb0EELb0E10ColorRGBAfEvRK29SerializationCommandArgumentsR31RuntimeSerializationCommandInfo
$ca:__Znaj
VIj:_emscripten_glEnableClientState__wrapper
jMh:__ZL60PlayableBehaviour_t4203540982_CustomAttributesCacheGeneratorP21CustomAttributesCache
J9:__ZN17MessageIdentifierC2EPKcNS_7OptionsEPKN5Unity4TypeES1_
XBg:__Z45RuntimeInvoker_Void_t1185182177_RuntimeObjectPFvvEPK10MethodInfoPvPS4_
M7a:__ZN13dynamic_arrayI4PPtrI6SpriteELj4EE9push_backERKS2_
Fqg:_Mesh_SetTriangles_m1523451247
Hof:_Single_System_IConvertible_ToSByte_m1208276900
F_h:_Array_InternalArray__set_Item_TisVector4_t3319028937_m757305038_gshared
_Ra:__ZN11GameManager15ThreadedCleanupEv
pHg:__Z105RuntimeInvoker_Void_t1185182177_RuntimeObject_RuntimeObject_RuntimeObject_RuntimeObject_Int32_t2950945753PFvvEPK10MethodInfoPvPS4_
RAe:_ValueCollection_System_Collections_Generic_ICollectionU3CTValueU3E_Add_m3298059628_gshared
qCg:__Z64RuntimeInvoker_RuntimeObject_Int16_t2552820387_Int16_t2552820387PFvvEPK10MethodInfoPvPS4_
xQ:__Z55Register_UnityEngine_AudioSource_get_spatializeInternalv
aLa:__ZN14SafeBinaryRead8TransferI14ConstantStringEEvRT_PKc17TransferMetaFlags
RLb:__ZNK6Camera16GetStereoEnabledEv
MDh:__ZL90HttpWebRequest_t1669436515_CustomAttributesCacheGenerator_HttpWebRequest__ctor_m1789065007P21CustomAttributesCache
ZLg:__Z72RuntimeInvoker_Int32_t2950945753_TimeSpan_t881159249_TimeSpan_t881159249PFvvEPK10MethodInfoPvPS4_
qfe:_SendRecordAsyncResult_SetComplete_m153213906
Ena:__ZL24FindBelongingStructParamRPKcRNSt3__26vectorIN9ShaderLab20SerializedSubProgram14ConstantBufferENS2_9allocatorIS6_EEEE
v5b:__ZN12LightManager15InitializeClassEv
$ag:_WaitHandle__cctor_m4242752477
e$a:__ZN9ShaderLab11shaderprops16GetComputeBufferEPK19ShaderPropertySheetS3_NS_16FastPropertyNameE
Mkj:__ZN6il2cpp6icalls8mscorlib6System10Reflection10MethodBase31GetMethodFromHandleInternalTypeEii
I_:__ZN18ScriptingArgumentsC2Ev
mjg:_Vector3_op_Equality_m4231250055
ZCe:_Dictionary_2_System_Collections_IDictionary_get_Item_m1524611028_gshared
qEj:_emscripten_glBlendFuncSeparate__wrapper
VOh:__ZL68GUISettings_t1774757634_CustomAttributesCacheGenerator_m_CursorColorP21CustomAttributesCache
WId:_FileSystemInfo__ctor_m3769019897
h3h:_Array_InternalArray__get_Item_TisContentType_t1787303396_m421427711_gshared
Xtg:_Rect_get_xMin_m581135837_AdjustorThunk
Oua:__Z17HasSampledTexture14GraphicsFormat13formatSupport
eNb:__ZNK25CameraStackRenderingState27GetStereoImageEffectTextureEb
yhd:_HMACSHA384__ctor_m1677515580
uif:_RIPEMD160Managed_J_m1336489154
sp:__ZN8Vector3f8TransferI14SafeBinaryReadEEvRT_
FSi:__ZN6il2cpp6icalls6System6System3Net7Sockets6Socket7ReceiveEiP11Il2CppArrayiiNS4_11SocketFlagsEPi
wo:FUNCTION_TABLE_ii
TRa:__ZN10TagManager8TransferI18StreamedBinaryReadILb0EEEEvRT_
zfh:_Collection_1_System_Collections_IList_get_IsReadOnly_m2202364665_gshared
prc:__Z18Transfer_BlittableI9JSONWriteLb0E8BitFieldEvRK29SerializationCommandArgumentsR31RuntimeSerializationCommandInfo
VKd:_MemoryStream_set_Capacity_m1773624579
s5i:__ZNK15dense_hashtableINSt3__24pairIK10KeyWrapperINS1_IP11Il2CppClassjEEES4_EES6_N6il2cpp8metadata14ArrayClassHashEN14dense_hash_mapIS6_S4_SB_NS6_14EqualsComparerINSA_17ArrayClassCompareEEENS0_9allocatorIS8_EEE9SelectKeyESF_SH_E10test_emptyEj
P_e:_SpriteState_set_pressedSprite_m3368686500_AdjustorThunk
Oia:__ZNSt3__26vectorIN9ShaderLab20SerializedSubProgram15StructParameterENS_9allocatorIS3_EEE8__appendEj
tb:invoke_diiii
YCj:b47
cOg:__Z95RuntimeInvoker_Void_t1185182177_RuntimeObject_RuntimeObject_SByte_t1669577662_SByte_t1669577662PFvvEPK10MethodInfoPvPS4_
zMa:__Z24CreateDirectoryRecursiveRKN4core12basic_stringIcNS_20StringStorageDefaultIcEEEE
KCj:b41
ila:__ZN9ShaderLab20SerializedSubProgram8TransferI18StreamedBinaryReadILb0EEEEvRT_
hge:_SslClientStream_get_HaveRemoteValidation2Callback_m2858953511
JCj:b40
ega:__ZN19ThreadSpecificValueIP14StackAllocatorE15ReinitializeTLSEPv
eVb:__Z9EndJobSetR8JobFence11JobPriority
iKh:__ZL54ContextMenu_t1295656858_CustomAttributesCacheGeneratorP21CustomAttributesCache
j9:__ZN13RuntimeStaticI21ScalableBufferManagerLb0EE13StaticDestroyEPv
lNc:__ZN2UI13CanvasManager9AddCanvasEPNS_6CanvasE
Z8a:__ZN9Texture3D8TransferI19StreamedBinaryWriteILb0EEEEvRT_
JNb:__ZNK6Camera22CalculateRenderingPathEv
eBd:_Convert_ToInt64_m3758262873
Wld:_Hashtable_TestPrime_m3839319309
gC:__ZN11UnityEngine9Animation37SetGenericRootTransformPropertyValuesERKNS0_30AnimatorGenericBindingConstantERKN7mecanim10ValueArrayER9Transformbb
YDa:__Z13ConvertMipmap14GraphicsFormatPKvS_Pviiii
C_c:_BaseRaycaster_get_renderOrderPriority_m1110184610
m7e:_PKCS12_get_IterationCount_m626423090
Zsb:__ZL12InvokeMethodI17RemapPPtrTransferEvRK29SerializationCommandArgumentsR31RuntimeSerializationCommandInfo
x9e:_RemoteCertificateValidationCallback_Invoke_m3086073466
Erf:_StringComparer_Compare_m991165676
vDc:_tt_sbit_decoder_load_image
pke:_InternalEnumerator_1_MoveNext_m3299696349_AdjustorThunk
l7g:_List_1_System_Collections_ICollection_get_IsSynchronized_m1552759297_gshared
_5i:__ZN15dense_hashtableINSt3__24pairIK10KeyWrapperIP11Il2CppClassES4_EES5_N6il2cpp8metadata16SZArrayClassHashEN14dense_hash_mapIS5_S4_SA_NS5_14EqualsComparerINS9_19SZArrayClassCompareEEENS0_9allocatorIS7_EEE9SelectKeyESE_SG_EC2EjRKSA_RKSE_RKSI_
tii:_U3CStartU3Ec__Iterator0_Dispose_m261027331_gshared
XEa:__ZN4core8hash_mapIPK17RenderSurfaceBaseP13RenderTexture19PointerHashFunctionIS3_ENSt3__28equal_toIS3_EEE6insertERKNS8_4pairIKS3_S5_EE
Jmc:__ZNSt3__24listIN10GUIManager12SortedScriptE11memory_poolIS2_EE6__sortI13OldSortScriptEENS_15__list_iteratorIS2_PvEESA_SA_jRT_
YXf:_EqualityComparer_1_System_Collections_IEqualityComparer_GetHashCode_m2588073987_gshared
qfh:_Collection_1_System_Collections_IList_Add_m3364892189_gshared
N1g:_List_1_AddEnumerable_m3500350831_gshared
DRi:__ZN24dense_hashtable_iteratorINSt3__24pairIK10KeyWrapperIPK11Il2CppClassEPKcEES6_N6il2cpp5utils11PointerHashIS3_EEN14dense_hash_mapIS6_S9_SE_NS6_14EqualsComparerINS0_8equal_toIS5_EEEENS0_9allocatorISA_EEE9SelectKeyESJ_SL_E30advance_past_empty_and_deletedEv
Q8d:_PrivateKeyInfo_get_PrivateKey_m3647771102
Csb:__Z18Transfer_BlittableI17RemapPPtrTransferLb1E8BitFieldEvRK29SerializationCommandArgumentsR31RuntimeSerializationCommandInfo
p8i:__ZN6il2cpp6icalls8mscorlib6System9ThreadingL11ThreadStartEPv
Tea:__ZN15DirectorManager12OnSampleTimeEv
sZd:_TypeBuilder_check_not_created_m3652863637
B2c:_StandaloneInputModule_UpdateModule_m450861257
IGi:_Font_add_textureRebuilt_m2164317336
bbi:_ReadOnlyCollection_1_System_Collections_IList_Insert_m2928873627_gshared
gL:__ZNK4PPtrI10AudioMixerEptEv
oXf:_EqualityComparer_1__cctor_m314889309_gshared
f6:__ZN12CachedReader10Align4ReadEv
yUf:_DefaultComparer_GetHashCode_m556015105_gshared
Cmi:_X501__cctor_m2428304915
RHi:_Canvas_get_renderOrder_m1489855841
PCg:__Z50RuntimeInvoker_Void_t1185182177_Single_t1397266774PFvvEPK10MethodInfoPvPS4_
VRh:__ZL77ExecuteEvents_t3484638744_CustomAttributesCacheGenerator_U3CU3Ef__mgU24cache1P21CustomAttributesCache
hvi:_Event_ToString_m1688862299
_Mg:__Z70RuntimeInvoker_Boolean_t97287965_RuntimeObject_IPAddressU26_t589322682PFvvEPK10MethodInfoPvPS4_
RRg:__Z105RuntimeInvoker_Void_t1185182177_Vector2U26_t2376273893_RuntimeObject_RuntimeObject_Vector2U26_t2376273893PFvvEPK10MethodInfoPvPS4_
bKa:__ZNK9Behaviour22GetTypeVirtualInternalEv
jDf:_CCGregorianCalendar_month_from_fixed_m4268992710
oLf:_Array_compare_TisUICharInfo_t75501106_m1310495481_gshared
A3b:__ZNK28MonoBehaviourPropertyBinding12SetPPtrValueERKN11UnityEngine9Animation10BoundCurveEi
hXb:__Z21GetScriptingArraySize17ScriptingArrayPtr
JIc:__ZN20TextRenderingPrivate8FontImpl8TransferI14SafeBinaryReadEEvRT_
BKg:__Z51RuntimeInvoker_UInt32_t2560061978_Double_t594665363PFvvEPK10MethodInfoPvPS4_
Zoh:__ZL55ISymbolWriter_t780458634_CustomAttributesCacheGeneratorP21CustomAttributesCache
znc:__ZN11IMGUIModule21ClearDeveloperConsoleEv
KMh:__ZL81MessageTypeSubscribers_t1684935770_CustomAttributesCacheGenerator_m_messageTypeIdP21CustomAttributesCache
q9h:_ReadOnlyCollection_1_System_Collections_IList_Clear_m4022532825_gshared
S5f:_Encoding_get_ASCII_m3595602635
ltg:_Ray_get_direction_m761601601_AdjustorThunk
Dra:__ZN9GfxDevice17ImmediateTexCoordEifff
_Hc:_ft_black_new
hWd:_DerivedType_GetCustomAttributes_m3536779709
wyh:__ZL93Interlocked_t2273387594_CustomAttributesCacheGenerator_Interlocked_CompareExchange_m388540288P21CustomAttributesCache
u_d:_MethodBase_get_IsAbstract_m428833029
tod:_AssemblyLoadEventHandler__ctor_m896828968
Atb:__Z35Transfer_Blittable_FixedBufferFieldI24GenerateTypeTreeTransferhEvRK29SerializationCommandArgumentsR31RuntimeSerializationCommandInfo
kCj:_emscripten_glUniform4f__wrapper
h1g:_List_1_Reverse_m4144036584_gshared
G1f:_Enumerator_MoveNext_m2595190390_AdjustorThunk
MMf:_Array_InternalArray__IndexOf_TisColor32_t2600501292_m3783551884_gshared
mY:__ZNK6Camera16GetProjectionFarEv
Nq:__Z24InverseTransformRotationRK23TransformAccessReadOnlyRKN4math7_float4E
Cni:_X509Chain_Build_m2469702749
Lmf:_Evidence_get_IsSynchronized_m3446368195
XL:__ZN11AudioSource6UpdateEv
$ye:_Transform_1_EndInvoke_m1204015506_gshared
h1a:__ZNK14PlayableOutput11DerivesFromE17ScriptingClassPtr
u2a:__ZN7Texture34CreateFileTextureUploadInstructionE18TextureUploadFlagsj
_3e:_BitConverterLE_ULongFromBytes_m1677445591
XWa:__ZThn280_N31CanvasBatchIntermediateRenderer20OnAssetBoundsChangedEv
qZd:_TypeBuilder_DefineConstructor_m2989882735
ePa:__ZN25SingleBlockMemoryFileDataC2E10MemLabelIdPvjb
UPh:__ZL59GUISkin_t1244372282_CustomAttributesCacheGenerator_m_toggleP21CustomAttributesCache
f3b:__ZN19LowerResBlitTexture13ApplySettingsEv
pD:__ZN8Animator8TransferI14SafeBinaryReadEEvRT_
K5i:__ZN15dense_hashtableINSt3__24pairIK10KeyWrapperIP11Il2CppClassES4_EES5_N6il2cpp8metadata16SZArrayClassHashEN14dense_hash_mapIS5_S4_SA_NS5_14EqualsComparerINS9_19SZArrayClassCompareEEENS0_9allocatorIS7_EEE9SelectKeyESE_SG_E4swapERSJ_
pQa:__ZN17GlobalGameManager23VirtualRedirectTransferER18StreamedBinaryReadILb0EE
WVb:__ZN27IntermediateRendererManager24GetIntermediateRenderersEi
A1:__Z23AsyncReadForceCloseFileRKN4core12basic_stringIcNS_20StringStorageDefaultIcEEEE
Ut:__ZN17AnimationPlayable34CollectAnimatorControllerPlayablesER13dynamic_arrayIP26AnimatorControllerPlayableLj4EE
QMh:__ZL120RenderPipelineManager_t4036911426_CustomAttributesCacheGenerator_RenderPipelineManager_DoRenderLoop_Internal_m3799666479P21CustomAttributesCache
RO:__ZN16BaseVideoTexture19UpdateVideoTexturesEv
S0d:_MonoField_GetValue_m3124733531
dWa:__Z28BuildSingleStreamChannelInfo17ShaderChannelMaskRK20VertexChannelsLayoutS_S2_P11ChannelInfo
FKf:_Array_InternalArray__IEnumerable_GetEnumerator_TisOrderBlock_t1585977831_m2414028303_gshared
Ybe:_Context_set_HandshakeState_m1329976135
D6a:__ZN6Sprite23VirtualRedirectTransferER19StreamedBinaryWriteILb0EE
kCf:_Enum_GetHashCode_m2848082716
m$c:_EventTrigger_Execute_m2453060771
fci:_Comparison_1_Invoke_m517083441_gshared
pJg:__Z253RuntimeInvoker_Int32_t2950945753_RuntimeObject_Int32_t2950945753_Int32_t2950945753_RuntimeObject_Int32_t2950945753_UInt32U26_t3735378166_UInt32U26_t3735378166_RuntimeObject_DecoderFallbackBufferU26_t3866396827_ByteU5BU5DU26_t4057885439_SByte_t1669577662PFvvEPK10MethodInfoPvPS4_
sZi:__ZNK15dense_hashtableINSt3__24pairIK10KeyWrapperINS1_IPK9FieldInfoP11Il2CppClassEEEjEES9_17ReflectionMapHashIS8_EN14dense_hash_mapIS9_jSD_NS9_14EqualsComparerINS0_8equal_toIS8_EEEENS0_9allocatorISB_EEE9SelectKeyESI_SK_E5beginEv
Rna:__ZNK9ShaderLab7Program19HasMatchingVariantsERK13dynamic_arrayI16ShaderKeywordSetLj4EE
m7h:_ReadOnlyCollection_1_System_Collections_IList_get_IsFixedSize_m3402868227_gshared
kB:__ZN15SerializeTraitsIN4math4trsXEE8TransferI8BlobSizeEEvRS1_RT_
xva:__ZN14DataBufferGLES11CopySubDataEPKS_jjj
fe:_emscripten_glVertexPointer
nPc:__ZN2UI13PrepareOutputERNS_7BatchesEjjNS_30AdditionalCanvasShaderChannelsE
uVi:__ZN6il2cpp2vm7Runtime47RaiseExecutionEngineExceptionIfMethodIsNotFoundEPK10MethodInfo
kpi:_PatternCompiler_GetMachineFactory_m3758869886
dTb:__Z17GetFrustumPortionPK8Vector3fffPS_
PJh:__ZL105RectTransform_t3704657025_CustomAttributesCacheGenerator_RectTransform_INTERNAL_get_anchorMin_m1735215721P21CustomAttributesCache
$aj:__ZN15dense_hashtableINSt3__24pairIK10KeyWrapperIP14Il2CppIUnknownEjEES5_N6il2cpp5utils11PointerHashIS3_EEN14dense_hash_mapIS5_jSB_NS5_14EqualsComparerINS0_8equal_toIS4_EEEENS0_9allocatorIS7_EEE9SelectKeyESG_SI_E14squash_deletedEv
D$c:_EventTrigger_OnCancel_m585099428
oxh:__ZL107CodeAccessPermission_t2681295399_CustomAttributesCacheGenerator_CodeAccessPermission_GetHashCode_m880096813P21CustomAttributesCache
twi:_GUILayoutEntry_ApplyOptions_m1741659338
OIe:_MethodDictionary_set_MethodKeys_m1451825752
bed:_RuntimeTypeHandle_Equals_m2857439487_AdjustorThunk
xfh:_Collection_1_System_Collections_ICollection_get_SyncRoot_m1659213062_gshared
upa:__ZNK9GfxDevice27GetPlatformAdjustedViewportEv
x6h:_ReadOnlyCollection_1_System_Collections_Generic_IListU3CTU3E_set_Item_m88350439_gshared
pdi:_Func_3_Invoke_m1194147890_gshared
Vri:_Reference_Compile_m4195878675
oGi:_InputBuffer_remove_onCommandSent_m3139499669
L8h:_ReadOnlyCollection_1_System_Collections_ICollection_CopyTo_m2672196987_gshared
a9b:__ZN16StreamedResource8TransferI24GenerateTypeTreeTransferEEvRT_
Pug:_RectTransform_get_anchorMin_m2928307238
Psd:_ArrayList__ctor_m3828927650
Fta:__ZThn9568_N13GfxDeviceGLES26EnableScissorRectsPlatformEv
HGa:__ZN10Matrix3x3f15InvertTransposeEv
Fwi:_GUILayoutGroup_SetHorizontal_m996475327
Nnf:_SecurityException_get_Demanded_m2500043391
wwi:_GUILayoutEntry__cctor_m663865902
Vff:_CaptureCollection_GetEnumerator_m732412500
lLb:__Z11IsBatchmodev
j0f:_Enumerator_System_Collections_IEnumerator_get_Current_m713684915_gshared
zrb:__Z29Transfer_Blittable_ArrayFieldI14SafeBinaryRead8Vector3fEvRT_R9ArrayInfoRK23StaticTransferFieldInfo
T_d:_MemberInfo__ctor_m3258770133
nvh:__ZL62IFormatterConverter_t2171992254_CustomAttributesCacheGeneratorP21CustomAttributesCache
iAh:__ZL78Convert_t2465617642_CustomAttributesCacheGenerator_Convert_ToSByte_m4075629912P21CustomAttributesCache
hLe:_SoapTypeAttribute_get_XmlTypeNamespace_m4211398148
yJc:__ZN20TextRenderingPrivate8FontImpl18ResetCachedTextureEv
YTi:__ZN6il2cpp6icalls8mscorlib6SystemL16GetFieldFromTypeINS_5utils10functional6FilterINSt3__212basic_stringIcNS7_11char_traitsIcEENS7_9allocatorIcEEEENS4_13VmStringUtils21CaseSensitiveComparerEEEEEP21Il2CppReflectionFieldP11Il2CppClassSK_iRKT_
Mkc:__Z27Screen_Get_Custom_PropWidthv
xnj:_GC_print_finalization_stats
ioa:__ZN11NamedObject15ThreadedCleanupEv
kxi:_GUITargetAttribute_GetGUITargetAttrValue_m2954410352
Xec:__Z53Register_UnityEngine_Behaviour_get_isActiveAndEnabledv
kod:_SimpleEnumerator_get_Current_m72361444
hq:__ZNSt3__26vectorIN4core12basic_stringIcNS1_20StringStorageDefaultIcEEEENS_9allocatorIS5_EEE8__appendEj
eP:__ZN13ProduceHelperI10SampleClipLb0EE7ProduceE10MemLabelId18ObjectCreationMode
ieb:__ZN26PlayerSettingsSplashScreen8TransferI17RemapPPtrTransferEEvRT_
K3e:_ASN1_set_Value_m2803403806
dUi:__ZN6il2cpp6icalls8mscorlib6SystemL17CollectTypeFieldsINS_5utils10functional10TrueFilterEEEvP11Il2CppClassPKS7_iRNSt3__26vectorIP9FieldInfoNSB_9allocatorISE_EEEERKT_
mDg:__Z52RuntimeInvoker_Int16_t2552820387_Decimal_t2948259380PFvvEPK10MethodInfoPvPS4_
I1b:__Z13GetTagManagerv
Pld:_Hashtable__ctor_m1815022027
N8f:_UTF8Encoding_GetChars_m1433288684
gKi:__ZL10roundUp128PyS_
qR:__ZN11UnityEngine15CloudWebService17CloudJobSchedulerD0Ev
xBg:__Z50RuntimeInvoker_Boolean_t97287965_SByte_t1669577662PFvvEPK10MethodInfoPvPS4_
Nhe:_ArrayReadOnlyList_1_Contains_m381552673_gshared
AWg:__Z105RuntimeInvoker_Int32_t2950945753_RuntimeObject_OrderBlock_t1585977831_Int32_t2950945753_Int32_t2950945753PFvvEPK10MethodInfoPvPS4_
vcg:_TimeZone_ToUniversalTime_m2789507578
LCg:__Z96RuntimeInvoker_Boolean_t97287965_RuntimeObject_RuntimeObject_Int32_t2950945753_Int32_t2950945753PFvvEPK10MethodInfoPvPS4_
QLf:_Array_IndexOf_TisUICharInfo_t75501106_m3198896198_gshared
JNc:__ZNK2UI11CanvasGroup22GetTypeVirtualInternalEv
ide:_Context_get_Current_m2853615040
IEf:_CultureInfo_construct_internal_locale_from_lcid_m2668301444
zGi:_Keyboard_WarnIfTerminalNotConneced_m1063217717
n3e:_PrimeGeneratorBase__ctor_m2973488305
bnc:__Z21CleanupGlobalGUIStatev
xdg:_Type_IsContextfulImpl_m3693603908
Plh:__ZL81RuntimeArray_CustomAttributesCacheGenerator_Array_GetValue_m120423883____indices0P21CustomAttributesCache
FOh:__ZL79Event_t2956885303_CustomAttributesCacheGenerator_Event_get_modifiers_m995073384P21CustomAttributesCache
b1f:_Enumerator_VerifyState_m2873941769_gshared
OAb:__Z18Transfer_BlittableI18StreamedBinaryReadILb0EELb1EN4math12int3_storageEEvRK29SerializationCommandArgumentsR31RuntimeSerializationCommandInfo
wAg:__Z56RuntimeInvoker_RuntimeObject_RuntimeObject_RuntimeObjectPFvvEPK10MethodInfoPvPS4_
eIa:__ZN22VertexDeclarationCache5ClearEv
Jfd:_CspParameters__ctor_m3852972821
$ld:_AppDomainInitializer_EndInvoke_m2095010821
i_b:__ZN17PersistentManager12SetPathRemapERKN4core12basic_stringIcNS0_20StringStorageDefaultIcEEEES6_
xw:__Z27ProcessRootMotionEmptyMixerP35AnimationPlayableEvaluationConstantP32AnimationPlayableEvaluationInputP33AnimationPlayableEvaluationOutput
GUb:__ZN6Camera24PrepareCullingParametersERK23CameraCullingParameters13RenderingPathR11CullResults
ubc:__Z12SetIUISystemP9IUISystem
Bgb:__ZN19RuntimeSceneManager22EndIntegrateMainThreadEP10UnitySceneNS_11LoadingModeE
i0h:_Array_Sort_TisUICharInfo_t75501106_m3474449559_gshared
drg:__ZN21InterfaceFuncInvoker0IP34MessageTypeSubscribers_t1684935770E6InvokeEjP11Il2CppClassP12Il2CppObject
$sb:__Z26Transfer_UnityEngineObjectI17RemapPPtrTransferLb0EEvRK29SerializationCommandArgumentsR31RuntimeSerializationCommandInfo
tkb:__ZN17WeakPtrSharedDataD0Ev
hqi:_QuickSearch_GetShiftDistance_m2542665852
O9a:__Z32TransferEnumWithNameForceIntSizeI14SafeBinaryRead11IndexFormatEvRT_RT0_PKc17TransferMetaFlags
I2h:_Array_InternalArray__get_Item_TisCustomAttributeTypedArgument_t2723150157_m2639399822_gshared
$1e:_BigInteger_GenerateRandom_m3141592944
uvb:__Z29Transfer_Blittable_ArrayFieldI24GenerateTypeTreeTransfer4AABBEvRT_R9ArrayInfoRK23StaticTransferFieldInfo
Ehf:_Interval_Contains_m1454846757
U9c:_Graphic_CacheCanvas_m1120385152
ite:_InternalEnumerator_1_MoveNext_m1262906009_gshared
P8c:_U3CDelayedDestroyDropdownListU3Ec__Iterator0_Dispose_m100123149
nuj:_emscripten_GetProcAddress
TEi:__ZL25UnresolvedVirtualCall_202P12Il2CppObject23SpriteState_t1362986479PK10MethodInfo
h2f:_List_1_System_Collections_Generic_IEnumerableU3CTU3E_GetEnumerator_m944444416_gshared
Ca:invoke_fiiifii
Jvj:_modff
CYa:__ZN20SphericalHarmonicsL219AddDirectionalLightERKN4math7_float3ERKNS0_7_float4E
Zef:_X509ChainElementCollection_get_IsSynchronized_m3980338507
Kea:__Z26ScheduleJobForEachInternalR8JobFencePFvPvjES1_iPFvS1_E11JobPriority
YKb:__ZZ23InitPlayerLoopCallbacksvEN41PostLateUpdateProfilerEndFrameRegistrator7ForwardEv
Obc:__ZN9Scripting18RaiseMonoExceptionEPKcz
jNc:__ZN2UI13UIInstruction19ClearSharedMeshDataER8JobFence
Q7b:__ZN10GameObject17WillHandleMessageERK17MessageIdentifier
Bmf:_StrongNamePublicKeyBlob_Equals_m3655422942
ynf:_SecurityContext__ctor_m1730177197
aJi:_RectTransformUtility_GetTransposed_m3952754222
U5b:__ZN9ShaderLab16FastPropertyName15InitBy28BitHashEj
bMi:__ZN6il2cpp2vm5Class7GetNameEP11Il2CppClass
L0g:_List_1_System_Collections_IList_set_Item_m4182383657_gshared
IWf:_EqualityComparer_1_System_Collections_IEqualityComparer_GetHashCode_m3723747923_gshared
n$h:_Array_Resize_TisOrderBlock_t1585977831_m3449774576_gshared
TFg:__Z96RuntimeInvoker_Void_t1185182177_Int32_t2950945753_Single_t1397266774_RuntimeObject_RuntimeObjectPFvvEPK10MethodInfoPvPS4_
f5h:_ReadOnlyCollection_1_CopyTo_m3722791265_gshared
NWg:__Z59RuntimeInvoker_Int32_t2950945753_KeyValuePair_2_t3699644050PFvvEPK10MethodInfoPvPS4_
Rve:_Enumerator_System_Collections_IDictionaryEnumerator_get_Key_m195047678_AdjustorThunk
Jvf:_DateTimeFormatInfo_get_RawAbbreviatedMonthNames_m2395953416
QHi:_Canvas_get_pixelPerfect_m333060872
Z9a:__ZN17PackedFloatVector12UnpackFloatsEPfiiii
G_d:_TypeBuilder_ToString_m3497908325
Cz:__ZN17AnimationPlayable28UpdateInternalStateRecursiveILi3ELb0EEEvPK35AnimationPlayableEvaluationConstant
Dsa:__ZN13GfxDeviceGLES21DestroyComputeProgramER12ObjectHandleI18ComputeProgram_TagPvE
Gpi:_PatternCompiler_EmitIfDefined_m2075050865
Nxf:_Decimal_System_IConvertible_ToInt64_m1446427516_AdjustorThunk
xca:__ZN17UniqueIDGenerator16DestroyPureIndexEj
WQd:_NotImplementedException__ctor_m3095902440
W$:__ZL21AppendNestedClassName17ScriptingClassPtrRN4core17string_with_labelILi1EEE
via:__ZN14SafeBinaryRead21TransferSTLStyleArrayINSt3__26vectorIN9ShaderLab20SerializedSubProgram12UAVParameterENS1_9allocatorIS5_EEEEEEvRT_17TransferMetaFlags
LGi:_FontTextureRebuildCallback_Invoke_m3604797831
xta:__ZN13GfxDeviceGLES32InitStereoGlobalsBuffersPlatformEiijPKv
TV:__ZNK13BaseAllocator10IsAssignedEv
AS:__ZN24TextDOMTransferWriteBaseI9JSONWriteE12PushMetaFlagEi
xth:__ZL59_PropertyBuilder_t1366136710_CustomAttributesCacheGeneratorP21CustomAttributesCache
uE:__ZZN8Animator15InitializeClassEvEN31FunctorImpl_420kDidDeleteMotion4CallEPviR11MessageData
iBa:__ZN6prcoreL26RemapGenericIntegerToFloatI17TexFormatARGB888815TexFormatRFloatEEvPKNS_9InnerInfoE
gW:__ZN5Mutex6UnlockEv
xTi:__ZN6il2cpp2vm10ThreadPool10InitializeEv
j4g:_List_1__ctor_m808270210_gshared
rXi:__ZN6il2cpp2vm17TypeNameParseInfoD2Ev
a_f:_PrimeHelper_ToPrime_m3704362632_gshared
YI:__ZN4FMOD7Channel7setModeEj
vxf:_Decimal_System_IConvertible_ToType_m2919262279
izg:_Vector2_get_right_m1027081661
vX:__ZNK8Renderer8GetLayerEv
SLd:_Stream_Close_m771352034
Rte:__ZN21InterfaceFuncInvoker1Ii19TimeSpan_t881159249E6InvokeEjP11Il2CppClassP12Il2CppObjectS0_
Dy:__ZN7mecanim9animation22DestroyBlendTreeOutputEPNS0_15BlendTreeOutputERNS_6memory9AllocatorE
qPb:__ZNK6Camera20GetReplacementShaderEv
j7g:_List_1_System_Collections_IList_Remove_m4226673807_gshared
Lrj:__ZNSt3__26__treeINS_12__value_typeINS_12basic_stringIcNS_11char_traitsIcEENS_9allocatorIcEEEEPFvvEEENS_19__map_value_compareIS7_SA_NS_4lessIS7_EELb1EEENS5_ISA_EEE4findIS7_EENS_15__tree_iteratorISA_PNS_11__tree_nodeISA_PvEEiEERKT_
xya:__ZL23stbir__calculate_memoryP11stbir__info
O_i:__ZNK15dense_hashtableINSt3__24pairIK10KeyWrapperINS1_IPK10MethodInfoP11Il2CppClassEEEjEES9_17ReflectionMapHashIS8_EN14dense_hash_mapIS9_jSD_NS9_14EqualsComparerINS0_8equal_toIS8_EEEENS0_9allocatorISB_EEE9SelectKeyESI_SK_E12test_deletedERK24dense_hashtable_iteratorISB_S9_SD_SM_SI_SK_E
Ogf:_Interpreter_Close_m126356671
Cdh:_Collection_1_InsertItem_m168969280_gshared
BNc:__ZNSt3__227__insertion_sort_incompleteIRPFbPN2UI6CanvasES3_EPS3_EEbT0_S8_T_
s9a:__ZNK6Camera18GetRenderRectangleEv
lQi:__ZN6il2cpp5utils13dynamic_arrayIPK10Il2CppTypeLj4EE7reserveEj
O7a:__ZN13sorted_vectorIN4core12basic_stringIcNS0_20StringStorageDefaultIcEEEENSt3__24lessIS4_EE13stl_allocatorIS4_L18MemLabelIdentifier81ELi16EEE4findIS4_EENS5_11__wrap_iterIPS4_EERKT_
zqi:_Parser_HandleExplicitNumericGroups_m1412234891
f3h:_Array_InternalArray__get_Item_TisRaycastHit2D_t2279581989_m2440275162_gshared
mUd:_CustomAttributeNamedArgument_Equals_m1414002036
iuc:__ZL26Transfer_SimpleNativeClassI8JSONRead10RectOffsetLb1EEvRK29SerializationCommandArgumentsR31RuntimeSerializationCommandInfo
kpg:_Material_SetInt_m475299667
UQc:__Z44CanvasRenderer_CUSTOM_INTERNAL_CALL_SetColorP12Il2CppObjectRK10ColorRGBAf
wXd:_FieldBuilder_GetFieldOffset_m725157755
CAe:_Enumerator_MoveNext_m3045873697_AdjustorThunk
z$f:_Enumerator_System_Collections_IEnumerator_Reset_m959124362_AdjustorThunk
YBf:_Enum_ToObject_m121831801
tFh:__ZL57AsyncOperation_t1445031843_CustomAttributesCacheGeneratorP21CustomAttributesCache
hcd:_Image_get_hasBorder_m3423344180
Zqc:__Z18Transfer_BlittableI9JSONWriteLb1EsEvRK29SerializationCommandArgumentsR31RuntimeSerializationCommandInfo
m2:__ZN6ObjectD2Ev
vcc:__ZN9Transform16SetLocalRotationERK11Quaternionf
o9c:_FontData_set_richText_m993590067
HLb:__ZN13RenderManager37RenderCamerasWithScriptableRenderLoopEi
Pdd:_RuntimeMethodHandle__ctor_m2229201676
lbg:_TimeSpan__ctor_m3689759052
fkh:__ZL49UInt16_t2177724958_CustomAttributesCacheGeneratorP21CustomAttributesCache
tB:__ZN7mecanim8skeleton25SkeletonPoseComputeLocalQEPKNS0_8SkeletonEPKNS0_13SkeletonPoseTIN4math4trsXEEEPS7_ii
J$g:__Z37RuntimeInvoker_Enumerator_t3123848928PFvvEPK10MethodInfoPvPS4_
gej:__ZN6il2cpp2os19ReleaseSocketHandleEj
cO:__ZN11AudioModule16GetDSPSampleRateEv
wjj:__ZN15dense_hashtableINSt3__24pairIK10KeyWrapperIPK19Il2CppGenericMethodEP10MethodInfoEES6_N6il2cpp8metadata23Il2CppGenericMethodHashEN14dense_hash_mapIS6_S9_SD_NS6_14EqualsComparerINSC_26Il2CppGenericMethodCompareEEENS0_9allocatorISA_EEE9SelectKeyESH_SJ_E5clearEv
Z8b:__ZN16PropertyAccessor5ClearEv
xIb:__ZN15InstancingProps11NewConstantERKN9ShaderLab16FastPropertyNameEj15ShaderParamTypehhjjP6Object
mIe:_AsyncResult_get_AsyncDelegate_m3808237550
lcd:_Image_OnBeforeSerialize_m3415525254
XOe:_InputField_get_characterValidation_m4196664041
Dcg:_Type_get_Attributes_m58528356
JPb:__ZN6Camera28DefaultPerformRenderFunctionD0Ev
zjd:_Array_GetUpperBound_m4018715963
joi:_X509Store__ctor_m2736551756
hgj:__ZN6il2cpp2os5posix15PosixWaitObjectC2ENS2_4TypeE
DNb:__ZN6Camera21PostMultiCustomRenderENS_10RenderFlagEb
XPf:_Array_InternalArray__Insert_TisMonoResource_t4103430009_m1997865927_gshared
xkf:_SHA512Managed_HashFinal_m2173184560
Yhf:_RIPEMD160__ctor_m860963627
lIb:__ZN23ShaderVariantCollection13WarmupShadersEv
$Yb:__ZNK4PPtrI8MaterialEptEv
X3b:__ZN13ProduceHelperI9TransformLb0EE7ProduceE10MemLabelId18ObjectCreationMode
bge:_SslStreamBase_Finalize_m3260913635
E$:__Z25GetCommonScriptingClassesv
Zgb:__Z27scripting_gc_collect_unsafei
q8d:_MD5SHA1_HashFinal_m4115488658
hO:__ZN11AudioModule20SuspendVideoTexturesEv
sNf:_Array_InternalArray__ICollection_Add_TisKeyValuePair_2_t71524366_m3468275433_gshared
TAi:_AudioSettings_InvokeOnAudioManagerUpdate_m4044425648
mQ:__Z59Register_UnityEngine_AudioExtensionManager_GetAudioListenerv
iph:__ZL78Calendar_t1661121569_CustomAttributesCacheGenerator_Calendar_Clone_m1356182658P21CustomAttributesCache
Nub:__Z26Transfer_UnityEngineObjectI24GenerateTypeTreeTransferLb0EEvRK29SerializationCommandArgumentsR31RuntimeSerializationCommandInfo
vAd:_Convert_ToDouble_m278900635
kAc:_UNITY_FT_GlyphLoader_CheckPoints
Klg:_DebugLogHandler_LogException_m302830419
SQe:_InputField_LineDownCharacterPosition_m2798128425
_Zf:_PrimeHelper_TestPrime_m2318568626_gshared
noh:__ZL63KeyNotFoundException_t2292407383_CustomAttributesCacheGeneratorP21CustomAttributesCache
rxe:_Enumerator_System_Collections_IDictionaryEnumerator_get_Value_m684446183_AdjustorThunk
xUa:__ZN15SharedLightData7PrecalcEv
N1:__ZN10Matrix4x4fmLERKS_
Cq:__ZN4PPtrI9TransformE8TransferI18StreamedBinaryReadILb0EEEEvRT_
Btg:_Vector2__ctor_m3970636864
jyb:__Z35Transfer_Blittable_FixedBufferFieldI18StreamedBinaryReadILb1EEsEvRK29SerializationCommandArgumentsR31RuntimeSerializationCommandInfo
kR:__ZNK4PPtrI4MeshEdeEv
uCf:_Environment_InternalGetFolderPath_m468390978
YNa:__ZN15ArchiveReadFileD0Ev
fCh:__ZL65StackOverflowException_t3629451388_CustomAttributesCacheGeneratorP21CustomAttributesCache
w3g:_List_1_System_Collections_Generic_ICollectionU3CTU3E_get_IsReadOnly_m2562366358_gshared
t8d:_RSASslSignatureFormatter__ctor_m1299283008
jUc:__ZN11UnityEngine15PlatformWrapper18GetOperatingSystemEv
woa:__ZNSt3__26vectorIP14DataBufferGLESNS_9allocatorIS2_EEE21__push_back_slow_pathIKS2_EEvRT_
gof:_SecurityFrame_ToString_m339310712
ACh:__ZL54ThreadStart_t1006689297_CustomAttributesCacheGeneratorP21CustomAttributesCache
snh:__ZL62ParamArrayAttribute_t3664765590_CustomAttributesCacheGeneratorP21CustomAttributesCache
Muc:__ZN8GUIStyle8TransferI8JSONReadEEvRT_
AJh:__ZL98Transform_t3600365921_CustomAttributesCacheGenerator_Transform_INTERNAL_set_localScale_m1089294020P21CustomAttributesCache
dxi:_GUIStyleState_t1397964415_marshal_pinvoke
vp:__ZN15SerializeTraitsI13dynamic_arrayIiLj4EEE19ResizeSTLStyleArrayERS1_i
D$h:_Array_Resize_TisVector4_t3319028937_m1507893064_gshared
vyh:__ZL94Interlocked_t2273387594_CustomAttributesCacheGenerator_Interlocked_CompareExchange_m3023855514P21CustomAttributesCache
Mjf:_SHA1Managed_HashFinal_m2365675383
c3c:_TouchInputModule_ProcessTouchPress_m3504077560
BZe:_Selectable_IsInteractable_m2611421038
Pzc:_FT_MSB
YVf:_EqualityComparer_1_get_Default_m2572737998_gshared
wGj:_emscripten_glReadPixels__wrapper
r_f:_HashSet_1_Add_m1971460364_gshared
$rj:__ZN6il2cpp6icalls8mscorlib4Mono8Security12Cryptography18KeyPairPersistence10_CanSecureEP12Il2CppString
Y7d:_MD4__ctor_m919379109
BHf:_Array_InternalArray__ICollection_Contains_TisParameterModifier_t1461694466_m1000453323_gshared
Irh:__ZL57FieldAttributes_t400321159_CustomAttributesCacheGeneratorP21CustomAttributesCache
hSf:_Dictionary_2_System_Collections_ICollection_CopyTo_m4047192178_gshared
_Vi:__ZN6il2cpp2os4File11GetFileStatERKNSt3__212basic_stringIcNS2_11char_traitsIcEENS2_9allocatorIcEEEEPNS0_8FileStatEPi
_hf:_RIPEMD160Managed_Initialize_m2173168986
kuh:__ZL54IMessageCtrl_t317049502_CustomAttributesCacheGeneratorP21CustomAttributesCache
H5b:__ZN9TransformC2E10MemLabelId18ObjectCreationMode
Poa:__ZN13GfxDeviceGLES14SetRasterStateEPK17DeviceRasterState
WSd:_Assembly_ToString_m2053237013
fpb:__Z30TransferField_LinearCollectionI14SafeBinaryReadEvRK29SerializationCommandArgumentsR31RuntimeSerializationCommandInfo
Ppg:_Vector4_Equals_m1779210055
hAf:_Exception_set_HResult_m3489164646
eCc:_otv_Coverage_get_count
H2d:_ParameterModifier_t1461694466_marshal_pinvoke_back
E2:__ZN14SafeBinaryRead11EndTransferEv
zYf:_EqualityComparer_1__cctor_m2741186979_gshared
zpb:__ZN14SafeBinaryRead8TransferI8MonoPPtrEEvRT_PKc17TransferMetaFlags
DEh:__ZL70Uri_t100236324_CustomAttributesCacheGenerator_Uri_Unescape_m3373094076P21CustomAttributesCache
NYe:_ScrollRect_set_verticalNormalizedPosition_m1452826170
OBf:_Enum_System_IConvertible_ToUInt16_m4216751959
OQg:__Z61RuntimeInvoker_Boolean_t97287965_PlayableHandleU26_t645981773PFvvEPK10MethodInfoPvPS4_
oGa:__ZN21UniformBufferTFMethod13MapBoneBufferEj
hGi:_StringExtension_Anagram_m968226828
OPf:_Array_InternalArray__Insert_TisInt32_t2950945753_m4073217122_gshared
Bif:_RNGCryptoServiceProvider_RngClose_m3915778345
xyd:_SortedList_Remove_m2784369438
vxa:__ZN4crnd12crn_unpacker10unpack_dxnEPPhjjj
Duf:_DateTime_get_Kind_m2154871796_AdjustorThunk
uFb:__ZN9TextAsset15ThreadedCleanupEv
Zoi:_MatchCollection_get_SyncRoot_m1957585059
m0:__ZN14SerializedFileD2Ev
Lea:__Z21CompleteFenceInternalR8JobFence
Knc:__Z30Event_Get_Custom_PropModifiersP12Il2CppObject
d0g:__Z79RuntimeInvoker_RuntimeObject_OrderBlock_t1585977831_RuntimeObject_RuntimeObjectPFvvEPK10MethodInfoPvPS4_
hu:__ZN7mecanim9animation16CreateClipOutputEPKNS0_4ClipERNS_6memory9AllocatorE
QKe:_SoapAttribute_SetReflectionObject_m4109300849
xVe:_RawImage_get_mainTexture_m2396337033
nYi:__ZN6il2cpp2vm10Reflection17GetAssemblyObjectEPK14Il2CppAssembly
rsf:_DecoderFallbackBuffer_Reset_m3069554060
ZCb:__ZNSt3__218__stable_sort_moveIRN10vector_mapI17ScriptingClassPtrPKN5Unity4TypeENS_4lessIS2_EENS_9allocatorINS_4pairIS2_S6_EEEEE13value_compareENS_11__wrap_iterIPSB_EEEEvT0_SJ_T_NS_15iterator_traitsISJ_E15difference_typeEPNSM_10value_typeE
Zga:__ZN6Shader21AwakeFromLoadThreadedEv
kAa:__ZN6prcoreL17RemapGenericFloatI17TexFormatRGBFloat17TexFormatRGBAHalfEEvPKNS_9InnerInfoE
W1e:_BigInteger__ctor_m3991350270
Xyg:_Vector2_GetHashCode_m3916089713_AdjustorThunk
aZc:__ZN13RuntimeStaticINSt3__26vectorIjNS0_9allocatorIjEEEELb0EE16StaticInitializeEPv
_T:__ZN13UploadHandler10OnSentDataEj
ltj:__ZN6il2cpp2os9SemaphoreC2Eii
Bpb:__ZNSt3__26vectorI8MonoPPtr13stl_allocatorIS1_L18MemLabelIdentifier1ELi16EEE8__appendEj
gOb:__ZN14qsort_internal30FindAndMovePivotToLastPositionIP17RODataReplacementi19ROSorterReplacementEEvT_S4_T0_T1_
zGa:__ZN15UniformTFMethod20IsBoneCountSupportedEi
i6h:_ReadOnlyCollection_1_System_Collections_IList_get_Item_m3076053687_gshared
Qgg:_UnauthorizedAccessException__ctor_m246605039
a5b:__Z12BuildTextureIA4_tPFvP9Texture2DPS0_iiiiEES2_PKcii13TextureFormatRKT0_17TextureColorSpaceb
_zj:dynCall_viidi
Jt:__ZN8Playable18OnApplicationPauseEb
U_:__ZN24ScriptingMethodFiltering17FilterOnSignatureENS_18MethodSearchFilterE
kji:_ListPool_1_U3Cs_ListPoolU3Em__0_m2283646495_gshared
IZb:__ZN18ScreenManagerWebGL13SetLockCursorE14CursorLockMode
xae:_CipherSuite_DecryptRecord_m1495386860
_mi:_X509Certificate_VerifySignature_m3538124832
WLd:_StreamAsyncResult_SetComplete_m1102187093
Esi:_CharacterClass_GetIntervalCost_m4036989868
v3b:__ZN13MonoBehaviour19HandleNotificationsEPviR11MessageData
yug:_RectOffset_Init_m2028508611
Otj:__ZN6il2cpp2os9EventImpl5ResetEv
V5g:_List_1_Sort_m933660666_gshared
B9d:_Alert__ctor_m3135936936
kGd:_Int64_System_IConvertible_ToInt32_m772105781
Rji:_TlsClientSettings__ctor_m3220697265
o0i:__ZNK15dense_hashtableINSt3__24pairIK10KeyWrapperINS1_IPK9EventInfoP11Il2CppClassEEEjEES9_17ReflectionMapHashIS8_EN14dense_hash_mapIS9_jSD_NS9_14EqualsComparerINS0_8equal_toIS8_EEEENS0_9allocatorISB_EEE9SelectKeyESI_SK_E23find_position_with_hashERSA_j
hsi:_CaptureAssertion_set_CapturingGroup_m2003123956
tDj:b58
VRg:__Z103RuntimeInvoker_Boolean_t97287965_RuntimeObject_Vector2_t2156229523_RuntimeObject_Vector2U26_t2376273893PFvvEPK10MethodInfoPvPS4_
zRf:_Dictionary_2_make_pair_m2250450206_gshared
u6f:_ForwardingDecoder_GetChars_m4228908854
hhf:_InterpreterFactory_get_GroupCount_m2226373271
mDj:b53
$Cj:b50
aDj:b51
rDj:b56
sDj:b57
pDj:b54
qDj:b55
p3f:_List_1_System_Collections_IList_get_IsReadOnly_m3531293387_gshared
HL:__ZN4PPtrI15AudioMixerGroupE8TransferI18StreamedBinaryReadILb0EEEEvRT_
Q0e:_SimpleCollator_IsSafe_m310268646
RKf:_Array_InternalArray__IEnumerable_GetEnumerator_TisWorkRequest_t1354518612_m2622205355_gshared
sqd:_Byte_System_IConvertible_ToByte_m162267264_AdjustorThunk
Kjd:_X509Certificate_get_RawData_m2387471414
YEj:_glDetachShader__wrapper
rod:_ArrayTypeMismatchException__ctor_m3375008173
Kye:_Transform_1_BeginInvoke_m1757796657_gshared
OXi:__ZNSt3__214__split_bufferINS_12basic_stringIcNS_11char_traitsIcEENS_9allocatorIcEEEERNS4_IS6_EEEC2EjjS8_
d$f:_KeyValuePair_2__ctor_m1794021352_AdjustorThunk
sWg:__Z88RuntimeInvoker_Int32_t2950945753_UIVertex_t4057497605_UIVertex_t4057497605_RuntimeObjectPFvvEPK10MethodInfoPvPS4_
j7b:__ZN10GameObject12CleanupClassEv
Dpa:__ZN9GfxDevice25SetShaderPropertiesSharedERK19ShaderPropertySheet
X3c:_BaseMeshEffect_get_graphic_m1852367505
Ivd:_CaseInsensitiveHashCodeProvider_GetHashCode_m2168170016
eFb:__ZN10MonoScript17MainThreadCleanupEv
trf:_String_CreateString_m3400201881
bse:_InternalEnumerator_1_Dispose_m28687982_AdjustorThunk
D6b:__ZL25InitializeDefaultMaterialv
tRc:__Z53Register_UnityEngine_CanvasRenderer_get_materialCountv
ZZd:_PropertyBuilder_GetCustomAttributes_m3798356764
zJd:_Stream__ctor_m3881936881
L2d:_PropertyInfo_get_MemberType_m2794839864
GOa:__ZN19FileAccessorHandlerD2Ev
P1f:_Enumerator_Dispose_m2367589020_AdjustorThunk
Nue:_Comparer_1_System_Collections_IComparer_Compare_m4179495191_gshared
jMa:__ZN17PersistentManager12UnloadStreamERKN4core12basic_stringIcNS0_20StringStorageDefaultIcEEEEb
XOa:__ZN10MemoryFile4ReadEyyPvPy
tQf:_Array_InternalArray__Insert_TisUICharInfo_t75501106_m2924156520_gshared
AXf:_EqualityComparer_1_System_Collections_IEqualityComparer_Equals_m3139704160_gshared
iNf:_MonoProperty_GetterAdapterFrame_TisRuntimeObject_TisRuntimeObject_m458718082_gshared
X5a:__ZN13ScreenManager17RequestResolutionEiibi
v4i:_il2cpp_unity_liveness_calculation_from_statics
Qx:__ZNK26AnimatorControllerPlayable11DerivesFromE17ScriptingClassPtr
NKe:_SoapAttribute__ctor_m1857608874
ise:_InternalEnumerator_1_System_Collections_IEnumerator_get_Current_m2649471526_gshared
EWf:_EqualityComparer_1_System_Collections_IEqualityComparer_Equals_m3218482536_gshared
_5:__ZN8Renderer8TransferI17RemapPPtrTransferEEvRT_
zji:_InternalAsyncResult_get_AsyncState_m1436290550
Zie:_InternalEnumerator_1_Dispose_m2018798800_AdjustorThunk
bpa:__ZN13GfxDeviceGLES26UpdateViewProjectionMatrixEv
Nve:_Enumerator_System_Collections_IDictionaryEnumerator_get_Entry_m522483686_gshared
R5e:_PrivateKeyInfo_RemoveLeadingZero_m3921889925
V9f:_Thread_get_CurrentContext_m1695017876
L3h:_Mesh_GetAllocArrayFromChannel_TisColor32_t2600501292_m3180365313_gshared
GXb:__Z24LookRotationToQuaternionRK8Vector3fS1_P11Quaternionf
EXb:__ZN16ReflectionProbes9GetCameraEv
Rma:__ZL18IsGpuProgramUsable20ShaderGpuProgramTypePK6Shader
VPc:__ZN2UI6Canvas17SetSortingLayerIDEi
d4c:_Button_get_onClick_m2332132945
egj:__ZN6il2cpp2vm11MethodStack23CleanupForCurrentThreadEv
E4h:_Collection_1_ConvertItem_m618594517_gshared
wVh:__ZL61Image_t2670269651_CustomAttributesCacheGenerator_m_FillMethodP21CustomAttributesCache
qCd:_Convert_ToUInt64_m388601487
tVa:__ZN20TierGraphicsSettings8TransferI24GenerateTypeTreeTransferEEvRT_
ZPi:__ZN15dense_hashtableINSt3__24pairIK10KeyWrapperIN6il2cpp5utils13dynamic_arrayIPK10Il2CppTypeLj4EEEEPFvvEEESA_NS3_8metadata19Il2CppSignatureHashEN14dense_hash_mapISA_SD_SG_NSA_14EqualsComparerINSF_22Il2CppSignatureCompareEEENS0_9allocatorISE_EEE9SelectKeyESK_SM_E16reset_thresholdsEv
kqg:_Mesh_get_vertices_m3585684815
orb:__ZN14SafeBinaryRead21TransferSTLStyleArrayI13dynamic_arrayI4AABBLj4EEEEvRT_17TransferMetaFlags
Bxg:_TouchScreenKeyboard_get_text_m1797464608
OYb:__ZN26CustomRenderTextureManager25UpdateCustomRenderTextureEP19CustomRenderTexturei
Ofa:__ZNSt3__26__treeINS_12__value_typeIiN11TypeManager18TypeCallbackStructEEENS_19__map_value_compareIiS4_NS_4lessIiEELb1EEENS_9allocatorIS4_EEE7destroyEPNS_11__tree_nodeIS4_PvEE
zXh:__ZL60Slider_t3903728902_CustomAttributesCacheGenerator_m_FillRectP21CustomAttributesCache
UEb:__ZN13MonoBehaviour18TransferEngineDataI24GenerateTypeTreeTransferEE4PPtrI10MonoScriptERT_
XUg:__Z71RuntimeInvoker_Void_t1185182177_CornerU26_t2243868623_Int32_t2950945753PFvvEPK10MethodInfoPvPS4_
zng:_TextureMixerPlayable_Equals_m1074187513_AdjustorThunk
T8b:__ZNK14PlayableOutput23GetSourcePlayableUnsafeEv
gTc:__ZN11UnityEngine7Connect17XRDeviceInfoEventD0Ev
Cuh:__ZL60SoapTypeAttribute_t1750930817_CustomAttributesCacheGeneratorP21CustomAttributesCache
CTd:_Binder_ConvertArgs_m2124461494
PV:__ZN21UnityDefaultAllocatorI17LowLevelAllocatorE10DeallocateEPv
ts:__ZN15PackedIntVector8TransferI14SafeBinaryReadEEvRT_
kzg:_Vector3__ctor_m3353183577_AdjustorThunk
Yke:_InternalEnumerator_1_System_Collections_IEnumerator_get_Current_m1514266661_gshared
p8d:_MD5SHA1_Initialize_m675470944
dOf:_Array_InternalArray__ICollection_Add_TisKeyframe_t4206410242_m442111799_gshared
M4g:_List_1_CheckMatch_m3263549496_gshared
xyh:__ZL58ManualResetEvent_t451242010_CustomAttributesCacheGeneratorP21CustomAttributesCache
X8h:_ReadOnlyCollection_1_System_Collections_IList_get_IsReadOnly_m2041535988_gshared
Lmi:_X509Certificate_set_KeyAlgorithmParameters_m2010117999
AH:__ZN13AudioListener8DoUpdateEv
XFd:_Int32_GetTypeCode_m1648562395_AdjustorThunk
Fzd:__Z13bankers_roundd
Zdb:__ZN14SafeBinaryRead8TransferI5RectTIfEEEvRT_PKc17TransferMetaFlags
ri:_emscripten_glGenFramebuffers
Ifa:__ZN17BaseObjectManager16StaticInitializeEPv
Fha:__ZNSt3__26vectorIN9ShaderLab26SerializedShaderDependencyENS_9allocatorIS2_EEE26__swap_out_circular_bufferERNS_14__split_bufferIS2_RS4_EE
tzh:__ZL80Convert_t2465617642_CustomAttributesCacheGenerator_Convert_ToBoolean_m3613483153P21CustomAttributesCache
H4f:_List_1_CheckCollection_m2602703205_gshared
eKa:__ZN9Behaviour23VirtualRedirectTransferER17RemapPPtrTransfer
Frc:__Z18Transfer_BlittableI9JSONWriteLb0EyEvRK29SerializationCommandArgumentsR31RuntimeSerializationCommandInfo
q_a:__ZN13RenderTexture15ThreadedCleanupEv
Acf:_X509BasicConstraintsExtension__ctor_m3721156175
H1a:__ZN12CubemapArray23VirtualRedirectTransferER14SafeBinaryRead
ORh:__ZL70EventSystem_t1003666588_CustomAttributesCacheGenerator_m_DragThresholdP21CustomAttributesCache
lu:__ZN21AnimationClipPlayable16ProcessHumanPassEPK35AnimationPlayableEvaluationConstantPK32AnimationPlayableEvaluationInputP33AnimationPlayableEvaluationOutput
wId:_Path_GetFileName_m1354558116
c4e:_BitConverterLE_ToDouble_m1601000678
WDj:_emscripten_glUniform3i__wrapper
gug:_Rect_Contains_m1232228501_AdjustorThunk
JEa:__ZN18ProceduralMaterial9ReloadAllEbb
kic:__Z43RectTransform_CUSTOM_INTERNAL_set_sizeDeltaP12Il2CppObjectRK13Vector2fIcall
tGd:_Int64_System_IConvertible_ToType_m3223988955_AdjustorThunk
Wbj:__ZN15dense_hashtableINSt3__24pairIK10KeyWrapperINS1_IPKcS4_EEEiEES6_24NamespaceAndNamePairHashN14dense_hash_mapIS6_iS9_NS6_14EqualsComparerI26NamespaceAndNamePairEqualsEENS0_9allocatorIS8_EEE9SelectKeyESD_SF_E6insertERKS8_
X5:__ZN24GenerateTypeTreeTransfer18BeginArrayTransferEPKcS1_Ri17TransferMetaFlags
d3h:_Array_InternalArray__get_Item_TisPlayableBinding_t354260709_m3837494573_gshared
om:___syscall51
smc:__Z26BeforeDomainReloadCallbackv
Voi:_MatchCollection_get_FullList_m1829231879
sm:___syscall54
tCi:__ZL24UnresolvedVirtualCall_68P12Il2CppObject17OpCode_t123070264S0_PK10MethodInfo
gnd:_Array_GetValue_m2528415604
luh:__ZL55IMessageSink_t2514424906_CustomAttributesCacheGeneratorP21CustomAttributesCache
Jkf:_SymmetricAlgorithm_Clear_m3302238152
ovg:_Transform_INTERNAL_CALL_TransformPoint_m4261269221
BGf:_Guid_AppendShort_m791023083
VSh:__ZL109PointerEventData_t3807901092_CustomAttributesCacheGenerator_PointerEventData_get_eligibleForClick_m3788762543P21CustomAttributesCache
g5g:_List_1__ctor_m4212503576_gshared
Z7f:_UTF32Encoding_GetBytes_m2832872594
_na:__ZN9ShaderLab9SubShader19CreateFromSubShaderERKS0_
Mwb:__Z18Transfer_BlittableI19StreamedBinaryWriteILb0EELb1EjEvRK29SerializationCommandArgumentsR31RuntimeSerializationCommandInfo
lAc:_cff_builder_add_point1
ddj:__ZN6il2cpp2vm5Image21GetCachedResourceDataEPK11Il2CppImageRKNSt3__212basic_stringIcNS5_11char_traitsIcEENS5_9allocatorIcEEEE
iob:__Z18Transfer_BlittableI14SafeBinaryReadLb0E10ColorRGBAfEvRK29SerializationCommandArgumentsR31RuntimeSerializationCommandInfo
za:invoke_iiiiiiiiii
emg:_DrivenRectTransformTracker_Clear_m371772582
OP:__ZN11AudioSource25GetNumExtensionPropertiesEv
pPf:_Array_InternalArray__ICollection_CopyTo_TisUILineInfo_t4195266810_m104406798_gshared
SN:__ZNK7Texture10GetVRUsageEv
xsd:_Char_ToLowerInvariant_m1926695830
VTf:_DefaultComparer__ctor_m41012692_gshared
wlg:_Debug_LogErrorFormat_m3558239521
Q9c:_Graphic_get_canvas_m3320066409
pQe:_InputField_ActivateInputFieldInternal_m3360893886
D9g:_List_1_Insert_m1781696722_gshared
fG:__ZN4FMOD7SystemI11createSoundEPKcjP22FMOD_CREATESOUNDEXINFOPPNS_5SoundE
Q$b:__ZN10FileSystem19SetCurrentDirectoryERKN4core12basic_stringIcNS0_20StringStorageDefaultIcEEEE
Ekg:_Component_get_gameObject_m442555142
COd:_Math_Log_m2526073084
Pec:__Z47Register_UnityEngine_Coroutine_ReleaseCoroutinev
lI:__ZN15AudioReverbZone13SetFMODValuesEv
GZ:__ZN14SafeBinaryRead4InitERK16TypeTreeIteratorxx24TransferInstructionFlags10MemLabelId
Tga:__ZL19StaticDestroyShaderPv
ae:_glRenderbufferStorageMultisample
C8b:__ZN8Playable4PlayEv
Zxd:_SyncHashtable_Clone_m3726939774
$y:__ZN23AnimationPlayableOutput17SetTargetAnimatorEP8Animator
Xrh:__ZL62ParameterAttributes_t1826424051_CustomAttributesCacheGeneratorP21CustomAttributesCache
atc:__ZN9JSONWrite8TransferI13dynamic_arrayIN4math12int3_storageELj4EEEEvRT_PKc17TransferMetaFlags
wQb:__ZN22MotionVectorRenderLoopD2Ev
SKd:_MemoryStream_get_CanRead_m1639425566
ylg:_Debug_LogException_m2207318968
ysf:_DecoderReplacementFallback_GetHashCode_m1611165826
Ccd:_Image_get_minWidth_m755066479
BJj:_pthread_cond_broadcast__wrapper
mNf:_Array_InternalArray__ICollection_Add_TisClientCertificateType_t1004704908_m2622721177_gshared
Bs:__ZN17PackedFloatVector8TransferI18StreamedBinaryReadILb0EEEEvRT_
I2a:__ZN7Cubemap23VirtualRedirectTransferER17RemapPPtrTransfer
Pkc:__Z37Register_UnityEngine_Screen_get_widthv
jui:_Uri_get_Authority_m3816772302
R9b:__ZN22BlockMemoryCacheWriter11GetPathNameEv
Vbf:_X509BasicConstraintsExtension__ctor_m1244152959
sxg:_Touch_get_position_m3109777936
W1d:_ParameterInfo__ctor_m3269320476
Bff:_X509SubjectKeyIdentifierExtension_FromHexChars_m3244835916
Tof:_Single_CompareTo_m2785801815
Jli:_PKCS12_MAC_m3355614022
ouh:__ZL63IMethodReturnMessage_t3705538073_CustomAttributesCacheGeneratorP21CustomAttributesCache
_o:stackAlloc
hfc:__Z44Camera_CUSTOM_INTERNAL_CALL_ScreenPointToRayP12Il2CppObjectRK8Vector3fR3Ray
hPa:__ZN25SingleBlockMemoryFileData4LockEPPv
jlb:__ZN12HandlerChain5TouchER13FileEntryData
BHj:_glProgramParameteri__wrapper
ybi:_ReadOnlyCollection_1_System_Collections_Generic_ICollectionU3CTU3E_get_IsReadOnly_m1215739200_gshared
BZ:__ZN17PersistentManager23PostReadActivationQueueEiPK8TypeTreeb
Mhg:_AnimationCurve_t3046754366_marshal_pinvoke
Mgc:__Z32RectOffset_Get_Custom_PropBottomP12Il2CppObject
slg:_Debug_LogError_m2850623458
qhh:_Collection_1_CheckWritable_m3225530705_gshared
$Hj:_emscripten_glGetObjectParameterivARB__wrapper
LYh:__ZL74LayoutElement_t1785403678_CustomAttributesCacheGenerator_m_PreferredHeightP21CustomAttributesCache
Vvj:_stat
q4:__ZN9ShaderLab10SubProgram7CompileEv
zIb:__ZN15InstancingProps14CombineBuiltinEN10Instancing11BuiltinPropES1_S1_
G5g:_List_1_Contains_m353222571_gshared
SZd:_PropertyBuilder_get_CanRead_m3783190070
p0:__ZN14SerializedFile14SerializedTypeD2Ev
kCh:__ZL64ThreadStaticAttribute_t3840787420_CustomAttributesCacheGeneratorP21CustomAttributesCache
tNf:_Array_InternalArray__ICollection_Add_TisKeyValuePair_2_t3699644050_m4052349323_gshared
Kae:_CipherSuiteCollection_System_Collections_IList_get_Item_m2175128671
dSa:__ZN6CameraD2Ev
la:invoke_iiiiiiiiiiii
huf:_DateTime_System_IConvertible_ToType_m1242864300_AdjustorThunk
DBe:_ValueCollection_get_Count_m994935123_gshared
sre:_InternalEnumerator_1_get_Current_m2446410893_AdjustorThunk
cWa:__Z29CalculateDefaultChannelsToAdd17ShaderChannelMaskS_
dMh:__ZL89PlayableBinding_t354260709_CustomAttributesCacheGenerator_U3CstreamTypeU3Ek__BackingFieldP21CustomAttributesCache
IRa:__ZN10TagManager13RegisterLayerEjRKN4core12basic_stringIcNS0_20StringStorageDefaultIcEEEE
lIa:__ZNSt3__26__treeI20DeviceBlendStateGLES14MemoryCompLessI16DeviceBlendStateENS_9allocatorIS1_EEE7destroyEPNS_11__tree_nodeIS1_PvEE
AIi:_CanvasRenderer_SetMaterial_m633746949
hL:__ZN10AudioMixer12RebindOutputEv
Q5i:__ZNK15dense_hashtableINSt3__24pairIK10KeyWrapperIP11Il2CppClassES4_EES5_N6il2cpp8metadata16SZArrayClassHashEN14dense_hash_mapIS5_S4_SA_NS5_14EqualsComparerINS9_19SZArrayClassCompareEEENS0_9allocatorIS7_EEE9SelectKeyESE_SG_E5beginEv
dle:_InternalEnumerator_1__ctor_m819716934_gshared
tTe:_LayoutRebuilder_PerformLayoutControl_m4241054021
BLi:__ZN6il2cpp2vm17SetupFieldsLockedEP11Il2CppClassRKNS_2os12FastAutoLockE
fTe:_U3CDelayedSetDirtyU3Ec__Iterator0_System_Collections_IEnumerator_get_Current_m3096581881
lHb:__ZNK9GfxDevice20IsViewportFullscreenEv
Iye:_Transform_1__ctor_m2638607165_gshared
ZCa:__ZN18GlslGpuProgramGLES13SwitchProgramEj
VPa:__ZN20ArchiveStorageReaderC2E10MemLabelId
jCg:__Z132RuntimeInvoker_Int32_t2950945753_RuntimeObject_Int32_t2950945753_Int32_t2950945753_RuntimeObject_Int32_t2950945753_Int32_t2950945753PFvvEPK10MethodInfoPvPS4_
Bmb:__ZN16MemoryFileSystem4NameEv
qof:_Single_System_IConvertible_ToBoolean_m1716619219_AdjustorThunk
Kkc:__Z13SetCopyBufferRKN4core12basic_stringIcNS_20StringStorageDefaultIcEEEE
p0f:_Enumerator_get_Current_m2468920150_AdjustorThunk
hki:_TlsException__ctor_m818940807
Yjd:_X509CertificateEnumerator_System_Collections_IEnumerator_get_Current_m418791713
KKc:_UNITY_FT_New_Size
ddc:__Z42ScriptingGetComponentsOfTypeFromGameObjectRK26ScriptingGetComponentsArgs
qdi:_Func_3_BeginInvoke_m2985061395_gshared
oLh:__ZL73ArgumentCache_t2187958399_CustomAttributesCacheGenerator_m_ObjectArgumentP21CustomAttributesCache
llg:_StateChanged_EndInvoke_m3313423087
L0h:_Array_swap_TisRaycastResult_t3360306849_TisRaycastResult_t3360306849_m3400922624_gshared
wAi:_AudioListener_ReadExtensionName_m929423100
Ifd:_CspParameters__ctor_m2741097571
oWd:_EnumBuilder_get_DeclaringType_m4266754303
Q0a:__ZNSt3__27__sort4IRPFbRKNS_4pairIN9ShaderLab16FastPropertyNameEN18UnityPropertySheet11UnityTexEnvEEES8_EPS6_EEjT0_SD_SD_SD_T_
Lqi:_Assertion_get_TrueExpression_m2743006331
jzc:_cf2_hintmap_build
cxg:_Texture_get_width_m888163864
sIc:_Line_Up
Yzb:__Z29Transfer_Blittable_ArrayFieldI18StreamedBinaryReadILb1EExEvRT_R9ArrayInfoRK23StaticTransferFieldInfo
r$h:_Array_Resize_TisRaycastResult_t3360306849_m1277390301_gshared
he:_emscripten_glBufferSubData
Rqf:_String_ReplaceUnchecked_m1381393810
s6e:_SymmetricTransform_CBC_m435753239
Ssb:__Z18Transfer_BlittableI17RemapPPtrTransferLb1EyEvRK29SerializationCommandArgumentsR31RuntimeSerializationCommandInfo
rYh:__ZL76ContentSizeFitter_t3850442145_CustomAttributesCacheGenerator_m_HorizontalFitP21CustomAttributesCache
Wte:_DefaultComparer_Compare_m3278268937_gshared
Rp:__Z17CalculateGlobalRS23TransformAccessReadOnly
M_i:__ZN24dense_hashtable_iteratorINSt3__24pairIK10KeyWrapperINS1_IPK10MethodInfoP11Il2CppClassEEEjEES9_17ReflectionMapHashIS8_EN14dense_hash_mapIS9_jSD_NS9_14EqualsComparerINS0_8equal_toIS8_EEEENS0_9allocatorISB_EEE9SelectKeyESI_SK_E30advance_past_empty_and_deletedEv
yqj:__ZNSt3__210__list_impIPN6il2cpp5utils10MemoryPool6RegionENS_9allocatorIS5_EEE5clearEv
CDi:__ZL25UnresolvedVirtualCall_131P12Il2CppObject19Vector2_t2156229523S0_PK10MethodInfo
_Yc:__ZN13RuntimeStaticINSt3__26vectorIN5physx25PxVehicleWheelQueryResultENS0_9allocatorIS3_EEEELb0EE16StaticInitializeEPv
krb:__ZN14SafeBinaryRead21TransferSTLStyleArrayI13dynamic_arrayI9BoundsIntLj4EEEEvRT_17TransferMetaFlags
Tib:__ZN22MemoryCacherReadBlocks14LockCacheBlockEjPPhS1_
XLd:_StreamAsyncResult_get_NBytes_m548041729
aXi:__ZN6il2cpp2vm14TypeNameParser17ParseAssemblyNameEv
n9a:__ZNK9GfxDevice26GetSinglePassStereoEyeMaskEv
Hlg:_DebugLogHandler_Internal_Log_m4175774469
Gkj:__ZN4utf88internal15increase_safelyIPKcEENS0_9utf_errorERT_S5_
CLi:__ZN6il2cpp2vmL21SetupPropertiesLockedEP11Il2CppClassRKNS_2os12FastAutoLockE
Bnf:_SecurityContext_get_CompressedStack_m3401528670
ZJc:__ZN20TextRenderingPrivate8FontImpl16CacheFontForTextEPtiifjPK13dynamic_arrayINS_16TextFormatChangeELj4EE
Isd:_CharEnumerator_get_Current_m525608209
roe:_InternalEnumerator_1_Dispose_m887344916_AdjustorThunk
F_c:__Z21ArrayElementTypeCheckP11Il2CppArrayPv
GGj:_emscripten_glTexSubImage2D__wrapper
$zf:_StackTrace_init_frames_m641783388
ncf:_PublicKey_DecodeRSA_m1824703659
Nxj:__ZNSt3__212basic_stringIcNS_11char_traitsIcEENS_9allocatorIcEEE6appendEjc
PCb:__Z13TransferFieldI18StreamedBinaryReadILb0EELb0E16Converter_StringEvRK23StaticTransferFieldInfoR31RuntimeSerializationCommandInfoRT1_
zSc:__Z42Register_UnityEngine_Canvas_get_rootCanvasv
rzh:__ZL78Convert_t2465617642_CustomAttributesCacheGenerator_Convert_ToBoolean_m40300963P21CustomAttributesCache
Etd:_ArrayListWrapper_set_Item_m3849584877
Qe:_TTF_RenderText_Solid
b3f:_List_1__ctor_m3947764094_gshared
Mjh:__ZL52IComparable_t36111218_CustomAttributesCacheGeneratorP21CustomAttributesCache
ati:_Parser_IsIgnorePatternWhitespace_m2107132682
z9e:_HttpRequestCreator_Create_m400548686
SWc:__ZN11UnityEngine7Connect16PersistentValuesC2Ev
ZHg:__Z49RuntimeInvoker_RuntimeObject_StringU26_t181565287PFvvEPK10MethodInfoPvPS4_
zai:_ReadOnlyCollection_1_System_Collections_IList_Insert_m134149130_gshared
jrc:__Z18Transfer_BlittableI9JSONWriteLb0E5RectTIiEEvRK29SerializationCommandArgumentsR31RuntimeSerializationCommandInfo
_1e:_BigInteger_get_Rng_m4216817480
syc:_cf2_getStdVW
rIf:_Array_InternalArray__ICollection_Remove_TisDateTime_t3738529785_m2250893026_gshared
Ewh:__ZL67RijndaelManagedTransform_t4102601014_CustomAttributesCacheGeneratorP21CustomAttributesCache
pDa:__Z15IsIEEE754Format14GraphicsFormat
etb:__Z19TransferField_ArrayI17RemapPPtrTransfer27Converter_UnityEngineObjectEvRK23StaticTransferFieldInfoR31RuntimeSerializationCommandInfoRT0_
Za:invoke_iifiii
vwd:_KeyNotFoundException__ctor_m541499307
vba:__ZN13RuntimeStaticINSt3__23mapIN4core12basic_stringIcNS2_20StringStorageDefaultIcEEEES6_NS0_4lessIS6_EE13stl_allocatorINS0_4pairIKS6_S6_EEL18MemLabelIdentifier13ELi16EEEELb0EE16StaticInitializeEPv
NJf:_SetPropertyUtility_SetStruct_TisSpriteState_t1362986479_m665096788_gshared
FCg:__Z61RuntimeInvoker_Single_t1397266774_RuntimeObject_RuntimeObjectPFvvEPK10MethodInfoPvPS4_
uoi:_Enumerator__ctor_m1228633090
xIf:_Array_InternalArray__ICollection_Remove_TisIntPtr_t_m3807208150_gshared
oPg:__Z71RuntimeInvoker_Void_t1185182177_Vector3_t3722313464_Vector3_t3722313464PFvvEPK10MethodInfoPvPS4_
aoe:_InternalEnumerator_1_get_Current_m2316281569_AdjustorThunk
ktf:_DateTime__ctor_m1095105629
Yqa:__ZN13GfxDeviceGLES15UploadTexture2DE9TextureID16TextureDimensionPKhiii14GraphicsFormati18TextureUploadFlags16TextureUsageMode
XZg:__Z41RuntimeInvoker_KeyValuePair_2_t3699644050PFvvEPK10MethodInfoPvPS4_
Qui:_Event_Cleanup_m2477919477
dK:__ZN4FMOD6System9createDSPEP20FMOD_DSP_DESCRIPTIONPPNS_3DSPE
Nyh:__ZL87Thread_t2300836069_CustomAttributesCacheGenerator_Thread_GetCompressedStack_m2923422412P21CustomAttributesCache
rwg:_HitInfo_t3229609740_marshal_pinvoke_back
Tfe:_SslClientStream_get_ClientCertificates_m998716871
kEe:__ZN21InterfaceFuncInvoker0IP8String_tE6InvokeEjP11Il2CppClassP12Il2CppObject
dG:__ZN4FMOD8ChannelI11EndCallbackEv
nnc:__ZN8GUIStyle14SetDefaultFontEPN13TextRendering4FontE
O4f:_List_1_ToArray_m2860284581_gshared
p5a:__ZN15QualitySettings23VirtualRedirectTransferER24GenerateTypeTreeTransfer
vNe:_ObjectReader_ReadValue_m3145979203
mAg:_TypeInferenceRuleAttribute_ToString_m4089326196
M4c:_CanvasScaler_OnDisable_m3424669401
Mze:_Transform_1_BeginInvoke_m500585065_gshared
Ita:__ZThn9568_N13GfxDeviceGLES32InitStereoGlobalsBuffersPlatformEiijPKv
IWh:__ZL68Scrollbar_t1494447233_CustomAttributesCacheGenerator_m_NumberOfStepsP21CustomAttributesCache
wXe:_ScrollRect_set_content_m321343743
mOi:__ZN30dense_hashtable_const_iteratorINSt3__24pairIK10KeyWrapperIPK19Il2CppGenericMethodEPK26Il2CppGenericMethodIndicesEES6_N6il2cpp8metadata23Il2CppGenericMethodHashEN14dense_hash_mapIS6_SA_SE_NS6_14EqualsComparerINSD_26Il2CppGenericMethodCompareEEENS0_9allocatorISB_EEE9SelectKeyESI_SK_EppEv
Yxc:_UNITY_FT_Request_Metrics
_Za:__ZN7Texture8TransferI18StreamedBinaryReadILb0EEEEvRT_
Raj:__ZN6il2cpp6icalls8mscorlib6System10Reflection10MonoMethod29get_IsGenericMethodDefinitionEP22Il2CppReflectionMethod
k7i:__ZN6il2cpp2vm6Thread21AllocThreadStaticDataEi
CRh:__ZL63AnalyticsSessionState_t681173134_CustomAttributesCacheGeneratorP21CustomAttributesCache
mFf:_NumberFormatInfo_get_PercentNegativePattern_m1304634118
HTd:_Default_SelectMethod_m469311730
log:_Input_get_mousePosition_m1616496925
Qn:FUNCTION_TABLE_difi
Cjj:__ZN30dense_hashtable_const_iteratorINSt3__24pairIK10KeyWrapperIPK19Il2CppGenericMethodEP10MethodInfoEES6_N6il2cpp8metadata23Il2CppGenericMethodHashEN14dense_hash_mapIS6_S9_SD_NS6_14EqualsComparerINSC_26Il2CppGenericMethodCompareEEENS0_9allocatorISA_EEE9SelectKeyESH_SJ_EppEv
Nfg:_UInt32_ToString_m2066897296_AdjustorThunk
$O:__Z13RegisterClassI13AudioListenerEvv
pjb:__ZN24GenerateTypeTreeTransfer19TransferSTLStyleMapINSt3__23mapI4PPtrI6ShaderEN4core12basic_stringIcNS6_20StringStorageDefaultIcEEEENS1_4lessIS5_EENS1_9allocatorINS1_4pairIKS5_SA_EEEEEEEEvRT_17TransferMetaFlags
Mwd:_Enumerator_Reset_m4274366540
Iqc:__Z18Transfer_BlittableI9JSONWriteLb0E8Vector3fEvRK29SerializationCommandArgumentsR31RuntimeSerializationCommandInfo
qca:__ZN13RuntimeStaticI17UniqueIDGeneratorLb0EE13StaticDestroyEPv
Pf:_emscripten_glUniform4i
gCc:_otv_FeatureList_validate
$e:_emscripten_glUniform4f
yj:___unlock
zmj:_GC_default_oom_fn
oBc:_otv_validate
k_b:__ZN13sorted_vectorINSt3__24pairIN4core12basic_stringIcNS2_20StringStorageDefaultIcEEEES6_EEN10vector_mapIS6_S6_27compare_tstring_insensitiveIS6_E13stl_allocatorIS7_L18MemLabelIdentifier38ELi16EEE13value_compareESD_E9erase_oneIS6_EEjRKT_
iUf:_DefaultComparer__ctor_m963958896_gshared
Slf:_X509Certificate_Equals_m3784196370
W8g:_List_1__ctor_m3376067838_gshared
xM:__ZN20SoundChannelInstance19setReverbPropertiesEP29FMOD_REVERB_CHANNELPROPERTIES
h1f:_Enumerator_MoveNext_m1446151600_gshared
Gjf:_SHA1Internal_ProcessFinalBlock_m1403775421
PQh:__ZL87Canvas_t3310196443_CustomAttributesCacheGenerator_Canvas_get_sortingLayerID_m3685979122P21CustomAttributesCache
KBh:__ZL69Math_t1671470975_CustomAttributesCacheGenerator_Math_Sqrt_m1297338011P21CustomAttributesCache
rkc:__Z40Register_UnityEngine_Transform_IsChildOfv
FLe:_RemotingServices_GetOrCreateClientIdentity_m648299611
ute:_InternalEnumerator_1_get_Current_m2356858238_AdjustorThunk
Xfc:__Z45Register_UnityEngine_Display_GetSystemExtImplv
f6e:_RSAManaged_ImportParameters_m1844641996
prh:__ZL67AssemblyProductAttribute_t1000945320_CustomAttributesCacheGeneratorP21CustomAttributesCache
BJa:__ZN9GfxDevice31DrawIndexedNullGeometryIndirectE16GfxPrimitiveTypeP9GfxBuffer15ComputeBufferIDj
Uve:_Enumerator_System_Collections_IDictionaryEnumerator_get_Value_m3325938730_AdjustorThunk
lv:__ZN7mecanim9animation23TransformValuesFromClipEiiiRKNS_10ValueArrayERKNS0_10ClipOutputERKNS0_12ClipBindingsERS1_RNS_14ValueArrayMaskEb
O_h:_Array_qsort_TisOrderBlock_t1585977831_TisOrderBlock_t1585977831_m1675918557_gshared
ABe:_ValueCollection_System_Collections_ICollection_get_SyncRoot_m1114275063_gshared
mKi:__ZL17log2withScale_128yyi
rGf:_Guid_Equals_m1866984197
EOc:__ZNSt3__218__insertion_sort_3IRNS_6__lessIN2UI14DepthSortEntryES3_EEPS3_EEvT0_S7_T_
bxe:_Enumerator__ctor_m65667165_gshared
oSd:_PlatformNotSupportedException__ctor_m1787918017
Gda:__ZN13RuntimeStaticI15DirectorManagerLb0EE16StaticInitializeEPv
F7h:_ReadOnlyCollection_1_System_Collections_ICollection_CopyTo_m2643246984_gshared
Lcb:__ZN11TimeManager6UpdateEv
Z1f:_Enumerator_System_Collections_IEnumerator_get_Current_m209407522_gshared
Gdd:_StreamingContext_GetHashCode_m2281950854_AdjustorThunk
Gje:_InternalEnumerator_1__ctor_m619554185_AdjustorThunk
F4c:_CanvasScaler_get_fallbackScreenDPI_m2811935689
XLe:_WellKnownServiceTypeEntry_get_ObjectUri_m560402900
auf:_DateTimeFormatInfo_ReadOnly_m890935083
x9h:_ReadOnlyCollection_1_System_Collections_ICollection_get_SyncRoot_m1280260618_gshared
Glj:__ZN6il2cpp2vm3CCW9CreateCCWEP12Il2CppObject
awj:_fflush
G3:__ZN17LightProbeContext4InitERK16LightmapSettingsRK14RenderSettings
oFg:__Z82RuntimeInvoker_Int32_t2950945753_RuntimeObject_Int32_t2950945753_SByte_t1669577662PFvvEPK10MethodInfoPvPS4_
DTb:__ZN18DeferredRenderLoop14RenderLightingER21ActiveLightingContextP13RenderTexture9TextureIDPS3_iRK8Vector4fRK14LightingLayersR10MinMaxAABBb12ObjectHandleI17RenderSurface_TagP17RenderSurfaceBaseE
_vg:_SceneManager_Internal_ActiveSceneChanged_m3676176255
bni:_X509Certificate_GetIssuerName_m1142198382
Jsi:_ExpressionAssertion_set_Negate_m1236561973
zAf:_Double_System_IConvertible_ToInt16_m3591921965
y8a:__ZN9Texture3DD2Ev
Yhh:_Collection_1_set_Item_m4280581817_gshared
Vbd:_Image_get_fillMethod_m1027254375
DXh:__ZL60Slider_t3903728902_CustomAttributesCacheGenerator_m_MaxValueP21CustomAttributesCache
l7:__ZN10ColorRGBAf8TransferI19StreamedBinaryWriteILb0EEEEvRT_
ryh:__ZL97CompressedStack_t1202932761_CustomAttributesCacheGenerator_CompressedStack_CreateCopy_m2591279216P21CustomAttributesCache
Xzd:_Convert_ToChar_m2796006345
sQf:_Array_InternalArray__Insert_TisContentType_t1787303396_m3566390691_gshared
qEi:__ZL25UnresolvedVirtualCall_173P12Il2CppObject39CustomAttributeNamedArgument_t287865710S1_PK10MethodInfo
$fj:__ZNSt3__26vectorI20Il2CppStackFrameInfoNS_9allocatorIS1_EEE7reserveEj
uuh:__ZL82MethodDictionary_t207894204_CustomAttributesCacheGenerator_U3CU3Ef__switchU24map21P21CustomAttributesCache
Ztd:_ArrayListWrapper_GetEnumerator_m2336495952
VVb:__Z34ProcessIndexListIsNodeVisibleStep2RK22SceneCullingParametersPK9SceneNodePK4AABBR9IndexList
cFb:__ZN10MonoScriptD2Ev
Dza:__ZN6prcoreL12RemapGenericI17TexFormatARGB888817TexFormatBGRA8888EEvPKNS_9InnerInfoE
mHa:__ZN19ConstantBuffersGLES8UpdateCBE5CbKeyPKvj
m4c:_U3COnFinishSubmitU3Ec__Iterator0_System_Collections_Generic_IEnumeratorU3CobjectU3E_get_Current_m2586882303
aAi:_AudioSource_get_spatializeInternal_m2117549793
hhc:__Z39Input_CUSTOM_INTERNAL_get_mousePositionP8Vector3f
cnd:_SimpleEnumerator__ctor_m353509656
VDc:_tt_cmap13_char_next
QRh:__ZL117EventSystem_t1003666588_CustomAttributesCacheGenerator_EventSystem_t1003666588____lastSelectedGameObject_PropertyInfoP21CustomAttributesCache
Xna:__ZN9ShaderLab4Pass16SetupPassOptionsEv
B8g:_List_1_GetIndex_m1042356532_gshared
dh:_JS_Sound_ReleaseInstance
Vpa:__ZN13GfxDeviceGLES19DrawBuffersIndirectEP9GfxBufferPK18VertexStreamSourceiP17VertexDeclaration17ShaderChannelMask16GfxPrimitiveType15ComputeBufferIDj
dGf:_Guid_CheckArray_m921056615
wFe:_ConfigHandler_ReadLifetine_m208994800
GVc:__ZN20UnityConnectSettings16CheckConsistencyEv
r_i:__ZNK15dense_hashtableINSt3__24pairIK10KeyWrapperINS1_IPK10MethodInfoP11Il2CppClassEEEjEES9_17ReflectionMapHashIS8_EN14dense_hash_mapIS9_jSD_NS9_14EqualsComparerINS0_8equal_toIS8_EEEENS0_9allocatorISB_EEE9SelectKeyESI_SK_E12test_deletedEj
aeg:_UInt16_System_IConvertible_ToByte_m3185614807_AdjustorThunk
Dfe:_SecurityParameters_set_ServerWriteMAC_m3003817350
fCb:__Z29Transfer_Blittable_ArrayFieldI18StreamedBinaryReadILb0EEaEvRT_R9ArrayInfoRK23StaticTransferFieldInfo
Mtg:_Rect_get_max_m350137314_AdjustorThunk
Cm:FUNCTION_TABLE_diddi
x7i:__ZN6il2cpp6icalls8mscorlib6System5Array8FastCopyEP11Il2CppArrayiS5_ii
Bic:__Z26Material_CUSTOM_SetIntImplP12Il2CppObjectii
TZa:__Z32TransferEnumWithNameForceIntSizeI14SafeBinaryRead15TextureWrapModeEvRT_RT0_PKc17TransferMetaFlags
wUi:__ZNSt3__26vectorIPK10MethodInfoNS_9allocatorIS3_EEE21__push_back_slow_pathIRKS3_EEvOT_
PVg:__Z54RuntimeInvoker_Boolean_t97287965_LabelFixup_t858502054PFvvEPK10MethodInfoPvPS4_
S6b:__ZN8GUILayerD2Ev
C6g:_List_1_Clear_m2244610185_gshared
Zgc:__Z42Register_UnityEngine_RectOffset_get_bottomv
Jph:__ZL55BinaryReader_t2428077293_CustomAttributesCacheGeneratorP21CustomAttributesCache
Dvj:_newlocale
XRd:_ObjectDisposedException_get_Message_m1666887471
lrb:__ZN9BoundsInt8TransferI14SafeBinaryReadEEvRT_
KEj:_emscripten_glUniform1f__wrapper
Jzj:dynCall_di
Ljd:_X509Certificate_get_SubjectName_m3160893681
smg:_BaseInvokableCall_AllowInvoke_m878393606
yEi:__ZL25UnresolvedVirtualCall_181P12Il2CppObject19Vector2_t2156229523S1_PK10MethodInfo
pqc:__Z28RegisterModule_JSONSerializev
J4i:_il2cpp_monitor_enter
Jjb:__ZN2UI13RectTransform8TransferI14SafeBinaryReadEEvRT_
Brc:__Z35Transfer_Blittable_FixedBufferFieldI9JSONWriteaEvRK29SerializationCommandArgumentsR31RuntimeSerializationCommandInfo
Lig:_Behaviour_get_enabled_m753527255
obc:__Z20IsHumanControllingUsv
MAe:_Enumerator_MoveNext_m181298207_gshared
g_g:__Z44RuntimeInvoker_ParameterModifier_t1461694466PFvvEPK10MethodInfoPvPS4_
EW:__ZNK20DynamicHeapAllocatorI17LowLevelAllocatorE10GetPtrSizeEPKv
i9g:_List_1_System_Collections_IList_get_IsReadOnly_m3278465421_gshared
Dph:__ZL51TextInfo_t3810425522_CustomAttributesCacheGeneratorP21CustomAttributesCache
yMa:__ZN10systeminfo21GetPersistentDataPathEv
Uxi:_SymmetricTransform_get_KeepLastBlock_m2492071306
Ipa:__ZN13GfxDeviceGLES17DestroyGpuProgramEPK10GpuProgram
s_h:_Array_InternalArray__set_Item_TisRaycastResult_t3360306849_m730888808_gshared
Hnb:__Z44InitializeTransferFunctionScriptingTraitsForI18StreamedBinaryReadILb0EEEvR31TransferFunctionScriptingTraits
nAe:_Enumerator_System_Collections_IEnumerator_Reset_m53411943_gshared
ZRb:__ZNSt3__218__insertion_sort_3IR23CompareReflectionProbesP31RuntimeReflectionProbeBlendInfoEEvT0_S5_T_
otb:__ZN12NativeBufferI27Converter_SimpleNativeClassI8GradientEE15SetupForWritingER9ArrayInfo
G2e:_Kernel_RightShift_m2207393597
oga:__ZNSt3__213__stable_sortIRNS_4lessIN4core12basic_stringIcNS2_20StringStorageDefaultIcEEEEEENS_11__wrap_iterIPS6_EEEEvT0_SC_T_NS_15iterator_traitsISC_E15difference_typeEPNSF_10value_typeEi
NZh:__ZL48Shadow_t773074319_CustomAttributesCacheGeneratorP21CustomAttributesCache
i8:__ZN12_GLOBAL__N_113StaticDestroyEPv
cEi:__ZL25UnresolvedVirtualCall_159P12Il2CppObject25RaycastResult_t3360306849S1_PK10MethodInfo
vJj:_glUnmapBuffer__wrapper
uze:_Transform_1__ctor_m3369371265_gshared
hvc:__ZN8JSONRead21TransferSTLStyleArrayINSt3__26vectorI8Gradient13stl_allocatorIS3_L18MemLabelIdentifier1ELi16EEEEEEvRT_17TransferMetaFlags
gdb:__ZNSt3__218__insertion_sort_3IRNS_6__lessINS_4pairIPKN5Unity4TypeE7Hash128EES8_EEPS8_EEvT0_SC_T_
T3c:_U3CDelayUpdateU3Ec__Iterator0_Dispose_m2972384857
tPe:_InputField_set_onValueChanged_m3658917578
Yub:__ZN10RectOffset8TransferI24GenerateTypeTreeTransferEEvRT_
Wji:_TlsClientSettings_get_ClientCertificate_m3139459118
IHd:_BinaryReader__ctor_m2266204403
wae:__ZN21InterfaceFuncInvoker5IiP22ByteU5BU5D_t4116647657iiS1_iE6InvokeEjP11Il2CppClassP12Il2CppObjectS1_iiS1_i
Q$f:_Enumerator_VerifyState_m3047769867_AdjustorThunk
iub:__Z18Transfer_BlittableI24GenerateTypeTreeTransferLb1E5RectTIiEEvRK29SerializationCommandArgumentsR31RuntimeSerializationCommandInfo
cnc:__ZN16GUIKeyboardStateD2Ev
oOc:__ZN2UI13CanvasManager19RemoveDirtyRendererEPNS_6CanvasEPNS_14CanvasRendererE
Fuj:_isspace
cMe:_BinaryFormatter__ctor_m2620705134
EGb:__Z15GetIApplicationv
XTc:__ZN11UnityEngine15PlatformWrapper25GetGraphicsRendererStringEv
g8f:_UTF7Encoding_InternalGetBytes_m797138468
lV:__ZN11UnityEngine15CloudWebService17WebFileDownloaderINS0_20WebRequestRestClientENS0_23WebRequestRestHeaderMapEED2Ev
Qb:invoke_vi
Akd:_SmallXmlParser_HandleWhitespaces_m549588711
Qsc:__ZN9JSONWrite8TransferI13dynamic_arrayI9BoundsIntLj4EEEEvRT_PKc17TransferMetaFlags
Ob:invoke_vd
pb:invoke_vf
Roi:_Regex_get_RightToLeft_m2317867572
p3:__ZNK10GameObject8IsActiveEv
Efc:__Z34Component_Get_Custom_PropTransformP12Il2CppObject
RQh:__ZL83Canvas_t3310196443_CustomAttributesCacheGenerator_Canvas_get_rootCanvas_m3165691493P21CustomAttributesCache
vQh:__ZL67g_UnityEngine_PhysicsModule_Assembly_CustomAttributesCacheGeneratorP21CustomAttributesCache
Smi:_X509Certificate_get_SignatureAlgorithm_m122054440
OCa:__ZN18GfxFramebufferGLES23SetupDefaultFramebufferEPP17RenderSurfaceBaseS2_N2gl6HandleILNS3_10ObjectTypeE9EEE
T6h:_ReadOnlyCollection_1_get_Item_m3437922467_gshared
w7c:_DefaultControls_CreateDropdown_m3286664171
t6a:__ZN13ScreenManager18RequestOrientationE17ScreenOrientation
_Li:__ZN6il2cpp2vm5Class12SetupMethodsEP11Il2CppClass
Ecc:__Z39DeleteLastPathNameComponentWithAnySlashRKN4core12basic_stringIcNS_20StringStorageDefaultIcEEEE
nmc:__ZN10GUIManager14InitGUIManagerEv
ZNg:__Z77RuntimeInvoker_Void_t1185182177_RegexOptionsU26_t1638284957_SByte_t1669577662PFvvEPK10MethodInfoPvPS4_
$Yh:__ZL78LayoutRebuilder_t541313304_CustomAttributesCacheGenerator_U3CU3Ef__amU24cache1P21CustomAttributesCache
aVi:__ZNSt3__26vectorIP11Il2CppClassNS_9allocatorIS2_EEE26__swap_out_circular_bufferERNS_14__split_bufferIS2_RS4_EE
Ceg:_UInt16_Equals_m642257745
Imd:_Array_System_Collections_IList_IndexOf_m3301661616
eTd:_AssemblyFileVersionAttribute__ctor_m3720707642
_3d:_RuntimeResourceSet_CloneDisposableObjectIfPossible_m2725520898
zhd:_HMACSHA384_set_ProduceLegacyHmacValues_m76936446
woc:__Z37Register_UnityEngine_GUIStyle_Cleanupv
Ma:invoke_iiifii
RZe:_SliderEvent__ctor_m3149452941
Uid:_DeriveBytes__cctor_m1212925033
h3c:_UIBehaviour_OnDestroy_m1613239498
V6b:__ZN8GUILayer12AddToManagerEv
ead:_Graphic_OnDisable_m1097930217
PUi:__ZN6il2cpp6icalls8mscorlib6System8MonoType13IsPointerImplEP20Il2CppReflectionType
Qi:_emscripten_glFramebufferRenderbuffer
IUb:__ZN19CullingGroupManager17CullAndSendEventsERK22SceneCullingParametersiRK13CullingOutputRK8JobFence
nEe:__ZN21InterfaceFuncInvoker3IP12Il2CppObjectP8String_tS1_PS3_E6InvokeEjP11Il2CppClassS1_S3_S1_S4_
oJi:_AnimationLayerMixerPlayable_GetHandle_m3854437798_AdjustorThunk
k1g:_List_1_ToArray_m2949058867_gshared
HIh:__ZL98DataUtility_t2196215967_CustomAttributesCacheGenerator_DataUtility_Internal_GetMinSize_m2628270685P21CustomAttributesCache
fRa:__ZN9Transform30EnsureTransformHierarchyExistsEv
Acg:_Type_FilterName_impl_m2651733559
wnd:_Array_GetValue_m116098292
bSf:_Dictionary_2_System_Collections_Generic_ICollectionU3CSystem_Collections_Generic_KeyValuePairU3CTKeyU2CTValueU3EU3E_Add_m1448015620_gshared
yec:__Z46Register_UnityEngine_Application_get_isPlayingv
o4h:_Collection_1_ClearItems_m2182923889_gshared
_Zb:__ZNSt3__26vectorINS_4pairIN4core12basic_stringIcNS2_20StringStorageDefaultIcEEEEPK17MessageIdentifierEENS_9allocatorISA_EEE12__move_rangeEPSA_SE_SE_
hOb:__ZN14qsort_internal17MedianOfThreeSwapIP17RODataReplacement19ROSorterReplacementEEvT_S4_S4_T0_
Spf:_String_Split_m3646115398
Mug:_RectOffset_ToString_m2007443979
QKi:__ZNK15dense_hashtableINSt3__24pairIK10KeyWrapperIPK22Il2CppGenericParameterEP11Il2CppClassEES6_N6il2cpp5utils11PointerHashIS4_EEN14dense_hash_mapIS6_S9_SE_NS6_14EqualsComparerINS0_8equal_toIS5_EEEENS0_9allocatorISA_EEE9SelectKeyESJ_SL_E3endEv
Acc:__ZN17TransformInternal36OnScaleChangedCalculateTransformTypeE15TransformAccess
kNa:__ZN17ArchiveFileSystem10ToAbsoluteEPKc
JUc:__ZN19UnityConnectService15GetPlayerUserIdEv
Ifi:_InvokableCall_1__ctor_m2610016537_gshared
CMf:_Array_InternalArray__IndexOf_TisSByte_t1669577662_m4156538463_gshared
ir:__ZN7mecanim6CRCKeyENS_7eStringE
iac:__ZL12SetPrefValueRKN4core12basic_stringIcNS_20StringStorageDefaultIcEEEERK9PrefValue
bPh:__ZL81GUIStyle_t3956901511_CustomAttributesCacheGenerator_GUIStyle_get_name_m2109418832P21CustomAttributesCache
eia:__ZL30ReconstructParamNamesFromTableIN9ShaderLab20SerializedSubProgram15MatrixParameterEEvRK14dense_hash_mapIiN4core17string_with_labelILi1EEE18SInt32HashFunctionNSt3__28equal_toIiEE13stl_allocatorINS8_4pairIKiS6_EEL18MemLabelIdentifier1ELi16EEERNS8_6vectorIT_NS8_9allocatorISL_EEEE
a9a:__ZN19ShaderPropertySheet20ReservePropertyCountEj
mkj:__ZN6il2cpp5utils11StringUtils6PrintfEPKcz
e6i:__ZNSt3__26vectorIN6il2cpp8metadata18GenericArrayMethodENS_9allocatorIS3_EEE7reserveEj
Bma:__ZN15NameToObjectMapI6ShaderNSt3__23mapI4PPtrIS0_EN4core12basic_stringIcNS5_20StringStorageDefaultIcEEEENS1_4lessIS4_EENS1_9allocatorINS1_4pairIKS4_S9_EEEEEENS1_8multimapIS9_S4_NSA_IS9_EENSC_INSD_IKS9_S4_EEEEEEE4FindERSK_
f2a:__ZN24GenerateTypeTreeTransfer21TransferResourceImageE19ActiveResourceImagePKcR13StreamingInfoPvjiPKN5Unity4TypeE
v0h:_Array_Sort_TisVector3_t3722313464_m1030213405_gshared
Gfj:__ZN6il2cpp2vm6Object5CloneEP12Il2CppObject
kNh:__ZL94TextGenerator_t3211863866_CustomAttributesCacheGenerator_TextGenerator_Dispose_cpp_m1826354328P21CustomAttributesCache
Zrj:__ZN6il2cpp6icalls8mscorlib6System9Threading5Mutex20CreateMutex_internalEbP12Il2CppStringPb
RIj:_emscripten_glLinkProgram__wrapper
Tkg:_Coroutine_Finalize_m1957108547
Gxi:_KeyBuilder_Key_m2503211157
IXa:__ZNSt3__212__deque_baseI18ReflectionProbeJobNS_9allocatorIS1_EEED2Ev
Ez:__ZN11UnityEngine9Animation27DestroyAnimationSetBindingsEPNS0_20AnimationSetBindingsERN7mecanim6memory9AllocatorE
kia:__ZN15dense_hashtableINSt3__24pairIKiN4core17string_with_labelILi1EEEEEi18SInt32HashFunctionN14dense_hash_mapIiS5_S7_NS0_8equal_toIiEE13stl_allocatorIS6_L18MemLabelIdentifier1ELi16EEE9SelectKeyESA_SD_E13set_empty_keyERKS6_
Hkg:_Component_GetComponentInChildren_m388868270
CZf:_GenericEqualityComparer_1_Equals_m1705889345_gshared
oE:__ZN8Animator12CleanupClassEv
fvc:__Z13TransferFieldI8JSONReadLb0E27Converter_SimpleNativeClassI10RectOffsetEEvRK23StaticTransferFieldInfoR31RuntimeSerializationCommandInfoRT1_
Wad:__ZN21InterfaceFuncInvoker0IiE6InvokeEjP11Il2CppClassP12Il2CppObject
v9e:_FtpWebRequest__cctor_m699542155
gdj:__GLOBAL__sub_I_GenericMetadata_cpp
Vlh:__ZL70RuntimeArray_CustomAttributesCacheGenerator_Array_SetValue_m3412648248P21CustomAttributesCache
u8e:_NameObjectCollectionBase_GetEnumerator_m3677320185
wVb:__Z24CalculateSpotLightBoundsffRK10Matrix4x4fR15SpotLightBounds
hji:_ListPool_1_Get_m3176656818_gshared
CDe:_Dictionary_2_TryGetValue_m3495031886_gshared
zZa:__ZNK13RenderTexture21GetShadowSamplingModeEv
yR:__ZN23CloudWebServicesManager23VirtualRedirectTransferER14SafeBinaryRead
w7e:_PKCS12_AddCertificate_m3857004455
WVe:_GetRayIntersectionAllCallback__ctor_m391992746
KEb:__Z19ShouldTransferFieldR32SerializationCommandQueueBuilder17ScriptingClassPtriR18TransferField_InfoRK20CoreScriptingClasses
wwh:__ZL67RSACryptoServiceProvider_t2683512874_CustomAttributesCacheGeneratorP21CustomAttributesCache
p$g:__Z56RuntimeInvoker_Int32_t2950945753_SpriteState_t1362986479PFvvEPK10MethodInfoPvPS4_
inf:_SecurityElement_IsValidText_m1346599242
f1b:__Z33PPtrToObjectDontLoadNoThreadCheckI8MaterialEPT_4PPtrIS1_E
MHa:__ZN26SinglePassStereoSupportExt21SetStereoMatrixCommonE21MonoOrStereoscopicEye24BuiltinShaderMatrixParamRK10Matrix4x4f
NK:__ZN5audio5mixer22UpdateAudioMixerMemoryERKNS0_18AudioMixerConstantERNS0_16AudioMixerMemoryEfPN4FMOD6SystemEf
jxc:__ZL21InitializeCachedStripPv
jRf:_Dictionary_2_System_Collections_Generic_ICollectionU3CSystem_Collections_Generic_KeyValuePairU3CTKeyU2CTValueU3EU3E_Add_m3652125112_gshared
Myh:__ZL80Thread_t2300836069_CustomAttributesCacheGenerator_Thread_GetHashCode_m3479107071P21CustomAttributesCache
s8i:__ZN6il2cpp6icalls8mscorlib6System9Threading6Thread23GetCachedCurrentCultureEP12Il2CppThread
gY:__ZNK6Camera22GetWorldToCameraMatrixEv
Uyj:runPostSets
Wfj:__ZN6il2cpp2vm12GenericClass11IsValueTypeEP18Il2CppGenericClass
FDb:__ZN13MonoBehaviour7SetNameEPKc
LJe:_MethodDictionary_IsOverridenKey_m946843558
XJd:_FileStream_BeginRead_m2419864669
wii:_U3CStartU3Ec__Iterator0_MoveNext_m4270440387_gshared
IPi:__ZN10KeyWrapperIN6il2cpp5utils13dynamic_arrayIPK10Il2CppTypeLj4EEEEC2ERKS7_
AIb:__ZN17InstancingBatcher22FindCBUpperBoundKonstsEv
W7:__GLOBAL__sub_I_runtime_shaders_shaderimpl_0_cpp
Egb:__ZN18AwakeFromLoadQueue5ClearEv
tKd:_FileStream_SetLength_m99749826
ZTb:__ZNSt3__27__sort5IR15ReflProbeSorterPP15ReflectionProbeEEjT0_S6_S6_S6_S6_T_
tea:__ZN8Playable10DisconnectEPS_i
uk:_glGenTransformFeedbacks
aMa:__ZN13LoadOperationD2Ev
QQh:__ZL86Canvas_t3310196443_CustomAttributesCacheGenerator_Canvas_set_sortingLayerID_m861680532P21CustomAttributesCache
r2f:_List_1_System_Collections_ICollection_get_SyncRoot_m1990178029_gshared
fDd:_Int16_System_IConvertible_ToType_m3672347013
_Ue:_Navigation_set_mode_m3709908198_AdjustorThunk
rdg:_Type_GetProperty_m4206634422
hld:_AttrListImpl_GetValue_m3657391095
vHb:__Z21PlayerStartFirstSceneb
C9g:_List_1_CheckIndex_m3933537097_gshared
R0a:__ZNSt3__27__sort5IRPFbRKNS_4pairIN9ShaderLab16FastPropertyNameEN18UnityPropertySheet11UnityTexEnvEEES8_EPS6_EEjT0_SD_SD_SD_SD_T_
$ua:__ZNK7ApiGLES18GetExtensionStringEv
b9g:_List_1_System_Collections_IList_IndexOf_m2444653486_gshared
GMg:__Z50RuntimeInvoker_SecurityCompressionType_t4242483129PFvvEPK10MethodInfoPvPS4_
LEj:_emscripten_glVertexAttrib1f__wrapper
jUf:_DefaultComparer_GetHashCode_m402448534_gshared
Kkb:__ZNK12HandlerChain4SizeERK13FileEntryData
Yo:FUNCTION_TABLE_iiiiiiiii
Axe:_Enumerator_Dispose_m1360775770_AdjustorThunk
bch:_Collection_1_ClearItems_m1096166028_gshared
c8h:_ReadOnlyCollection_1_System_Collections_Generic_ICollectionU3CTU3E_Remove_m4177779688_gshared
nsd:_Char_IsLetter_m3996985877
sah:_Queue_1_Peek_m2302800625_gshared
qlh:__ZL51Delegate_t1188392813_CustomAttributesCacheGeneratorP21CustomAttributesCache
vCh:__ZL56WeakReference_t1334886716_CustomAttributesCacheGeneratorP21CustomAttributesCache
O0g:_List_1_AddCollection_m4263017124_gshared
Ymj:_GC_allochblk
gHe:__ZN21InterfaceFuncInvoker1IbP19Context_t3285446944E6InvokeEjP11Il2CppClassP12Il2CppObjectS1_
Ogb:__Z15UnloadGameScenev
iPf:_Array_InternalArray__ICollection_CopyTo_TisKeyframe_t4206410242_m2132255743_gshared
qJj:_glCheckFramebufferStatus__wrapper
Mbd:_Image__ctor_m2551076292
tCe:_Dictionary_2_System_Collections_ICollection_CopyTo_m3143696177_gshared
v1i:__ZN15dense_hashtableINSt3__24pairIK10KeyWrapperIPK14Il2CppAssemblyEPK22Il2CppMonoAssemblyNameEES6_N6il2cpp5utils11PointerHashIS4_EEN14dense_hash_mapIS6_SA_SF_NS6_14EqualsComparerINS0_8equal_toIS5_EEEENS0_9allocatorISB_EEE9SelectKeyESK_SM_E5clearEv
EEg:__Z103RuntimeInvoker_Void_t1185182177_Int32_t2950945753_Int32_t2950945753_Int32_t2950945753_SByte_t1669577662PFvvEPK10MethodInfoPvPS4_
SD:__ZN16MecanimAnimationD0Ev
Vkc:__Z36Renderer_Get_Custom_PropSortingOrderP12Il2CppObject
KZi:__ZNK15dense_hashtableINSt3__24pairIK10KeyWrapperIPK10Il2CppTypeEjEES6_N6il2cpp8metadata14Il2CppTypeHashEN14dense_hash_mapIS6_jSB_NS6_14EqualsComparerINSA_26Il2CppTypeEqualityComparerEEENS0_9allocatorIS8_EEE9SelectKeyESF_SH_E13find_positionERS7_
pZa:__ZN7Texture5ResetEv
Ktb:__Z18Transfer_BlittableI24GenerateTypeTreeTransferLb0E8Vector2fEvRK29SerializationCommandArgumentsR31RuntimeSerializationCommandInfo
Lwh:__ZL54SHA384Managed_t74158575_CustomAttributesCacheGeneratorP21CustomAttributesCache
OGe:_Context_get_HasDynamicSinks_m3952434387
w6f:_Latin1Encoding_GetByteCount_m1145650505
ztb:__Z18Transfer_BlittableI24GenerateTypeTreeTransferLb1EhEvRK29SerializationCommandArgumentsR31RuntimeSerializationCommandInfo
Omc:__ZN8GUIState18CycleKeyboardFocusERNSt3__26vectorIP6IDListNS0_9allocatorIS3_EEEEb
tAb:__Z13TransferFieldI18StreamedBinaryReadILb1EELb0E16Converter_StringEvRK23StaticTransferFieldInfoR31RuntimeSerializationCommandInfoRT1_
ZUf:_DefaultComparer_GetHashCode_m177499767_gshared
_ab:__ZN10VertexData10DeallocateEv
kXi:__ZNSt3__214__split_bufferIiRNS_9allocatorIiEEEC2EjjS3_
fec:__ZNK16TypeTreeIterator10ByteOffsetEv
cAj:dynCall_iiifii
pda:__ZnwjRKSt9nothrow_t
PC:__ZN8Animator11ClearObjectEv
Ldi:_Nullable_1_GetHashCode_m4232053575_gshared
bmd:_ApplicationException__ctor_m2557611022
K$a:__ZN14SafeBinaryRead19TransferSTLStyleMapINSt3__23mapI39DeprecatedFastPropertyNameSerializationN18UnityPropertySheet11UnityTexEnvENS1_4lessIS3_EENS1_9allocatorINS1_4pairIKS3_S5_EEEEEEEEvRT_17TransferMetaFlags
G6g:_List_1_CheckMatch_m579516778_gshared
lqd:_Buffer_ByteLengthInternal_m1388208719
CSh:__ZL92PointerEventData_t3807901092_CustomAttributesCacheGenerator_U3CworldNormalU3Ek__BackingFieldP21CustomAttributesCache
KOf:_Array_InternalArray__ICollection_CopyTo_TisInt64_t3736567304_m2845057751_gshared
aec:__Z35UnregisterSerializationCacheBuilderPFv17ScriptingClassPtrR23CachedSerializationDataRbE
Gkh:__ZL52ICloneable_t724424198_CustomAttributesCacheGeneratorP21CustomAttributesCache
xGd:_Int64_System_IConvertible_ToUInt32_m109903525_AdjustorThunk
Z3:__Z30GetBuiltinVectorParamArraySize24BuiltinShaderVectorParam
oPf:_Array_InternalArray__ICollection_CopyTo_TisUICharInfo_t75501106_m4268526610_gshared
QYi:__ZNSt3__218uninitialized_copyIPNS_4pairIK10KeyWrapperINS1_IPK14Il2CppAssemblyP11Il2CppClassEEEjEESC_EET0_T_SE_SD_
iZa:__ZN13RenderTextureC2E10MemLabelId18ObjectCreationMode
vDd:_Int32_GetFormatException_m519586683
Uxh:__ZL46StringBuilder_t_CustomAttributesCacheGeneratorP21CustomAttributesCache
t$f:_Enumerator_MoveNext_m1131351993_gshared
vSd:_RankException__ctor_m2226473861
m3h:_Array_InternalArray__get_Item_TisVector2_t2156229523_m2502961026_gshared
x6:__ZN21RendererUpdateManager11AddRendererER8Renderer
J2b:__Z13RegisterClassI15ResourceManagerEvv
SAi:_AudioConfigurationChangeHandler_Invoke_m1233557945
qob:__Z35Transfer_Blittable_FixedBufferFieldI14SafeBinaryReadsEvRK29SerializationCommandArgumentsR31RuntimeSerializationCommandInfo
dab:__ZN14SafeBinaryRead21TransferSTLStyleArrayI13dynamic_arrayIfLj4EEEEvRT_17TransferMetaFlags
$zd:_Convert_ToDateTime_m3802186295
nkj:__ZN6il2cpp5utils11StringUtils11Utf16ToUtf8EPKDs
nfb:__ZN18StreamedBinaryReadILb0EE21TransferSTLStyleArrayINSt3__26vectorIN15ResourceManager10DependencyE13stl_allocatorIS5_L18MemLabelIdentifier52ELi16EEEEEEvRT_17TransferMetaFlags
vgg:_UInt64_CompareTo_m1614517204_AdjustorThunk
mUc:__ZN11UnityEngine15PlatformWrapper20IsRootedOrJailbrokenEv
eLb:__ZZ23InitPlayerLoopCallbacksvEN52PreLateUpdateScriptRunBehaviourLateUpdateRegistrator7ForwardEv
rVb:__Z33IntersectAABBPlaneBoundsOptimizedRK4AABBPKN4math7_float4Ei
xYb:__ZN19ScriptingInvocation6InvokeI28ScriptingSystemTypeObjectPtrEET_P21ScriptingExceptionPtrb
Zpa:__ZN9GfxDevice19EndGeometryJobFrameEv
Cvi:_GUILayoutUtility_Layout_m1159951704
COe:_InputField_get_shouldActivateOnSelect_m3055465770
IUf:_DefaultComparer_Equals_m2269092119_gshared
ttb:__ZN27Converter_SimpleNativeClassI17AnimationCurveTplIfEE17ScriptingToNativeER18ScriptingObjectPtrPS1_
zcg:_Type__cctor_m2371893800
Ksj:__ZN6il2cpp8metadata24Il2CppGenericInstCompare7CompareERK10KeyWrapperIPK17Il2CppGenericInstES8_
jOi:__ZNK15dense_hashtableINSt3__24pairIK10KeyWrapperIPK19Il2CppGenericMethodEPK26Il2CppGenericMethodIndicesEES6_N6il2cpp8metadata23Il2CppGenericMethodHashEN14dense_hash_mapIS6_SA_SE_NS6_14EqualsComparerINSD_26Il2CppGenericMethodCompareEEENS0_9allocatorISB_EEE9SelectKeyESI_SK_E5beginEv
I$c:_ExecuteEvents_Execute_m3049310229
xt:__ZN27AnimationLayerMixerPlayable21UpdateLayerParametersEv
bJh:__ZL84Object_t631007953_CustomAttributesCacheGenerator_Object_DestroyImmediate_m2288369078P21CustomAttributesCache
AYd:__ZN21InterfaceFuncInvoker1IiP12MemberInfo_tE6InvokeEjP11Il2CppClassP12Il2CppObjectS1_
Zmd:_Array_get_IsSynchronized_m3066873806
bw:__ZN7mecanim9animation16CopyMotionOutputEPKNS0_18AnimationNodeStateEPS1_bbRKNS_6bitsetILj83EEE
S0b:__ZNK17AnimationCurveTplIfE8EvaluateEfPNS0_5CacheE
iKb:__Z31ManagerContextInitializeClassesv
l8h:_ReadOnlyCollection_1_System_Collections_IList_Contains_m2650112051_gshared
WGf:_Array_get_swapper_TisVector3_t3722313464_m1221246401_gshared
V7h:_ReadOnlyCollection_1_CopyTo_m1950082901_gshared
bFc:_ft_smooth_transform
xFc:_UNITY_FT_List_Finalize
rsj:__ZN6il2cpp6icalls8mscorlib6System7Runtime8Remoting10Activation18ActivationServices34AllocateUninitializedClassInstanceEP20Il2CppReflectionType
kPb:__Z20LightAttenuateApproxRKfS0_
n7:__ZN9Scripting30SetCachedPtrOnScriptingWrapperE18ScriptingObjectPtrP6Object
vxd:_HashKeys_get_IsSynchronized_m174400341
TW:__ZN17LowLevelAllocator6MallocEj
MWg:__Z57RuntimeInvoker_Int32_t2950945753_KeyValuePair_2_t71524366PFvvEPK10MethodInfoPvPS4_
khi:_UnityEvent_1__ctor_m1789019280_gshared
Wgf:_RepeatContext_get_IsMinimum_m3640286252
SBg:__Z64RuntimeInvoker_Boolean_t97287965_RuntimeObject_Int32_t2950945753PFvvEPK10MethodInfoPvPS4_
kme:_InternalEnumerator_1__ctor_m4055378331_AdjustorThunk
eOe:_ObjectRecord_ChainFixup_m1889316362
LUa:__ZN18BlockRangeInternal16PopLastNodeIndexEP10BlockRangeji
Ilj:__ZN6il2cpp2vm13CachedCCWBaseINS0_13ManagedObjectEE6AddRefEv
U_i:__ZN6il2cpp2gc19AppendOnlyGCHashMapINSt3__24pairIPK11Il2CppImageP11Il2CppClassEEP22Il2CppReflectionModule17ReflectionMapHashIS9_ENS2_8equal_toIS9_EEE10CopyValuesEPv
X2c:_TouchInputModule_UpdateModule_m2582897964
z9a:__ZN4MeshD0Ev
kZc:__ZL42RequestRecreateEyeTexturesBeforeNextUpdatev
FEa:__ZNK6Camera20IsCurrentlyRenderingEv
kv:__ZN21AnimationClipPlayable23ProcessRootMotionNoClipEPK35AnimationPlayableEvaluationConstantPK32AnimationPlayableEvaluationInputP33AnimationPlayableEvaluationOutput
bRc:__Z36CanvasRenderer_CUSTOM_SetPopMaterialP12Il2CppObjectS0_i
Irc:__Z18Transfer_BlittableI9JSONWriteLb0EdEvRK29SerializationCommandArgumentsR31RuntimeSerializationCommandInfo
Apf:_String_System_IConvertible_ToDouble_m3740733360
ESa:__ZN6Camera8TransferI19StreamedBinaryWriteILb0EEEEvRT_
Rwf:_DBNull_System_IConvertible_ToSByte_m3533624679
_uj:_wctomb
dsd:_Char_CompareTo_m42489266
mYg:__Z67RuntimeInvoker_Void_t1185182177_Int32_t2950945753_Double_t594665363PFvvEPK10MethodInfoPvPS4_
kfc:__Z27Camera_CUSTOM_GetAllCamerasP11Il2CppArray
GDb:__ZNK13MonoBehaviour25GetNeedsPerObjectTypeTreeEv
CAb:__Z35Transfer_Blittable_FixedBufferFieldI18StreamedBinaryReadILb0EEiEvRK29SerializationCommandArgumentsR31RuntimeSerializationCommandInfo
Wc:___cxa_rethrow
A2d:_ParameterInfo_GetCustomAttributes_m2376494592
ltc:__Z18Transfer_BlittableI8JSONReadLb1EhEvRK29SerializationCommandArgumentsR31RuntimeSerializationCommandInfo
Y9c:_Graphic_get_canvasRenderer_m315509948
Geh:_Collection_1_System_Collections_IList_Contains_m3397768605_gshared
bVe:_Navigation_set_selectOnUp_m827629728_AdjustorThunk
XPg:__Z90RuntimeInvoker_Void_t1185182177_Int64_t3736567304_Int32_t2950945753_RuntimeObject_IntPtr_tPFvvEPK10MethodInfoPvPS4_
REj:_glBindRenderbuffer__wrapper
u1h:_Dictionary_2_Do_CopyTo_TisInt32_t2950945753_TisInt32_t2950945753_m3384108308_gshared
$bc:__ZN10systeminfo23SupportsLocationServiceEv
JEf:_CultureInfo_construct_internal_locale_from_name_m3254739477
wfe:_RSASslSignatureDeformatter_VerifySignature_m1061897602
X5e:_RSAManaged_remove_KeyGenerated_m2046909903
cid:_RandomNumberGenerator_Create_m4162970280
VPf:_Array_InternalArray__Insert_TisLabelFixup_t858502054_m171542753_gshared
Ose:_InternalEnumerator_1_System_Collections_IEnumerator_get_Current_m3539708496_AdjustorThunk
ylb:__ZN20LocalFileSystemPosix4ReadER13FileEntryDatayyPvPy
ISb:__ZNSt3__211__sift_downIRN23ForwardShaderRenderLoop18RenderObjectSorterILb0EEEP21ForwardRenderPassDataEEvT0_S7_T_NS_15iterator_traitsIS7_E15difference_typeES7_
Vlf:_SecurityPermission__ctor_m1462427327
qBj:dynCall_iiiiiiffiiiiiiiiiffffiiii
VDb:__ZN13MonoBehaviour5DoGUIENS_13GUILayoutTypeEii
CEe:_ChannelData_get_ClientProviders_m594662942
gqi:_QuickSearch_GetChar_m1297698557
SKa:__ZNK12TLSAllocatorI14StackAllocatorE8ContainsEPKv
Ncb:__ZN11TimeManager8TransferI18StreamedBinaryReadILb0EEEEvRT_
WAg:__Z68RuntimeInvoker_Boolean_t97287965_Int16_t2552820387_SByte_t1669577662PFvvEPK10MethodInfoPvPS4_
ovf:_DateTime__ParseEnum_m253019513
dCd:_Convert_ToUInt32_m2194577773
Emf:_PermissionSet__ctor_m2328457660
M6:__ZN15dense_hashtableINSt3__24pairIKyP17VertexDeclarationEEy14GfxGenericHashIyEN14GfxDoubleCacheIyS4_S7_NS0_8equal_toIyEEN31GfxDoubleCacheConcurrencyPolicy11LocklessGetE42GfxDoubleCacheDefaultEmptyDeletedGeneratorIyEE9SelectKeyESA_13stl_allocatorIS5_L18MemLabelIdentifier24ELi16EEE12resize_deltaEjj
exd:_Hashtable_Remove_m4032631466
quc:__Z18Transfer_BlittableI8JSONReadLb1EyEvRK29SerializationCommandArgumentsR31RuntimeSerializationCommandInfo
rDh:__ZL91RSASslSignatureFormatter_t2709678514_CustomAttributesCacheGenerator_U3CU3Ef__switchU24map16P21CustomAttributesCache
T1a:__ZN7Texture25ReloadFromStorageIfNeededEPvb
YLf:_Array_InternalArray__IndexOf_TisBoolean_t97287965_m1161209222_gshared
Brj:__ZN6il2cpp2os12Cryptography24OpenCryptographyProviderEv
uQh:__ZL55RaycastHit2D_t2279581989_CustomAttributesCacheGeneratorP21CustomAttributesCache
Lud:_SynchronizedArrayListWrapper_Clear_m2191301493
zGc:_Update_Max
G7i:__ZN6il2cpp6icalls8mscorlib6SystemL15ThrowNoWideningEv
b1b:__ZNK23TransformChangeDispatch24GetChangeMaskForInterestENS_12InterestTypeE
D8b:__ZN8Playable5PauseEv
Xjc:__Z45Transform_CUSTOM_INTERNAL_CALL_TransformPointP12Il2CppObjectRK8Vector3fRS1_
VXd:_GenericTypeParameterBuilder_InvokeMember_m1647304778
Jbd:_HorizontalOrVerticalLayoutGroup_set_childControlWidth_m3261460516
$$a:__ZNSt3__26__treeINS_12__value_typeI39DeprecatedFastPropertyNameSerializationfEENS_19__map_value_compareIS2_S3_NS_4lessIS2_EELb1EEENS_9allocatorIS3_EEE7destroyEPNS_11__tree_nodeIS3_PvEE
tEc:_tt_cmap4_char_index
E3c:_AspectRatioFitter_GetParentSize_m3159144324
dof:_SecurityFrame_get_Assembly_m2874566710
wje:_InternalEnumerator_1__ctor_m2336656763_AdjustorThunk
T9g:_Enumerator_System_Collections_IEnumerator_Reset_m1487823313_gshared
Ukb:__ZNK12HandlerChain8IsHiddenERK13FileEntryData
I0g:_List_1_System_Collections_IList_get_IsFixedSize_m1752888098_gshared
Jsb:__ZL26Transfer_SimpleNativeClassI17RemapPPtrTransfer10RectOffsetLb0EEvRK29SerializationCommandArgumentsR31RuntimeSerializationCommandInfo
tLc:__Z14ValidateFormatR13dynamic_arrayIN20TextRenderingPrivate16TextFormatChangeELj4EE
TYe:_ScrollRect_CalculateLayoutInputVertical_m3155297482
WFd:_Int32_ToString_m2507389746_AdjustorThunk
_yf:_Decimal_op_Explicit_m438967917
Luh:__ZL55IChannelInfo_t3866172133_CustomAttributesCacheGeneratorP21CustomAttributesCache
IJi:_AnimatorControllerPlayable_SetHandle_m2260644454_AdjustorThunk
lCf:_Environment_get_SocketSecurityEnabled_m190813817
vPg:__Z53RuntimeInvoker_Void_t1185182177_Vector4U26_t200349727PFvvEPK10MethodInfoPvPS4_
FLh:__ZL57UnityEventBase_t3960448221_CustomAttributesCacheGeneratorP21CustomAttributesCache
DLd:_NullStream_Flush_m3382897993
Eja:__ZNSt3__26vectorIN9ShaderLab20SerializedSubProgram13BufferBindingENS_9allocatorIS3_EEEC2ERKS6_
nPe:_InputField_set_selectionColor_m2084640295
s1h:_Dictionary_2_Do_CopyTo_TisKeyValuePair_2_t2401056908_TisKeyValuePair_2_t2401056908_m676905794_gshared
V3:__ZNK9ShaderLab20ShaderBlendStateDesc15ToGfxBlendStateEPK19ShaderPropertySheetS3_R13GfxBlendState
qFe:_ConfigHandler_OnIgnorableWhitespace_m278399491
Zzh:__ZL77Convert_t2465617642_CustomAttributesCacheGenerator_Convert_ToInt64_m260173354P21CustomAttributesCache
iz:__ZN11UnityEngine9AnimationL22GenericBindingCallbackEPvS1_i
eGc:_Compute_Point_Displacement
doa:__ZN9ShaderLab9IntShaderC2Ev
odi:_Func_3__ctor_m1375075958_gshared
WUi:__ZN6il2cpp6icalls8mscorlib6SystemL9IsPrivateEPK9EventInfo
srj:__ZN6il2cpp6icalls8mscorlib6System10Reflection4Emit11TypeBuilder20setup_internal_classEP27Il2CppReflectionTypeBuilderS7_
Tac:__Z18TransformPoints3x4RK10Matrix4x4fPK8Vector3fjPS2_ji
$Ch:__ZL72PKCS12_t4101533061_CustomAttributesCacheGenerator_U3CU3Ef__switchU24mapCP21CustomAttributesCache
vMf:_Array_InternalArray__IndexOf_TisILTokenInfo_t2325775114_m2602704009_gshared
YHh:__ZL52Matrix4x4_t1817901843_CustomAttributesCacheGeneratorP21CustomAttributesCache
sRf:_Dictionary_2_System_Collections_IDictionary_GetEnumerator_m972834308_gshared
u4g:_List_1_System_Collections_ICollection_get_IsSynchronized_m967177678_gshared
l7f:_StringBuilder_AppendFormat_m3255666490
kSd:_OverflowException__ctor_m4029085969
K_d:_TypeBuilder_GetGenericArguments_m2872156836
EJe:_MethodCall_get_Uri_m1720935531
AKi:__ZN13Il2CppHashMapIPK22Il2CppGenericParameterP11Il2CppClassN6il2cpp5utils11PointerHashIS1_EENSt3__28equal_toIS2_EENS9_9allocatorINS9_4pairIK10KeyWrapperIS2_ES4_EEEEEC2EjRKS8_RKSB_
k5e:_KeyPairPersistence_Remove_m1876145547
AMa:__Z15CreateDirectoryRKN4core12basic_stringIcNS_20StringStorageDefaultIcEEEE
xYa:__Z21CalculateGlobalMatrix23TransformAccessReadOnly
L_d:_TypeBuilder_GetGenericTypeDefinition_m1632720438
jHf:_Array_InternalArray__ICollection_Contains_TisLink_t544317964_m163190451_gshared
fwf:_DateTimeOffset_System_IComparable_CompareTo_m176229495_AdjustorThunk
Wog:_ManagedStreamHelpers_ValidateLoadFromStream_m580138133
xPh:__ZL104GUIUtility_t1868551600_CustomAttributesCacheGenerator_GUIUtility_EndContainerGUIFromException_m530164245P21CustomAttributesCache
Scb:__ZNK13BuildSettings22GetTypeVirtualInternalEv
l9c:_FontData_get_alignByGeometry_m2805576119
fne:_InternalEnumerator_1__ctor_m1486034688_gshared
Nxb:__Z35Transfer_Blittable_FixedBufferFieldI18StreamedBinaryReadILb1EEhEvRK29SerializationCommandArgumentsR31RuntimeSerializationCommandInfo
ezh:__ZL56AppDomainSetup_t123196401_CustomAttributesCacheGeneratorP21CustomAttributesCache
I7g:_List_1_CheckIndex_m2250397830_gshared
H2b:__Z13RegisterClassI14RenderSettingsEvv
osg:_PlayableOutput_GetHandle_m777137769_AdjustorThunk
RGi:_FontTextureRebuildCallback_EndInvoke_m3732346867
z:tempBigIntI
thf:_Interval_get_Empty_m3617514670
l_g:__Z31RuntimeInvoker_Mark_t3471605523PFvvEPK10MethodInfoPvPS4_
SSd:_Assembly_GetName_m981771927
tEh:__ZL53RegexOptions_t92845595_CustomAttributesCacheGeneratorP21CustomAttributesCache
zx:__ZN7mecanim12statemachine24CreateStateMachineOutputEPKNS0_20StateMachineConstantEjRNS_6memory9AllocatorE
Ufj:__ZN6il2cpp2vm12GenericClass8GetClassEP18Il2CppGenericClass
yqa:__ZNK9GfxDevice27GetActiveRenderSurfaceWidthEv
eEi:__ZL25UnresolvedVirtualCall_161P12Il2CppObject20UICharInfo_t75501106S1_PK10MethodInfo
ETh:__ZL114StandaloneInputModule_t2760469101_CustomAttributesCacheGenerator_StandaloneInputModule_ForceAutoSelect_m2837047882P21CustomAttributesCache
ZTc:__ZN11UnityEngine15PlatformWrapper28GetCleanGraphicsFixedVersionEv
OUe:_MaskableGraphic_RecalculateClipping_m1772937317
hOd:_UnmanagedMemoryStream_SetLength_m3752964620
pmb:__ZN16MemoryFileSystem5WriteER13FileEntryDatayyPvPy
qge:_SslStreamBase_RaiseLocalPrivateKeySelection_m4112368540
SXi:__ZN6il2cpp2vm4Type7GetTypeEPK10Il2CppType
EKc:_open_face_PS_from_sfnt_stream
Ine:_InternalEnumerator_1_get_Current_m165106323_AdjustorThunk
X7f:_UTF32Encoding_GetByteCount_m3610769032
rAa:__ZN6prcoreL17RemapGenericFloatI18TexFormatRGBAFloat17TexFormatRGBAHalfEEvPKNS_9InnerInfoE
ILb:__Z16FindCameraStacksRKNSt3__24listI4PPtrI6CameraENS_9allocatorIS3_EEEERNS_6vectorI11CameraStackNS4_ISA_EEEE
_oi:_MatchCollection_CopyTo_m3807326147
q4a:__ZN10GISettings8TransferI14SafeBinaryReadEEvRT_
un:FUNCTION_TABLE_vifff
NXh:__ZL54Text_t1901882714_CustomAttributesCacheGenerator_m_TextP21CustomAttributesCache
Thd:_MD5CryptoServiceProvider__ctor_m3271163125
dZb:__ZN19CustomRenderTexture12ClearGPUDataEv
Tii:_ListPool_1_Get_m2875520964_gshared
pyh:__ZL95UnicodeEncoding_t1959134050_CustomAttributesCacheGenerator_UnicodeEncoding_GetBytes_m3223155660P21CustomAttributesCache
yZa:__ZN13RenderTexture13ApplySettingsEv
fNe:_ObjectReader_RegisterObject_m1853376334
wZd:_ModuleBuilderTokenGenerator_GetToken_m2588853565
xpd:_Boolean_System_IConvertible_ToDecimal_m3176932461_AdjustorThunk
Ue:_JS_Sound_SetListenerPosition
mn:FUNCTION_TABLE_fiffi
YOg:__Z54RuntimeInvoker_Int32_t2950945753_LayerMask_t3493934918PFvvEPK10MethodInfoPvPS4_
zYe:_ScrollRect_OnInitializePotentialDrag_m3139711961
TKa:__ZNK12TLSAllocatorI14StackAllocatorE10GetPtrSizeEPKv
f8h:_ReadOnlyCollection_1_System_Collections_Generic_IListU3CTU3E_set_Item_m711370667_gshared
Bcj:__ZNK15dense_hashtableINSt3__24pairIK10KeyWrapperINS1_IPKcS4_EEEiEES6_24NamespaceAndNamePairHashN14dense_hash_mapIS6_iS9_NS6_14EqualsComparerI26NamespaceAndNamePairEqualsEENS0_9allocatorIS8_EEE9SelectKeyESD_SF_E10test_emptyERK24dense_hashtable_iteratorIS8_S6_S9_SH_SD_SF_E
STd:_Default_check_arguments_with_score_m3467814020
uGj:_glGetActiveUniform__wrapper
LMd:_StreamWriter_LowLevelWrite_m1081676583
x1f:_Enumerator__ctor_m3875432026_AdjustorThunk
Pda:__ZZN15DirectorManager15InitializeClassEvEN45FixedUpdateDirectorFixedSampleTimeRegistrator7ForwardEv
Kib:__ZNK8Material16MarkDependenciesER27GarbageCollectorThreadState
YZe:_Slider_set_handleRect_m1101657556
twf:_DateTimeOffset_ToString_m3985341516_AdjustorThunk
Vih:_Collection_1_System_Collections_IList_Contains_m3348135931_gshared
Lrc:__ZL17Transfer_GUIStyleI9JSONWriteLb0EEvRK29SerializationCommandArgumentsR31RuntimeSerializationCommandInfo
cQb:__Z28GetHaloVertexPositionsStereoP8Vector3fRKS_S2_f
gBa:__ZN6prcoreL27StretchGenericFloatBilinearI15TexFormatRGHalfEEvPKNS_9InnerInfoE
EFi:__ZL25UnresolvedVirtualCall_241P12Il2CppObjectiPK10MethodInfo
S7:__GLOBAL__sub_I_runtime_misc_0_cpp
wCe:_Dictionary_2_System_Collections_IDictionary_GetEnumerator_m751864982_gshared
RFf:_SortKey_GetHashCode_m3547067087
_Ab:__Z18Transfer_BlittableI18StreamedBinaryReadILb0EELb1E9BoundsIntEvRK29SerializationCommandArgumentsR31RuntimeSerializationCommandInfo
JXh:__ZL71SpriteState_t1362986479_CustomAttributesCacheGenerator_m_DisabledSpriteP21CustomAttributesCache
ocf:_PublicKey_DecodeDSA_m3490622362
zic:__Z49Register_UnityEngine_Resources_GetBuiltinResourcev
odg:_Type_GetMethod_m1479779718
gEc:_tt_cmap10_char_index
iki:_TlsException__ctor_m3242533711
j7d:_BitConverterLE_GetUIntBytes_m795219058
C5:__Z18GetITerrainManagerv
cyd:_SortedList__ctor_m3676552745
cLi:__ZN15dense_hashtableINSt3__24pairIK10KeyWrapperIPK22Il2CppGenericParameterEP11Il2CppClassEES6_N6il2cpp5utils11PointerHashIS4_EEN14dense_hash_mapIS6_S9_SE_NS6_14EqualsComparerINS0_8equal_toIS5_EEEENS0_9allocatorISA_EEE9SelectKeyESJ_SL_E3endEv
kNi:__ZNK15dense_hashtableINSt3__24pairIK10KeyWrapperIPK11Il2CppClassEPKcEES6_N6il2cpp5utils11PointerHashIS3_EEN14dense_hash_mapIS6_S9_SE_NS6_14EqualsComparerINS0_8equal_toIS5_EEEENS0_9allocatorISA_EEE9SelectKeyESJ_SL_E8min_sizeEjj
fqb:__Z35Transfer_Blittable_SingleValueFieldI14SafeBinaryReadjEvRT_R17GeneralMonoObjectRK23StaticTransferFieldInfo
SP:__ZN11AudioSource24ClearExtensionPropertiesE12PropertyName
r_h:_Array_InternalArray__set_Item_TisColor32_t2600501292_m1891325855_gshared
Kla:__ZN9ShaderLab22SerializedBindChannels8TransferI19StreamedBinaryWriteILb0EEEEvRT_
rDg:__Z52RuntimeInvoker_Decimal_t2948259380_Int32_t2950945753PFvvEPK10MethodInfoPvPS4_
Vqb:__ZN15SerializeTraitsI5RectTIiEE8TransferI14SafeBinaryReadEEvRS1_RT_
qnc:__ZN5IMGUI20MoveWindowFromLayoutER8GUIStateiRK5RectTIfE
mKg:__Z50RuntimeInvoker_SByte_t1669577662_Int64_t3736567304PFvvEPK10MethodInfoPvPS4_
MAc:_UNITY_FT_Stream_ReadUShort
lgh:_Collection_1_System_Collections_IList_get_Item_m1677338752_gshared
bhc:__Z51Register_UnityEngine_GUILayer_INTERNAL_CALL_HitTestv
Pha:__ZNSt3__26__treeINS_12__value_typeIN4core12basic_stringIcNS2_20StringStorageDefaultIcEEEES6_EENS_19__map_value_compareIS6_S7_NS_4lessIS6_EELb1EEE13stl_allocatorIS7_L18MemLabelIdentifier1ELi16EEE7destroyEPNS_11__tree_nodeIS7_PvEE
UVd:_DerivedType_IsAssignableFrom_m1623073368
MYf:_EqualityComparer_1_get_Default_m1095255266_gshared
gwa:__Z13IsDepthFormat14GraphicsFormat
deb:__ZN12AspectRatios8TransferI24GenerateTypeTreeTransferEEvRT_
$Pd:_MonoType_GetFields_m4176012508
Jwc:__Z12FormatBufferPciPKcz
Wsf:_CurrentSystemTimeZone_GetTimeZoneData_m2641861607
WIc:__ZN15SerializeTraitsI13dynamic_arrayI4PPtrIN13TextRendering4FontEELj4EEE19ResizeSTLStyleArrayERS5_i
NWf:_EqualityComparer_1_System_Collections_IEqualityComparer_GetHashCode_m3423304513_gshared
$ph:__ZL57FileSystemInfo_t3745885336_CustomAttributesCacheGeneratorP21CustomAttributesCache
pLi:__ZN6il2cpp2vm5Class13GetArrayClassEP11Il2CppClassj
p2c:_StandaloneInputModule_set_inputActionsPerSecond_m4057208843
HHb:__ZN19RuntimeSceneManager18LoadSceneAsyncIntoER10UnitySceneRKN4core12basic_stringIcNS2_20StringStorageDefaultIcEEEENS_11LoadingModeEb
DNd:_TextWriter_Write_m164803641
erc:__Z35Transfer_Blittable_FixedBufferFieldI9JSONWritetEvRK29SerializationCommandArgumentsR31RuntimeSerializationCommandInfo
xnc:__ZN11IMGUIModule12AddGUIScriptER8ListNodeI13MonoBehaviourE
nb:invoke_difi
zvi:_GUILayoutUtility_BeginWindow_m2240221150
pFj:_glDeleteSamplers__wrapper
M4e:_KeyGeneratedEventHandler_EndInvoke_m1628355235
J7e:_HybridDictionary_set_Item_m2997363718
pQb:__ZN29MotionVectorRenderLoopScratch15ThreadedCleanupEv
YLa:__ZNSt3__26__treeIiNS_4lessIiEE13stl_allocatorIiL18MemLabelIdentifier1ELi16EEE7destroyEPNS_11__tree_nodeIiPvEE
kte:_InternalEnumerator_1_get_Current_m1477715453_AdjustorThunk
uja:__ZN15SerializeTraitsI13dynamic_arrayItLj2EEE19ResizeSTLStyleArrayERS1_i
ngg:_UInt64_System_IConvertible_ToUInt32_m2784653358
Nva:__ZN21GLESGpuProgramApplier11ApplyVectorERKN20GpuProgramParameters14ValueParameterEPK8Vector4ft
NUb:__Z17PrepareSceneNodesP11CullResults
dBa:__ZN6prcoreL27StretchGenericFloatBilinearI18TexFormatRGBAFloatEEvPKNS_9InnerInfoE
gbj:__ZN15dense_hashtableINSt3__24pairIK10KeyWrapperIP14Il2CppIUnknownEjEES5_N6il2cpp5utils11PointerHashIS3_EEN14dense_hash_mapIS5_jSB_NS5_14EqualsComparerINS0_8equal_toIS4_EEEENS0_9allocatorIS7_EEE9SelectKeyESG_SI_E12expand_arrayEjN21dense_hash_map_traits17integral_constantIbLb0EEE
led:_SByte_System_IConvertible_ToDecimal_m2548745278
Mxc:_cff_size_done
mVb:__ZN29ExtractProjectionPlanesHelperILb1EE5ApplyERK10Matrix4x4fP5Plane
m7b:__ZN13ProduceHelperI7CubemapLb0EE7ProduceE10MemLabelId18ObjectCreationMode
vZb:__ZN6Camera34UpdatePreviousViewProjectionMatrixEv
Ema:__ZN9ShaderLab11ShaderState25RemoveUnsupportedProgramsEPK6Shader
rMc:__Z28Font_Get_Custom_PropMaterialP12Il2CppObject
ppg:_Mathf_Abs_m3281243566
kNd:_SynchronizedWriter_WriteLine_m1552352268
e4d:_DefaultDependencyAttribute__ctor_m502524668
oNg:__Z44RuntimeInvoker_X509KeyUsageFlags_t1431795504PFvvEPK10MethodInfoPvPS4_
Wbc:__Z26scripting_class_has_parent17ScriptingClassPtrS_
Rba:__ZN13RuntimeStaticI21AssetReferenceStorageLb0EE16StaticInitializeEPv
xVc:__ZNSt3__26__treeINS_12__value_typeIN4core12basic_stringIcNS2_20StringStorageDefaultIcEEEEN11UnityEngine7Connect19RemoteSettingsValueEEENS_19__map_value_compareIS6_SA_NS_4lessIS6_EELb1EEE13stl_allocatorISA_L18MemLabelIdentifier6ELi16EEE16__construct_nodeERKNS_4pairIKS6_S9_EE
aFd:_Int32_System_IConvertible_ToByte_m3832391412_AdjustorThunk
CQ:__Z71Register_UnityEngine_AudioSource_INTERNAL_CALL_ClearExtensionPropertiesv
$lh:__ZL81RuntimeArray_CustomAttributesCacheGenerator_Array_GetValue_m116098292____indices0P21CustomAttributesCache
zC:__ZNK8Animator20IsInMatchTargetStateEv
upe:_InternalEnumerator_1_System_Collections_IEnumerator_get_Current_m4088805473_gshared
coc:__Z36Register_UnityEngine_GUI_set_changedv
XGe:_Context_GetServerContextSinkChain_m3154465897
h4d:_FixedBufferAttribute_get_Length_m1478886548
ZVe:_GetRayIntersectionAllCallback_EndInvoke_m1583561415
rwi:_GUIStyle_get_fixedHeight_m2868324709
gBd:_Convert_ToInt64_m2075293963
Trj:__GLOBAL__sub_I_Il2CppCodeRegistration_cpp
Ww:__ZN27AnimationLayerMixerPlayable18SetInputConnectionEP8Playablei
Fw:__ZN7mecanim28TransformValueArrayBlendNodeEiiiRKNS_10ValueArrayERKNS_14ValueArrayMaskERS0_RS3_RNS_16ValueArrayWeightEf
pLf:__ZN21InterfaceFuncInvoker2Ii20UICharInfo_t75501106S0_E6InvokeEjP11Il2CppClassP12Il2CppObjectS0_S0_
Ggi:_UnityAction_2_BeginInvoke_m1322091188_gshared
_7c:_Dropdown_set_value_m1048320169
AVa:__ZN20TierGraphicsSettings8TransferI18StreamedBinaryReadILb0EEEEvRT_
zFd:_Int32_System_IConvertible_ToUInt64_m2502338186_AdjustorThunk
yfa:__Z33CleanupCubemapGPUUtilityMaterialsPv
R$a:__ZN14SafeBinaryRead8TransferINSt3__24pairIN9ShaderLab16FastPropertyNameE10ColorRGBAfEEEEvRT_PKc17TransferMetaFlags
cKi:__ZL9rshift128PyS_
rkd:__ZN23InterfaceActionInvoker1IP25SmallXmlParser_t973787839E6InvokeEjP11Il2CppClassP12Il2CppObjectS1_
K0f:_Enumerator_VerifyState_m169680537_AdjustorThunk
N2i:__ZN14dense_hash_mapI10KeyWrapperINSt3__24pairIPK12PropertyInfoP11Il2CppClassEEEj17ReflectionMapHashIS8_ENS9_14EqualsComparerINS1_8equal_toIS8_EEEENS1_9allocatorINS2_IKS9_jEEEEE13set_empty_keyERSH_
Ng:_glRenderbufferStorage
Zbj:__ZNK15dense_hashtableINSt3__24pairIK10KeyWrapperINS1_IPKcS4_EEEiEES6_24NamespaceAndNamePairHashN14dense_hash_mapIS6_iS9_NS6_14EqualsComparerI26NamespaceAndNamePairEqualsEENS0_9allocatorIS8_EEE9SelectKeyESD_SF_E13find_positionERS7_
Hhc:__Z45Register_UnityEngine_Input_get_touchSupportedv
bUc:__ZN11UnityEngine15PlatformWrapper28GetTextureFormatSupportFlagsEv
NCc:_sfnt_is_postscript
n_b:__ZNSt3__26vectorINS_4pairIN4core12basic_stringIcNS2_20StringStorageDefaultIcEEEES6_EE13stl_allocatorIS7_L18MemLabelIdentifier38ELi16EEE26__swap_out_circular_bufferERNS_14__split_bufferIS7_RSA_EEPS7_
Bti:_Uri_EscapeString_m3864445955
zyc:_cf2_setError
ZYh:__ZL78LayoutRebuilder_t541313304_CustomAttributesCacheGenerator_U3CU3Ef__mgU24cache0P21CustomAttributesCache
Q9a:__ZN14SafeBinaryRead21TransferSTLStyleArrayI13dynamic_arrayI12BoneWeights4Lj16EEEEvRT_17TransferMetaFlags
vwe:_Enumerator_MoveNext_m465222849_AdjustorThunk
FKb:__ZZ23InitPlayerLoopCallbacksvEN35PreUpdateSendMouseEventsRegistrator7ForwardEv
Alf:_X509Certificate__ctor_m1321742168
SRe:_U3CMouseDragOutsideRectU3Ec__Iterator1_System_Collections_Generic_IEnumeratorU3CobjectU3E_get_Current_m3688496850
HEa:__ZNK6Camera25GetNormalizedViewportRectEP13RenderTextureb
$7c:_Dropdown_Awake_m3140021404
_g:_glDisable
RXg:__Z52RuntimeInvoker_Void_t1185182177_UriScheme_t722425697PFvvEPK10MethodInfoPvPS4_
VZa:__ZN13RenderTexture8TransferI24GenerateTypeTreeTransferEEvRT_
ush:__ZL53IsVolatile_t2097058663_CustomAttributesCacheGeneratorP21CustomAttributesCache
$yg:_Vector2_get_sqrMagnitude_m837837635
lKa:__ZN4PPtrI9Texture2DE8TransferI14SafeBinaryReadEEvRT_
Ikj:__ZN6il2cpp5utils11StringUtils15StringDuplicateEPKDsj
sE:__ZZN8Animator15InitializeClassEvEN37FunctorImpl_417kDidModifyOverrideClip4CallEPviR11MessageData
pri:_Regex_Match_m4145799399
Dv:__ZN17AnimationPlayable17ProcessRootMotionEP35AnimationPlayableEvaluationConstantP32AnimationPlayableEvaluationInputP33AnimationPlayableEvaluationOutput
Kqf:_String_IsNullOrEmpty_m2969720369
Wze:_Enumerator_MoveNext_m2602845255_gshared
CHi:_TextGenerator_GetPreferredHeight_m3514897836
j2e:_BigInteger_LowestSetBit_m3082714978
KBg:__Z78RuntimeInvoker_Int16_t2552820387_RuntimeObject_Int32_t2950945753_RuntimeObjectPFvvEPK10MethodInfoPvPS4_
cKj:b118
dKj:b119
hJh:__ZL81Object_t631007953_CustomAttributesCacheGenerator_Object_set_hideFlags_m1648752846P21CustomAttributesCache
DLb:__ZNK8Material12GetPassCountEv
Zif:_RSAParameters_t1728406613_marshal_pinvoke
Chf:_Interval_IsDisjoint_m1532171337_AdjustorThunk
YJj:b112
Yyj:_bitshift64Ashr
_Jj:b114
$Jj:b115
aKj:b116
bKj:b117
eQi:__ZN30dense_hashtable_const_iteratorINSt3__24pairIK10KeyWrapperIN6il2cpp5utils13dynamic_arrayIPK10Il2CppTypeLj4EEEEPFvvEEESA_NS3_8metadata19Il2CppSignatureHashEN14dense_hash_mapISA_SD_SG_NSA_14EqualsComparerINSF_22Il2CppSignatureCompareEEENS0_9allocatorISE_EEE9SelectKeyESK_SM_E30advance_past_empty_and_deletedEv
tAj:dynCall_diii
OTe:_LayoutUtility_GetFlexibleWidth_m22831835
RMe:_BinaryFormatter__ctor_m971003555
yie:_ArrayReadOnlyList_1_ReadOnlyError_m865416608_gshared
MNg:__Z91RuntimeInvoker_Void_t1185182177_Int32_t2950945753_Int32U26_t1369213839_Int32U26_t1369213839PFvvEPK10MethodInfoPvPS4_
bmg:_DisplaysUpdatedDelegate_EndInvoke_m3857124817
Uvd:_CollectionBase_System_Collections_IList_get_Item_m3743372945
oEf:_CultureInfo_get_Name_m3662098416
Gxa:__ZN4crnd12crn_unpacker22decode_alpha_endpointsEv
lah:_Queue_1__ctor_m2068090025_gshared
TVb:__Z23CullDynamicObjectsUmbraPK4AABBPKN5Umbra15OcclusionBufferER9IndexList
nge:_SslStreamBase_RaiseRemoteCertificateValidation2_m2908038766
uEc:_tt_cmap4_char_next
Jgg:_UIntPtr__ctor_m4250165422_AdjustorThunk
_Z:__ZN4core8hash_mapIi17ThreadedAwakeDataNS_4hashIiEENSt3__28equal_toIiEEE4growEi
HBg:__Z50RuntimeInvoker_Boolean_t97287965_Int16_t2552820387PFvvEPK10MethodInfoPvPS4_
pAd:_Convert_ToDecimal_m1233667008
Kre:_InternalEnumerator_1_MoveNext_m2734554195_gshared
ZZ:__ZN4core8hash_mapIi17ThreadedAwakeDataNS_4hashIiEENSt3__28equal_toIiEEE4growEv
w7:__GLOBAL__sub_I_runtime_assetbundles_1_cpp
r8d:_MD5SHA1_HashCore_m4171647335
KI:__ZN4FMOD7Channel11setPositionEjj
Sh:_glBindSampler
Aae:_ClientContext_get_ClientHelloProtocol_m1654639078
Wh:_glGetVertexAttribiv
lAe:_Enumerator_System_Collections_IEnumerator_get_Current_m1975949486_gshared
Hpi:_PatternCompiler_EmitSub_m193323684
KLg:__Z74RuntimeInvoker_RuntimeObject_RuntimeObject_SByte_t1669577662_RuntimeObjectPFvvEPK10MethodInfoPvPS4_
LNc:__ZN2UI11CanvasGroup23VirtualRedirectTransferER18StreamedBinaryReadILb0EE
_Fd:_Int64_System_IConvertible_ToByte_m375085029
Quc:__ZN8JSONRead8TransferIbEEvRT_PKc17TransferMetaFlagsb
alg:_CullingGroup_t2096318768_marshal_pinvoke
fcg:_TimeSpan_ToString_m1128692466
Pvg:_RequireComponent__ctor_m886241599
pyi:_AesManaged_CreateEncryptor_m2294080233
$gj:__ZN6il2cpp2os6Thread20SetExplicitApartmentENS0_14ApartmentStateE
fvi:_Event_GetHashCode_m3559153592
tnc:__Z26RegisterModuleICalls_IMGUIv
rma:__ZN9ShaderLab9SubShaderD2Ev
Rwc:__ZN19ControllerHitReport13onObstacleHitERKN5physx23PxControllerObstacleHitE
aKg:__Z51RuntimeInvoker_Int16_t2552820387_Single_t1397266774PFvvEPK10MethodInfoPvPS4_
Gmj:_GC_promote_black_lists
_zd:_Convert_ToChar_m3757390865
Evc:__Z29Transfer_Blittable_ArrayFieldI8JSONRead8Vector4fEvRT_R9ArrayInfoRK23StaticTransferFieldInfo
Sn:FUNCTION_TABLE_vf
ETd:_Binder_GetDerivedLevel_m3216810447
qo:FUNCTION_TABLE_vd
Rgf:_RepeatContext_get_Start_m1076992038
Q8:__ZN13RuntimeStaticI37UnityShaderCompilerExtPluginConfigureLb0EE16StaticInitializeEPv
m7f:_StringBuilder_AppendFormat_m2403596038
Fgd:_DSASignatureDeformatter_SetHashAlgorithm_m3186995552
Q5h:_ReadOnlyCollection_1_System_Collections_Generic_ICollectionU3CTU3E_Clear_m2772202961_gshared
Tsc:__ZN9JSONWrite8TransferI13dynamic_arrayI4AABBLj4EEEEvRT_PKc17TransferMetaFlags
TE:__ZNK8Animator17HasBoundPlayablesEv
V3d:_ResourceSet_ReadResources_m3663669011
Ifh:_Collection_1_GetEnumerator_m3990758110_gshared
P9f:_SynchronizationContext_SetSynchronizationContext_m1249070039
gDh:__ZL74X509Crl_t1148767388_CustomAttributesCacheGenerator_U3CU3Ef__switchU24map13P21CustomAttributesCache
v7g:_List_1_AddEnumerable_m1267044261_gshared
UDc:_tt_cmap13_char_index
mVi:__ZN6il2cpp2vm7Runtime9SetConfigEPKc
Fpc:__ZN5Unity9rapidjson12PrettyWriterI16TempBufferWriterNS0_4UTF8IcEES4_13JSONAllocatorE10StartArrayEv
XDi:__ZL25UnresolvedVirtualCall_152P12Il2CppObject39CustomAttributeNamedArgument_t287865710PK10MethodInfo
ta:invoke_iiifiii
evg:_RectTransform_INTERNAL_get_pivot_m2970933031
tgi:_UnityAction_1_Invoke_m927447181_gshared
E9i:__ZN6il2cpp2vm9Exception11FromNameMsgEPK11Il2CppImagePKcS6_S6_
Vcj:__ZNSt3__26__treeINS_12__value_typeIP24Il2CppReflectionAssemblyPvEENS_19__map_value_compareIS3_S5_NS_4lessIS3_EELb1EEENS_9allocatorIS5_EEE12__find_equalIS3_EERPNS_16__tree_node_baseIS4_EESH_RKT_
cn:FUNCTION_TABLE_fiiifii
Sea:__Z14GetTimeManagerv
zkg:_Color32_op_Implicit_m213813866
Gug:_RectOffset_set_top_m713260669
Rmh:__ZL61ArrayReadOnlyList_1_t221793636_CustomAttributesCacheGeneratorP21CustomAttributesCache
vXc:__ZN19TransportJavaScript7CleanupEv
HPa:__Z12GUIDToStringRK9UnityGUIDPc
Pba:__ZN15FileSystemEntry4LockE12FileLockModeP12FileAccessor
bIj:_emscripten_glDrawArrays__wrapper
IFd:_Int32_Equals_m2976157357
GOg:__Z110RuntimeInvoker_Int32_t2950945753_Int32_t2950945753_Int32_t2950945753_Int32U26_t1369213839_Int32U26_t1369213839PFvvEPK10MethodInfoPvPS4_
l8g:_List_1_System_Collections_IList_get_IsReadOnly_m1601400230_gshared
gvd:_BitArray_get_IsSynchronized_m3546284417
hM:__ZN11AudioSource22UnmuteActiveVideoSinksEv
gki:_TlsException__ctor_m3717683709
Fkj:__ZN4utf88internal20is_overlong_sequenceIiEEbjT_
hPi:__ZN6il2cpp2vm13MetadataCache8RegisterEPK22Il2CppCodeRegistrationPK26Il2CppMetadataRegistrationPK20Il2CppCodeGenOptions
c1e:_SortKeyBuffer__ctor_m1384677558
O8c:_U3CDelayedDestroyDropdownListU3Ec__Iterator0_System_Collections_IEnumerator_get_Current_m1619733476
sAh:__ZL79Convert_t2465617642_CustomAttributesCacheGenerator_Convert_ToUInt16_m4064261444P21CustomAttributesCache
lRa:__Z9SetLocalR15TransformAccessRKN4math7_float4Ey
QRb:__Z30SetupBakedOcclusionForGeometrybRK26SharedLightmapSettingsDataRK15LightmapIndicesR17ShaderPassContext
v9:__ZN13RuntimeStaticI13ModuleManagerLb0EE13StaticDestroyEPv
Pfc:__Z41Register_UnityEngine_Cursor_get_lockStatev
mRb:__Z14SetupLightmapsRK8Vector4fS1_R17ShaderPassContext
l1i:__ZN14dense_hash_mapI10KeyWrapperIPK14Il2CppAssemblyEPK22Il2CppMonoAssemblyNameN6il2cpp5utils11PointerHashIS2_EENS4_14EqualsComparerINSt3__28equal_toIS3_EEEENSD_9allocatorINSD_4pairIKS4_S7_EEEEE13set_empty_keyERSJ_
O_a:__ZL20InitializeGUIShadersv
oGf:_Guid_CompareTo_m243656946
l1b:__Z20DestroyObjectDelayedP6Objectf
yW:__ZN20DynamicHeapAllocatorI17LowLevelAllocatorED0Ev
nHd:_IntPtr_ToPointer_m4157623054
Hce:_Context_get_LastHandshakeMsg_m2730646725
j4b:__ZN11TimeManagerC2E10MemLabelId18ObjectCreationMode
KOb:__ZN9DepthPassD2Ev
CH:__ZN11AudioFilter6GetDSPEv
t6e:_SymmetricTransform_CFB_m1051508796
yEe:_UrlAttribute_GetPropertiesForNewContext_m2281450996
Yif:_RSACryptoServiceProvider_OnKeyGenerated_m863837376
d4g:_List_1_get_Capacity_m3047075120_gshared
dTg:__Z31RuntimeInvoker_Mode_t1066900953PFvvEPK10MethodInfoPvPS4_
TWe:_Scrollbar_OnDrag_m4289602768
Caa:__ZN19RuntimeSceneManager14CanUnloadSceneEP10UnityScene
MOb:__Z22ExtractRenderNodeQueueRK11CullResults15ExtractionFlagsR15RenderNodeQueue
jZf:_GenericEqualityComparer_1_GetHashCode_m457148860_gshared
Whj:__ZN6il2cpp2vm6Method7GetNameEPK10MethodInfo
Zra:__ZN9GfxDevice16CreateTimerQueryEv
HG:__ZN24AudioScriptBufferManagerC2Ev
dKc:__ZNSt3__26vectorIh13stl_allocatorIhL18MemLabelIdentifier1ELi16EEE8__appendEj
ore:_InternalEnumerator_1_System_Collections_IEnumerator_get_Current_m3854084659_AdjustorThunk
FOe:_OnValidateInput_Invoke_m1009124904
Bhe:_U3CGetEnumeratorU3Ec__Iterator0_System_Collections_IEnumerator_get_Current_m283764921_gshared
kXf:_EqualityComparer_1_System_Collections_IEqualityComparer_GetHashCode_m3578195399_gshared
fKc:__ZN20TextRenderingPrivate8FontImpl16ResetPackingDataEv
rDf:_CultureInfo_get_IcuName_m2258611679
Dqc:__Z18Transfer_BlittableI9JSONWriteLb0EfEvRK29SerializationCommandArgumentsR31RuntimeSerializationCommandInfo
Twa:__Z21GetAsyncUploadManagerv
Jj:_emscripten_glDetachShader
Eze:_Transform_1_BeginInvoke_m3697921475_gshared
tvg:_Vector2_op_Subtraction_m73004381
Hwa:__ZN17GenericDynamicVBO20ReleaseChunkInternalERK21DynamicVBOChunkHandlejj
qMc:__ZL27CleanupModule_TextRenderingv
zvj:_fmodl
boe:_InternalEnumerator_1__ctor_m39232262_gshared
u6e:_SymmetricTransform_OFB_m3842617151
HV:__Z37RegisterModuleICalls_CloudWebServicesv
PMa:__ZNSt3__26vectorIiNS_9allocatorIiEEE21__push_back_slow_pathIKiEEvRT_
MHb:__ZN19RuntimeSceneManager11CreateSceneEv
ckg:_Color__ctor_m286683560
opi:_PatternCompiler_Emit_m1540115729
ECc:_ps_get_standard_strings
PRb:__Z27SetupBakedOcclusionForLightbRK15SharedLightDataR17ShaderPassContext
jsj:__ZN6il2cpp2os5Mutex6UnlockEv
BLd:_NullStream_get_Position_m4048431226
Z4f:_EncoderFallbackException__ctor_m1051987327
sih:__ZN21InterfaceFuncInvoker1I19Vector2_t2156229523iE6InvokeEjP11Il2CppClassP12Il2CppObjecti
Zce:_Context_set_RandomSC_m2364786761
Nvh:__ZL73AsymmetricSignatureDeformatter_t2681190756_CustomAttributesCacheGeneratorP21CustomAttributesCache
q4h:_Collection_1_CopyTo_m2335349786_gshared
r2e:_BigInteger_ToString_m3278248272
xxf:_Decimal_System_IConvertible_ToBoolean_m1123794670
pWg:__Z98RuntimeInvoker_Int32_t2950945753_RaycastResult_t3360306849_RaycastResult_t3360306849_RuntimeObjectPFvvEPK10MethodInfoPvPS4_
Taa:__Z17CommitBatchDeleteR11BatchDelete
ZTe:_Mask__ctor_m1269055150
Vyh:__ZL99WaitHandle_t1743403487_CustomAttributesCacheGenerator_WaitHandle_t1743403487____Handle_PropertyInfoP21CustomAttributesCache
nbf:_WebRequest_AddPrefix_m3187775913
rTh:__ZL98PointerEventData_t3807901092_CustomAttributesCacheGenerator_PointerEventData_get_button_m359423249P21CustomAttributesCache
btj:__ZNSt3__26__treeINS_12__value_typeIPFvvEPK10MethodInfoEENS_19__map_value_compareIS3_S7_NS_4lessIS3_EELb1EEENS_9allocatorIS7_EEE4findIS3_EENS_15__tree_iteratorIS7_PNS_11__tree_nodeIS7_PvEEiEERKT_
dFf:_NumberFormatInfo_get_CurrencyNegativePattern_m2134016253
EEh:__ZL85UriParser_t3890150400_CustomAttributesCacheGenerator_UriParser_OnRegister_m3283921560P21CustomAttributesCache
xUh:__ZL59Dropdown_t2274391225_CustomAttributesCacheGenerator_m_ValueP21CustomAttributesCache
gMb:__Z18RenderImageFiltersR10RenderLoopb
ZQc:__Z43CanvasRenderer_Get_Custom_PropMaterialCountP12Il2CppObject
_Rb:__ZNSt3__227__insertion_sort_incompleteIR23CompareReflectionProbesP31RuntimeReflectionProbeBlendInfoEEbT0_S5_T_
X3g:_List_1_Remove_m1457733883_gshared
Zvc:__ZN8JSONRead21TransferSTLStyleArrayI13dynamic_arrayI11QuaternionfLj4EEEEvRT_17TransferMetaFlags
pp:__ZN6Object23VirtualRedirectTransferER19StreamedBinaryWriteILb1EE
nec:__ZNK9BlobWrite24HasOffsetPtrWithDebugPtrEv
Ckh:__ZL80String_t_CustomAttributesCacheGenerator_String_FormatHelper_m3913915042____args3P21CustomAttributesCache
s0d:_MonoEventInfo_GetEventInfo_m873645389
sCd:_Convert_ToUInt64_m1745056470
f8d:_MD4Managed_Encode_m386285215
gca:__ZN10InputEventD2Ev
qwb:__Z18Transfer_BlittableI19StreamedBinaryWriteILb0EELb0E5RectTIfEEvRK29SerializationCommandArgumentsR31RuntimeSerializationCommandInfo
JZ:__ZL23OutOfBoundsReadingErrorPKN5Unity4TypeEiiR6Object
Pqe:_InternalEnumerator_1_MoveNext_m1590908934_AdjustorThunk
CYc:__ZN22UnityWebRequestManagerD2Ev
Vui:_Event_get_character_m1666742088
h$g:__Z112RuntimeInvoker_Boolean_t97287965_CustomAttributeNamedArgument_t287865710_CustomAttributeNamedArgument_t287865710PFvvEPK10MethodInfoPvPS4_
evj:_isalpha
rXe:_U3CClickRepeatU3Ec__Iterator0_Dispose_m4248496038
Wzd:_Convert_ToChar_m1442101407
pge:_SslClientStream_OnLocalPrivateKeySelection_m1934775249
kwi:_GUILayoutEntry_CalcWidth_m3962591050
Yad:__ZN21InterfaceFuncInvoker1IP19Graphic_t1660335611iE6InvokeEjP11Il2CppClassP12Il2CppObjecti
vwf:_DateTimeOffset_get_Offset_m2040541042_AdjustorThunk
sMh:__ZL80Logger_t274032455_CustomAttributesCacheGenerator_U3ClogHandlerU3Ek__BackingFieldP21CustomAttributesCache
iTi:__ZN6il2cpp2vmL17IsSocketAsyncCallEP14Il2CppDelegate
Hxd:_Slot_t3975888750_marshal_pinvoke_back
dkj:__ZN6il2cpp2vm6String6NewLenEPKcj
_4:__Z25GetBuiltinTexEnvParamNamei
GFb:__ZN17PersistentManager9AddStreamEv
Ugj:__ZN6il2cpp2os6Thread12GetApartmentEv
uJa:__ZN9GfxDevice28UpdateComputeConstantBuffersEjP12ObjectHandleI18ConstantBuffer_TagPvEjjPKhPKjS8_PKi
_k:_time
g6c:_ContentSizeFitter_set_verticalFit_m1831566876
ulf:_TripleDESCryptoServiceProvider_CreateDecryptor_m740960117
Flc:__ZN16memory_pool_implILi28EE15AutoPoolWrapper12UninitializeEPv
CSg:__Z122RuntimeInvoker_Void_t1185182177_Color_t2555686324_Single_t1397266774_SByte_t1669577662_SByte_t1669577662_SByte_t1669577662PFvvEPK10MethodInfoPvPS4_
hpg:_Material_EnableKeyword_m329692301
mzc:_cf2_stack_free
qkf:_SHA512Managed_HashCore_m2377807474
IGd:_Int64_Parse_m3309897583
YDf:_CompareInfo_IndexOf_m667936183
Y7g:_List_1__ctor_m2203182218_gshared
rv:__ZN7mecanim9animation19EvaluateFloatValuesEPKNS0_18ClipMuscleConstantEPKNS_18ValueArrayConstantEPKNS0_12ClipBindingsEPKNS0_10ClipOutputEPNS0_18AnimationNodeStateEfbb
Itg:_Rect_get_min_m847841034_AdjustorThunk
dD:__ZN8Animator31ClearInternalControllerPlayableEv
THa:__ZN26SinglePassStereoSupportExt18AfterSetViewMatrixEv
Qig:_Bounds__ctor_m1937678907_AdjustorThunk
xwg:_SetupCoroutine_InvokeMember_m2661944898
c_f:_HashSet_1__ctor_m620629637_gshared
Qbf:_X509EnhancedKeyUsageExtension_ToString_m350388564
cZd:_MethodBuilder_get_Module_m2693263127
ZYi:__ZN15dense_hashtableINSt3__24pairIK10KeyWrapperINS1_IPK9FieldInfoP11Il2CppClassEEEjEES9_17ReflectionMapHashIS8_EN14dense_hash_mapIS9_jSD_NS9_14EqualsComparerINS0_8equal_toIS8_EEEENS0_9allocatorISB_EEE9SelectKeyESI_SK_E4findERSA_
yud:_SimpleEnumerator_MoveNext_m3113120129
ced:_RuntimeTypeHandle_GetHashCode_m3999856879_AdjustorThunk
LHb:__ZN13LoadOperationC2E10MemLabelId
HOe:_InputField_SendOnValueChanged_m2560301445
psi:_CapturingGroup_get_Name_m3747712535
uXb:__ZN13RenderTexture19SetAutoGenerateMipsEb
nya:__Z20GetTextureFormatInfo13TextureFormat
$8e:_TypeConverterAttribute_Equals_m1580461255
j9d:_RSAManaged_ToXmlString_m2369501989
cy:__ZN26AnimatorControllerPlayable8GetFloatEiRf
JRe:_InputField_get_layoutPriority_m2945430764
Itf:_DateTime_System_IConvertible_ToSingle_m2193708681_AdjustorThunk
Bhf:_Interval_get_Size_m4163671410_AdjustorThunk
tri:_Regex_ToString_m1548107455
fNf:_NoAllocHelpers_SafeLength_TisVector2_t2156229523_m3807819939_gshared
bOc:__ZN2UI14CanvasRenderer13AwakeFromLoadE17AwakeFromLoadMode
ukh:__ZL64String_t_CustomAttributesCacheGenerator_String_Split_m3580120853P21CustomAttributesCache
fzb:__ZN18StreamedBinaryReadILb1EE5AlignEv
Bqj:__ZN6il2cpp5utils10MemoryPool6MallocEj
$F:__ZN11SoundHandle8InstanceD2Ev
F3d:_ResourceEnumerator_Reset_m3754276504
ufa:__ZN31CanvasBatchIntermediateRenderer13StaticDestroyEPv
j$:__ZNSt3__23mapIiP15MonoScriptCacheNS_4lessIiEE13stl_allocatorINS_4pairIKiS2_EEL18MemLabelIdentifier78ELi16EEEixERS7_
ERi:__ZNK15dense_hashtableINSt3__24pairIK10KeyWrapperIPK11Il2CppClassEPKcEES6_N6il2cpp5utils11PointerHashIS3_EEN14dense_hash_mapIS6_S9_SE_NS6_14EqualsComparerINS0_8equal_toIS5_EEEENS0_9allocatorISA_EEE9SelectKeyESJ_SL_E10test_emptyERK24dense_hashtable_iteratorISA_S6_SE_SN_SJ_SL_E
hRh:__ZL102CanvasRenderer_t2598313366_CustomAttributesCacheGenerator_CanvasRenderer_set_materialCount_m4286588063P21CustomAttributesCache
bEg:__Z78RuntimeInvoker_Int32_t2950945753_RuntimeObject_RuntimeObject_Int32_t2950945753PFvvEPK10MethodInfoPvPS4_
aTa:__Z26scripting_method_get_class18ScriptingMethodPtr
OFj:_emscripten_glBindProgramARB__wrapper
Mfc:__Z41Register_UnityEngine_CullingGroup_Disposev
Lpi:_PatternCompiler_EmitRepeat_m697083858
G2a:__ZN7Cubemap23VirtualRedirectTransferER19StreamedBinaryWriteILb0EE
TDe:_ConstructionLevelActivator__ctor_m3779412964
sOa:__ZN25MultiBlocksMemoryFileData5WriteEyyPKv
zih:_Collection_1_GetEnumerator_m344341702_gshared
Z$i:__ZNSt3__218uninitialized_fillIPNS_4pairIK10KeyWrapperINS1_IPK12PropertyInfoP11Il2CppClassEEEjEESB_EEvT_SD_RKT0_
i3d:_ResourceReader_Read7BitEncodedInt_m3568166465
v7c:_DefaultControls_CreateInputField_m1003102365
OKh:__ZL95Mesh_t3648964284_CustomAttributesCacheGenerator_Mesh_GetIndices_m1466450660____applyBaseVertex1P21CustomAttributesCache
kIi:_CanvasGroup_set_alpha_m4032573
Smd:_Array_get_LongLength_m978104875
XBa:__ZL17ProgramUniform2fvPK7ApiGLESjiihPKv
IGj:b83
vBg:__Z68RuntimeInvoker_Boolean_t97287965_RuntimeObject_UInt64U26_t1265593412PFvvEPK10MethodInfoPvPS4_
$Jc:__ZN20TextRenderingPrivate8FontImpl21HasCharacterInTextureEjijfPj
fkb:__ZNSt3__227__insertion_sort_incompleteIRPFbRK23TransformAccessReadOnlyS3_EPS1_EEbT0_S8_T_
D7c:_OptionData__ctor_m2529924901
ryg:_Transform_SetAsFirstSibling_m253439912
EYh:__ZL93HorizontalOrVerticalLayoutGroup_t729725570_CustomAttributesCacheGenerator_m_ChildControlWidthP21CustomAttributesCache
juf:_DateTime_System_IConvertible_ToUInt16_m4182197229_AdjustorThunk
uhf:_Interval_get_IsDiscontiguous_m3016063288
Fge:_SslStreamBase_get_CheckCertRevocationStatus_m2739906607
Awj:_htonl
Xta:__Z20GetBufferManagerGLESv
HGj:b82
Akf:_SHA512Managed_Sigma1_m922902398
WBb:__ZN18StreamedBinaryReadILb0EE21TransferSTLStyleArrayI31ArrayOfManagedObjectsTransfererEEvRT_17TransferMetaFlags
zua:__ZNSt3__26__treeI22DeviceStencilStateGLES14MemoryCompLessI18DeviceStencilStateENS_9allocatorIS1_EEE12__find_equalIS1_EERPNS_16__tree_node_baseIPvEESD_RKT_
Bwj:_htons
Otc:__Z18Transfer_BlittableI8JSONReadLb0EtEvRK29SerializationCommandArgumentsR31RuntimeSerializationCommandInfo
y0i:__ZN15dense_hashtableINSt3__24pairIK10KeyWrapperINS1_IPK9EventInfoP11Il2CppClassEEEjEES9_17ReflectionMapHashIS8_EN14dense_hash_mapIS9_jSD_NS9_14EqualsComparerINS0_8equal_toIS8_EEEENS0_9allocatorISB_EEE9SelectKeyESI_SK_E12expand_arrayEjN21dense_hash_map_traits17integral_constantIbLb0EEE
uyb:__Z18Transfer_BlittableI18StreamedBinaryReadILb1EELb0E5RectTIiEEvRK29SerializationCommandArgumentsR31RuntimeSerializationCommandInfo
DZ:__Z16GenerateTypeTreeRK6ObjectR8TypeTree24TransferInstructionFlags
OEf:_CultureInfo_CreateCulture_m1493441763
mlf:_TripleDES_IsWeakKey_m2147489852
U2a:__ZNK7Cubemap20GetTextureLayerCountEv
Qy:__ZN34AnimationStateMachineMixerPlayable13EndTransitionEv
TAh:__ZL79Convert_t2465617642_CustomAttributesCacheGenerator_Convert_ToUInt64_m2343585091P21CustomAttributesCache
LRg:__Z65RuntimeInvoker_Void_t1185182177_RuntimeObject_RectU26_t1284589061PFvvEPK10MethodInfoPvPS4_
kI:__ZN12AudioManager21FixMasterGroupRoutingEv
o9a:__ZNK19ShaderPropertySheet11HasPropertyERKN9ShaderLab16FastPropertyNameE
KAj:dynCall_viffffii
bC:__ZN15AllocatorTraitsIN8Animator11AnimatorJobELb0EE13CopyConstructEPS1_RKS1_10MemLabelId
nVg:__Z81RuntimeInvoker_Boolean_t97287965_NavigationU26_t1807167253_Navigation_t3049316579PFvvEPK10MethodInfoPvPS4_
UHj:_emscripten_glUniform1fv__wrapper
qbd:_GridLayoutGroup_SetLayoutHorizontal_m2838109254
JMg:__Z65RuntimeInvoker_SecurityProtocolType_t1513093309_Int16_t2552820387PFvvEPK10MethodInfoPvPS4_
y7c:_Dropdown_RefreshShownValue_m2806045241
lob:__Z18Transfer_BlittableI14SafeBinaryReadLb1E4AABBEvRK29SerializationCommandArgumentsR31RuntimeSerializationCommandInfo
rgj:__ZN6il2cpp6icalls8mscorlib6System4Enum12get_hashcodeEP12Il2CppObject
Epj:_GC_set_no_dls
B5c:_ColorBlock_set_normalColor_m254595671_AdjustorThunk
$tj:__ZN6il2cpp8metadata26Il2CppGenericMethodCompare6EqualsEPK19Il2CppGenericMethodS4_
Cih:_Collection_1_InsertItem_m1996433897_gshared
rqe:_InternalEnumerator_1_get_Current_m1007906068_gshared
h6a:__ZNK13ScreenManager16GetScreenTimeoutEv
cNi:__ZN15dense_hashtableINSt3__24pairIK10KeyWrapperIPK11Il2CppClassEPKcEES6_N6il2cpp5utils11PointerHashIS3_EEN14dense_hash_mapIS6_S9_SE_NS6_14EqualsComparerINS0_8equal_toIS5_EEEENS0_9allocatorISA_EEE9SelectKeyESJ_SL_E15set_deleted_keyERKSA_
Aud:_SimpleEnumerator_Reset_m1520014659
gxh:__ZL53IPrincipal_t2343618843_CustomAttributesCacheGeneratorP21CustomAttributesCache
J9f:_SendOrPostCallback__ctor_m1566534627
PG:__ZN9AudioClip7WWWOpenEPKciPjPPvS4_
cob:__Z18Transfer_BlittableI14SafeBinaryReadLb0E8Vector2fEvRK29SerializationCommandArgumentsR31RuntimeSerializationCommandInfo
Bce:_Context_set_ProtocolNegotiated_m2904861662
Yph:__ZL54FileOptions_t1024913468_CustomAttributesCacheGeneratorP21CustomAttributesCache
Xbj:__ZN15dense_hashtableINSt3__24pairIK10KeyWrapperINS1_IPKcS4_EEEiEES6_24NamespaceAndNamePairHashN14dense_hash_mapIS6_iS9_NS6_14EqualsComparerI26NamespaceAndNamePairEqualsEENS0_9allocatorIS8_EEE9SelectKeyESD_SF_E12resize_deltaEjj
BLe:_RemotingServices_GetRemoteObject_m2117098022
BIi:_CanvasRenderer_SetTexture_m1600559835
KWc:__ZN13dynamic_arrayIiLj4EE6insertEPiPKiS3_
Ahh:_Collection_1_System_Collections_IList_IndexOf_m4256072926_gshared
TEg:__Z132RuntimeInvoker_Boolean_t97287965_RuntimeObject_Int32_t2950945753_Int32_t2950945753_RuntimeObject_Int32_t2950945753_Int32_t2950945753PFvvEPK10MethodInfoPvPS4_
Bhc:__Z53Register_UnityEngine_Input_INTERNAL_get_mousePositionv
Qta:__ZN7ApiGLES12DrawElementsE16GfxPrimitiveTypePKvjjjj
L5e:_EncryptedPrivateKeyInfo_get_Salt_m3453455261
qvf:_DateTime__ParseNumber_m1240316250
Kof:_Single_System_IConvertible_ToSingle_m1939829239_AdjustorThunk
Hme:_InternalEnumerator_1_get_Current_m3839250771_gshared
okc:__Z66Register_UnityEngine_Transform_INTERNAL_CALL_InverseTransformPointv
qEf:_CultureInfo_get_TextInfo_m2342840448
FMf:_Array_InternalArray__IndexOf_TisMark_t3471605523_m2905388260_gshared
Q_c:_EventSystem_set_pixelDragThreshold_m890385646
wJa:__ZN9GfxDevice22DispatchComputeProgramE12ObjectHandleI18ComputeProgram_TagPvEjjj
fd:_SDL_GetTicks
V_i:__ZN15dense_hashtableINSt3__24pairIK10KeyWrapperINS1_IPK11Il2CppImageP11Il2CppClassEEEjEES9_17ReflectionMapHashIS8_EN14dense_hash_mapIS9_jSD_NS9_14EqualsComparerINS0_8equal_toIS8_EEEENS0_9allocatorISB_EEE9SelectKeyESI_SK_E6insertERKSB_
yVb:__Z21CreateShadowCullerJobP30CreateUmbraShadowCullerJobData
i9h:_ReadOnlyCollection_1_System_Collections_Generic_ICollectionU3CTU3E_Remove_m4072504734_gshared
PBa:__ZL18ProgramUniform2uivPK7ApiGLESjiihPKv
k4c:_U3COnFinishSubmitU3Ec__Iterator0_MoveNext_m2729496168
uHj:_glUniform4iv__wrapper
ySb:__Z33GenerateShadowCasterPartsSortDataRK16ShadowCasterDatajRK15RenderNodeQueueRKNSt3__26vectorI20ShadowCasterPartData13stl_allocatorIS7_L18MemLabelIdentifier2ELi16EEEERK10Matrix4x4fRjP20ShadowCasterSortData
UKb:__ZZ23InitPlayerLoopCallbacksvEN51PostLateUpdateTriggerEndOfFrameCallbacksRegistrator7ForwardEv
Kbg:_TimeSpan_Compare_m753151303
jrb:__Z29Transfer_Blittable_ArrayFieldI14SafeBinaryRead9BoundsIntEvRT_R9ArrayInfoRK23StaticTransferFieldInfo
tyc:_cf2_computeDarkening
nJi:_AnimationLayerMixerPlayable__ctor_m860721801_AdjustorThunk
L1d:_MonoPropertyInfo_get_property_info_m1599555644
r7g:_List_1_Add_m2298161512_gshared
cgd:_DESTransform_CipherFunct_m3527261721
anj:_GC_expand_hp_inner
Odj:__ZNK15dense_hashtableI10KeyWrapperIP18Il2CppGenericClassES3_N6il2cpp8metadata22Il2CppGenericClassHashEN14dense_hash_setIS3_S6_NS3_14EqualsComparerINS5_25Il2CppGenericClassCompareEEENSt3__29allocatorIS3_EEE8IdentityESA_SD_E12test_deletedEj
Okc:__Z25Screen_Get_Custom_PropDpiv
wxb:__Z29Transfer_Blittable_ArrayFieldI19StreamedBinaryWriteILb0EEsEvRT_R9ArrayInfoRK23StaticTransferFieldInfo
jng:_UnityEventBase_RebuildPersistentCallsIfNeeded_m216788690
PTh:__ZL80PhysicsRaycaster_t437419520_CustomAttributesCacheGenerator_m_MaxRayIntersectionsP21CustomAttributesCache
ukj:__ZN4utf812find_invalidIPKcEET_S3_S3_
BQe:_InputField_OnEndDrag_m4127187089
Hbi:_ReadOnlyCollection_1_System_Collections_IList_RemoveAt_m2555465054_gshared
Hnh:__ZL72RuntimeCompatibilityAttribute_t1169614002_CustomAttributesCacheGeneratorP21CustomAttributesCache
Pzf:_StackFrame__ctor_m343464319
wT:__ZN11UnityEngine15CloudWebService20WebRequestRestClient7PrepareEv
U0d:_MonoField_CheckGeneric_m453069507
OJc:__ZN20TextRenderingPrivate19NativeTextGenerator23FixLineHorizontalOffsetEiii
eVf:_DefaultComparer_Equals_m3348496647_gshared
FJe:_MethodCall_Init_m86192062
Gud:_SynchronizedArrayListWrapper_get_IsFixedSize_m3396437476
tNe:_ObjectReader_ReadArrayOfString_m3550800559
$Od:_MonoCustomAttrs_GetCustomAttributesInternal_m648304078
aA:__ZN7mecanim9animation19DestroyAnimationSetEPNS0_12AnimationSetERNS_6memory9AllocatorE
uCj:_emscripten_glDepthRange__wrapper
i0:__ZN14SerializedFile7ReleaseEv
mmb:__ZN16MemoryFileSystem4OpenER13FileEntryData14FilePermission16FileAutoBehavior
TDf:_CompareInfo_GetSortKey_m1915852346
dHc:_ft_var_load_avar
jfa:__ZN13RuntimeStaticI13RendererSceneLb0EE13StaticDestroyEPv
Fte:_DefaultComparer_Compare_m1297750557_gshared
AW:__ZN20DynamicHeapAllocatorI17LowLevelAllocatorE10ReallocateEPvji
xP:__ZN12AudioManager12CleanupClassEv
qub:__Z18Transfer_BlittableI24GenerateTypeTreeTransferLb1E12PropertyNameEvRK29SerializationCommandArgumentsR31RuntimeSerializationCommandInfo
Syi:_Toggle_OnEnable_m1421694809
_cb:__ZN14SafeBinaryRead21TransferSTLStyleArrayI10vector_mapIPKN5Unity4TypeE7Hash128NSt3__24lessIS5_EENS7_9allocatorINS7_4pairIS5_S6_EEEEEEEvRT_17TransferMetaFlags
OG:__ZN9AudioClip18GetQueuedAudioDataEPPvj
dMc:__ZN20TextRenderingPrivate21TextMeshGeneratorImpl14GarbageCollectEv
v4c:_CanvasScaler_get_scaleFactor_m122574367
tac:__ZNK9Texture2D17CheckHasPixelDataEv
rGi:_InputBuffer_DeleteCharacters_m244939457
dwb:__Z18Transfer_BlittableI19StreamedBinaryWriteILb0EELb0E9BoundsIntEvRK29SerializationCommandArgumentsR31RuntimeSerializationCommandInfo
tOb:__Z18SetShadowsKeywordsR17ShaderPassContext9LightType10ShadowType16ShadowProjectionbb
uad:_Graphic_GetPixelAdjustedRect_m3729397999
M2i:__ZN14dense_hash_mapI10KeyWrapperINSt3__24pairIPK12PropertyInfoP11Il2CppClassEEEj17ReflectionMapHashIS8_ENS9_14EqualsComparerINS1_8equal_toIS8_EEEENS1_9allocatorINS2_IKS9_jEEEEEC2EjRKSB_RKSF_
z6b:__ZN17CollisionMeshDataC2Ev
RCe:_Dictionary_2_ToTValue_m692436965_gshared
YXh:__ZL73AspectRatioFitter_t3312407083_CustomAttributesCacheGenerator_m_AspectModeP21CustomAttributesCache
bsi:_BalancingGroup_set_Balance_m3289053627
W4d:_Marshal_Copy_m1222846562
h4a:__ZN16LightmapSettings23VirtualRedirectTransferER19StreamedBinaryWriteILb0EE
XKb:__ZZ23InitPlayerLoopCallbacksvEN47PostLateUpdateMemoryFrameMaintenanceRegistrator7ForwardEv
Sta:__ZN7ApiGLES20SetVertexArrayAttribEjj12VertexFormathjPKv
vo:FUNCTION_TABLE_viiififii
Nnj:_GC_push_next_marked
oWf:_EqualityComparer_1_System_Collections_IEqualityComparer_GetHashCode_m3539775155_gshared
Ihb:__ZN18IDCollectorFunctor18GenerateInstanceIDEi17TransferMetaFlags
w3h:_GameObject_GetComponent_TisRuntimeObject_m2049753423_gshared
_Gi:_TextGenerationSettings_Equals_m3618607189_AdjustorThunk
Mxi:_SymmetricTransform_get_CanReuseTransform_m3495714228
f$d:_FieldInfo_get_UMarshal_m1217454798
y8e:_NameObjectCollectionBase_BaseAdd_m3437748750
bdg:_Type_internal_from_handle_m3156085815
XNg:__Z63RuntimeInvoker_RuntimeObject_RuntimeObject_Int32U26_t1369213839PFvvEPK10MethodInfoPvPS4_
$Ec:_ft_smooth_init
nwh:__ZL55MACTripleDES_t1631262397_CustomAttributesCacheGeneratorP21CustomAttributesCache
rRi:__ZN6il2cpp2vm13MetadataCache25GetMethodGenericContainerEPK10MethodInfo
x7h:_ReadOnlyCollection_1_System_Collections_Generic_ICollectionU3CTU3E_Add_m69722965_gshared
yD:__ZN8Animator8TransferI19StreamedBinaryWriteILb0EEEEvRT_
F1:__ZNSt3__27__sort4IRNS_6__lessI14ObjectLoadDataS2_EEPS2_EEjT0_S6_S6_S6_T_
aNb:__ZNK25CameraStackRenderingState16GetCurrentCameraEv
jKf:_Array_InternalArray__IEnumerable_GetEnumerator_TisIntPtr_t_m2620447453_gshared
OXe:_ScrollRect_get_rectTransform_m2442061719
eMa:__ZN17PersistentManager4LockEv
juh:__ZL51IMessage_t3593512748_CustomAttributesCacheGeneratorP21CustomAttributesCache
x8b:__Z22PlayableValidityChecksRK9HPlayableb
bIh:__ZL57AnimationCurve_t3046754366_CustomAttributesCacheGeneratorP21CustomAttributesCache
Eeb:__ZN15ResourceManagerD2Ev
Vpe:_InternalEnumerator_1__ctor_m3383770493_gshared
Bfc:__Z41Register_UnityEngine_Camera_GetAllCamerasv
zmg:_InvokableCall__ctor_m2158562079
ZSi:__ZN6il2cpp2gc9AllocatorIP17Il2CppAsyncResultE10deallocateEPvj
$qi:_Assertion__ctor_m2128950829
TVc:__ZN28PerformanceReportingSettings8TransferI14SafeBinaryReadEEvRT_
pdh:_Collection_1_System_Collections_ICollection_get_SyncRoot_m2514790028_gshared
$ib:__ZN15CacheWriterBase18GetAddressOfMemoryEv
ajd:_Buffer_BlockCopy_m2884209081
Bwh:__ZL56RSAParameters_t1728406613_CustomAttributesCacheGeneratorP21CustomAttributesCache
Wtc:__Z18Transfer_BlittableI8JSONReadLb1E5RectTIiEEvRK29SerializationCommandArgumentsR31RuntimeSerializationCommandInfo
PNh:__ZL84AudioSettings_t3587374600_CustomAttributesCacheGenerator_OnAudioConfigurationChangedP21CustomAttributesCache
g8i:__ZN6il2cpp2vm22EmbeddedResourceRecordC2ERKS1_
Gna:__ZNSt3__26vectorIN9ShaderLab20SerializedSubProgram15VectorParameterENS_9allocatorIS3_EEE21__push_back_slow_pathIKS3_EEvRT_
qIb:__ZL20DrawVBOChunkWithPassP6ShaderPN9ShaderLab4PassER17ShaderPassContextR10DynamicVBORK21DynamicVBOChunkHandle
Qdh:_Collection_1__ctor_m825528237_gshared
B2a:__ZN9Texture2D13AwakeFromLoadE17AwakeFromLoadMode
BJf:_SetPropertyUtility_SetStruct_TisColorBlock_t2139031574_m1748367426_gshared
Zqg:_PlayerConnection_get_instance_m1750121257
Lfj:__ZN6il2cpp2vm3RCW14QueryInterfaceILb0EEEP14Il2CppIUnknownP15Il2CppComObjectRK10Il2CppGuid
jvh:__ZL61FormatterConverter_t2760117746_CustomAttributesCacheGeneratorP21CustomAttributesCache
wni:_X509Store_get_Certificates_m56224934
BKe:_ReturnMessage_set_Uri_m3134200303
Vza:__ZN6prcoreL17RemapGenericFloatI15TexFormatRFloat18TexFormatARGBFloatEEvPKNS_9InnerInfoE
vIg:__Z85RuntimeInvoker_Void_t1185182177_Int64_t3736567304_Int32_t2950945753_Int64_t3736567304PFvvEPK10MethodInfoPvPS4_
V9d:_CipherSuite__ctor_m2440635082
bjf:_RSAPKCS1KeyExchangeFormatter_SetRSAKey_m1477802943
SKh:__ZL104SendMouseEvents_t3273302915_CustomAttributesCacheGenerator_SendMouseEvents_DoSendMouseEvents_m2140870850P21CustomAttributesCache
zjf:_SHA1CryptoServiceProvider_HashCore_m3575298072
Wmf:_EvidenceEnumerator_get_Current_m1264365535
QWc:__ZN11UnityEngine15PlatformWrapper20GetPlayerPrefsUInt64ERKN4core12basic_stringIcNS1_20StringStorageDefaultIcEEEEy
V4d:_Marshal_copy_from_unmanaged_m2834266824
XAj:dynCall_iiiifii
cSb:__ZN20ReflectionProbeCacheC2ER13BatchRendererR15RenderLoopStats
rif:_RIPEMD160Managed_G_m3625715749
w_a:__ZN7Texture23VirtualRedirectTransferER18StreamedBinaryReadILb0EE
aug:_Rect_set_xMax_m1720695099_AdjustorThunk
hLg:__Z59RuntimeInvoker_Int32_t2950945753_DateTimeOffset_t3229287507PFvvEPK10MethodInfoPvPS4_
klb:__ZNK12HandlerChain6ExistsERK13FileEntryData
YCf:_Calendar__ctor_m106290643
OSb:__Z30FindDirectAttenuationFromProbeP18ForwardLightsBlockbiRK10RenderNodeRK23FindForwardLightsParamsf
Mac:__ZNSt3__26vectorIj13stl_allocatorIjL18MemLabelIdentifier1ELi16EEE6assignIPKjEENS_9enable_ifIXaasr21__is_forward_iteratorIT_EE5valuesr16is_constructibleIjNS_15iterator_traitsIS9_E9referenceEEE5valueEvE4typeES9_S9_
kcb:__ZN12InputManager23VirtualRedirectTransferER24GenerateTypeTreeTransfer
pkb:__ZN9Transform23VirtualRedirectTransferER24GenerateTypeTreeTransfer
O5a:__Z18GetLODGroupManagerv
kmc:__ZN12GUIClipState10BeginOnGUIER10InputEvent
Ana:__ZNSt3__26vectorIN9ShaderLab20SerializedSubProgram12UAVParameterENS_9allocatorIS3_EEE21__push_back_slow_pathIKS3_EEvRT_
aRh:__ZL100CanvasGroup_t4083511760_CustomAttributesCacheGenerator_CanvasGroup_get_ignoreParentGroups_m865591534P21CustomAttributesCache
MMg:__Z87RuntimeInvoker_RuntimeObject_Byte_t1134296376_RuntimeObject_RuntimeObject_RuntimeObjectPFvvEPK10MethodInfoPvPS4_
Ebe:_HandshakeMessage_Process_m810828609
N_f:_KeyValuePair_2_get_Value_m1339120122_AdjustorThunk
yFc:_UNITY_tt_size_ready_bytecode
yIc:__ZN13TextRendering4FontD2Ev
rdb:__ZN27GenericSlowGarbageCollectorD2Ev
Qsg:_Quaternion_Inverse_m1311579081
fLc:_UNITY_FT_Stream_Open
I3c:_AspectRatioFitter_get_aspectRatio_m1928877056
Ncd:_SerializationEntry_t648286436_marshal_pinvoke_back
svb:__Z29Transfer_Blittable_ArrayFieldI24GenerateTypeTreeTransfer9BoundsIntEvRT_R9ArrayInfoRK23StaticTransferFieldInfo
abd:_GraphicRegistry__cctor_m1805310505
Vig:_Bounds_Equals_m3920299735
bXa:__ZN8keywords18KeywordSetToStringERK16ShaderKeywordSetRN4core12basic_stringIcNS3_20StringStorageDefaultIcEEEE
jYd:_GenericTypeParameterBuilder_GetGenericArguments_m2988765390
wBc:_otv_MATH_validate
FHg:__Z77RuntimeInvoker_Void_t1185182177_Int64_t3736567304_ResourceInfoU26_t1611441338PFvvEPK10MethodInfoPvPS4_
IIb:__ZNSt3__26vectorIN22BuiltinResourceManager8ResourceENS_9allocatorIS2_EEE21__push_back_slow_pathIKS2_EEvRT_
jXg:__Z53RuntimeInvoker_Int32_t2950945753_Keyframe_t4206410242PFvvEPK10MethodInfoPvPS4_
oF:__ZN4FMOD3DSP12setParameterEif
bGb:__ZN13MemoryManager16StaticInitializeEv
sEf:_CultureInfo_Equals_m1360976324
f$f:_KeyValuePair_2_set_Key_m3170517671_AdjustorThunk
lf:___cxa_free_exception
DLh:__ZL69PersistentCall_t3407714124_CustomAttributesCacheGenerator_m_CallStateP21CustomAttributesCache
Qbi:_ReadOnlyCollection_1_GetEnumerator_m122912648_gshared
kmg:_ArgumentCache_get_floatArgument_m3471193103
sJ:__ZN4FMOD22FakeModChannelCallbackEPv
MZc:_BaseInput_get_compositionString_m1887614380
rf:_emscripten_glValidateProgram
PVa:__ZN4Mesh10CreateMeshEv
Hjd:_X509Certificate_get_IssuerName_m605048065
Bid:_RijndaelManagedTransform__ctor_m1033522223
l9e:_WebHeaderCollection__ctor_m896654210
Puf:_DateTime_CompareTo_m3889078633
Wyc:_cf2_stack_clear
Wwh:__ZL61SecurityPermission_t2954997752_CustomAttributesCacheGeneratorP21CustomAttributesCache
_Yf:_GenericComparer_1__ctor_m2864776302_gshared
YDd:_NumberFormatter_set_CurrentCulture_m1358228087
vXb:__ZN7Texture13SetAnisoLevelEi
KR:__ZNSt3__26__treeINS_12__value_typeIN4core12basic_stringIcNS2_20StringStorageDefaultIcEEEEjEENS_19__map_value_compareIS6_S7_NS_4lessIS6_EELb1EEE13stl_allocatorIS7_L18MemLabelIdentifier88ELi16EEE7destroyEPNS_11__tree_nodeIS7_PvEE
K6:__ZN19EndOfFrameCallbacks7EnqueueEP18EndOfFrameCallbackb
Aog:_Input_set_compositionCursorPos_m1909373301
WKc:_raccess_guess_vfat
uJg:__Z78RuntimeInvoker_IntPtr_t_SByte_t1669577662_RuntimeObject_BooleanU26_t4125257963PFvvEPK10MethodInfoPvPS4_
c2c:_RaycastResult_get_gameObject_m2570051527_AdjustorThunk
fSc:__Z44Canvas_CUSTOM_GetETC1SupportedCanvasMaterialv
Iyf:_Decimal_decimalSetExponent_m3707787243
m9:__ZN33InstancedMeshIntermediateRenderer13StaticDestroyEPv
wwd:_KeyNotFoundException__ctor_m2696589580
Xaj:__ZN14dense_hash_mapI10KeyWrapperIP14Il2CppIUnknownEjN6il2cpp5utils11PointerHashIS1_EENS3_14EqualsComparerINSt3__28equal_toIS2_EEEENS9_9allocatorINS9_4pairIKS3_jEEEEE13set_empty_keyERSF_
Hva:__ZN15dense_hashtableINSt3__24pairIK9TextureIDiEES2_14GfxGenericHashIS2_EN14GfxDoubleCacheIS2_iS6_NS0_8equal_toIS2_EEN31GfxDoubleCacheConcurrencyPolicy11LocklessGetE42GfxDoubleCacheDefaultEmptyDeletedGeneratorIS2_EE9SelectKeyES9_13stl_allocatorIS4_L18MemLabelIdentifier24ELi16EEE12resize_deltaEjj
YSg:__Z50RuntimeInvoker_EditState_t3741896775_RuntimeObjectPFvvEPK10MethodInfoPvPS4_
PTa:__Z21DestroyShadowMapCacheP14ShadowMapCache
yx:__ZN7mecanim9animation25CreateControllerWorkspaceEPKNS0_18ControllerConstantERNS_6memory9AllocatorE
K2h:_Array_InternalArray__get_Item_TisLabelFixup_t858502054_m3276643490_gshared
b_f:_HashSet_1__ctor_m4231804131_gshared
k2i:__ZN15dense_hashtableINSt3__24pairIK10KeyWrapperIPK10Il2CppTypeEjEES6_N6il2cpp8metadata14Il2CppTypeHashEN14dense_hash_mapIS6_jSB_NS6_14EqualsComparerINSA_26Il2CppTypeEqualityComparerEEENS0_9allocatorIS8_EEE9SelectKeyESF_SH_E14squash_deletedEv
e9i:__ZN6il2cpp2vm13LivenessState5ResetEv
eqc:__ZN9JSONWrite8TransferI11KeyframeTplIfEEEvRT_PKc17TransferMetaFlags
B5b:__ZN13ProduceHelperI8RendererLb1EE7ProduceE10MemLabelId18ObjectCreationMode
nyd:_SortedList_GetImpl_m3689246167
$6h:_ReadOnlyCollection_1_System_Collections_Generic_IListU3CTU3E_set_Item_m3209059215_gshared
Swa:__ZN24BuiltinShaderParamValuesC2Ev
Ili:_PKCS12_Decode_m163534693
tqc:__ZL41CreateJSONTransferFunctionScriptingTraitsv
fha:__ZN6Shader23VirtualRedirectTransferER14SafeBinaryRead
Pxc:_cff_glyph_load
dAg:_WaitForSecondsRealtime_get_keepWaiting_m846832224
oji:_ObjectPool_1_get_countActive_m807006650_gshared
cjh:_Collection_1_System_Collections_IList_get_Item_m2087137030_gshared
dEb:__Z23GetLateBehaviourManagerv
sGg:__Z33RuntimeInvoker_Single_t1397266774PFvvEPK10MethodInfoPvPS4_
rqb:__ZN14SafeBinaryRead21TransferSTLStyleArrayINSt3__26vectorI8Gradient13stl_allocatorIS3_L18MemLabelIdentifier1ELi16EEEEEEvRT_17TransferMetaFlags
cNf:_NoAllocHelpers_SafeLength_TisInt32_t2950945753_m1263070609_gshared
TX:__ZN10MemoryPool10DeallocateEPv
ymc:__ZN8GUIState8SetEventERK10InputEvent
dFi:__ZL25UnresolvedVirtualCall_214P12Il2CppObjecti39CustomAttributeNamedArgument_t287865710PK10MethodInfo
WQg:__Z80RuntimeInvoker_Void_t1185182177_ScriptableRenderContext_t274343796_RuntimeObjectPFvvEPK10MethodInfoPvPS4_
JNd:_NullTextWriter_Write_m432139305
uy:__ZN13dynamic_arrayI4PPtrI13MonoBehaviourELj4EE9push_backERKS2_
Lv:__ZN17AnimationPlayable22SetStateMachineMessageEN7mecanim12statemachine19StateMachineMessageE
dVf:_DefaultComparer_GetHashCode_m4122680767_gshared
BAj:dynCall_vif
CAj:dynCall_vid
FYh:__ZL94HorizontalOrVerticalLayoutGroup_t729725570_CustomAttributesCacheGenerator_m_ChildControlHeightP21CustomAttributesCache
xBd:_Convert_ToSByte_m4075629912
DAj:dynCall_vii
d6:__ZN4PPtrI8MaterialE8TransferI18StreamedBinaryReadILb0EEEEvRT_
h5e:_KeyPairPersistence_FromXml_m746585742
Zrf:_Decoder__ctor_m4046021500
LBb:__Z18Transfer_BlittableI18StreamedBinaryReadILb0EELb0EdEvRK29SerializationCommandArgumentsR31RuntimeSerializationCommandInfo
l4c:_ColorBlock_get_fadeDuration_m121071467
bUi:__ZN6il2cpp6icalls8mscorlib6System8MonoType18GetFields_internalEP20Il2CppReflectionTypeiS5_
q2:__ZN5Unity9Component16CheckConsistencyEv
C1d:_MonoMethod_get_ContainsGenericParameters_m3860345224
y8b:__Z38scripting_class_get_system_type_object17ScriptingClassPtr
MMh:__ZL101RenderPipelineManager_t4036911426_CustomAttributesCacheGenerator_U3CcurrentPipelineU3Ek__BackingFieldP21CustomAttributesCache
R4:__ZN19ShaderPropertySheet37CreateTextureAuxPropertyUninitializedEN9ShaderLab16FastPropertyNameES1_PKc
Hwb:__ZL26Transfer_SimpleNativeClassI19StreamedBinaryWriteILb0EE10RectOffsetLb1EEvRK29SerializationCommandArgumentsR31RuntimeSerializationCommandInfo
thi:_UnityEvent_1_RemoveListener_m4190968495_gshared
Fci:_Comparison_1_EndInvoke_m2438956051_gshared
uKj:b128
FZi:__ZN15dense_hashtableINSt3__24pairIK10KeyWrapperIPK10Il2CppTypeEjEES6_N6il2cpp8metadata14Il2CppTypeHashEN14dense_hash_mapIS6_jSB_NS6_14EqualsComparerINSA_26Il2CppTypeEqualityComparerEEENS0_9allocatorIS8_EEE9SelectKeyESF_SH_E3endEv
fsa:__ZN13GfxDeviceGLES17SetGpuProgramNameEP10GpuProgramPKc
JT:__ZNK11UnityEngine15CloudWebService25WebRequestDownloadHandler11GetProgressEv
GWa:__Z43IsVertexFormatCompatibleWithDynamicBatchingRK14VertexDataInfo
NNf:_Array_InternalArray__ICollection_Add_TisMonoResource_t4103430009_m2699164149_gshared
pSi:__ZN6il2cpp2vm13MetadataCache28GetMethodDefinitionFromIndexEi
pVa:__Z32TransferEnumWithNameForceIntSizeI14SafeBinaryReadN21BuiltinShaderSettings17BuiltinShaderModeEEvRT_RT0_PKc17TransferMetaFlags
Yij:__ZN6il2cpp2os20FileErrnoToErrorCodeEi
M$a:__ZN14SafeBinaryRead19TransferSTLStyleMapINSt3__23mapI39DeprecatedFastPropertyNameSerialization10ColorRGBAfNS1_4lessIS3_EENS1_9allocatorINS1_4pairIKS3_S4_EEEEEEEEvRT_17TransferMetaFlags
kxf:_Decimal_ThrowAtPos_m1170269346
VGh:__ZL98GameObject_t1113636619_CustomAttributesCacheGenerator_GameObject_SendMessage_m3720186693____value1P21CustomAttributesCache
ah:_atexit
yZe:_Selectable_set_image_m3625164794
X2d:_TypeFilter_BeginInvoke_m1623271879
Lqe:_InternalEnumerator_1_get_Current_m1232221964_gshared
Rai:_ReadOnlyCollection_1_System_Collections_Generic_IListU3CTU3E_Insert_m1818924748_gshared
N0i:__ZN6il2cpp2vmL31GetObjectForMissingDefaultValueEj
A8a:__ZN9Texture3D17MainThreadCleanupEv
z3c:_AspectRatioFitter__ctor_m2468506840
mTc:__ZN11UnityEngine15PlatformWrapper30GetVRPlayAreaBoundaryDimensionEv
Hmi:_X509Certificate_get_Hash_m410033711
Xja:__ZN9ShaderLab14SerializedPassC2ERKS0_
Cqc:__Z35Transfer_Blittable_FixedBufferFieldI9JSONWritehEvRK29SerializationCommandArgumentsR31RuntimeSerializationCommandInfo
l:STACKTOP
P4g:_List_1_IndexOf_m3567357949_gshared
NN:__ZNK7Texture14IsDepthTextureEv
aBc:_cff_get_name_index
y4a:__ZN21EnlightenSceneMapping16BuildRemapTablesEv
x9b:__ZN17TransformInternal27UpdateDeepChildCountUpwardsER18TransformHierarchyii
e2h:_LayoutGroup_SetProperty_TisConstraint_t814224393_m1820208910_gshared
L$c:_ExecuteEvents_Execute_m3613826831
qod:_Swapper_EndInvoke_m1804951082
n7c:_Image_set_type_m2038193736
A:tempBigIntD
TWb:__ZNK25CameraStackRenderingState25CalculateCameraTargetTypeEv
c_d:_PropertyBuilder_GetSetMethod_m128670376
y:tempBigIntR
x:tempBigIntS
w:tempBigIntP
rn:FUNCTION_TABLE_viffi
eLd:_MemoryStream_SetLength_m974389318
J1:__ZN6Object18RegisterInstanceIDEPS_
Xtb:__Z18Transfer_BlittableI24GenerateTypeTreeTransferLb1EsEvRK29SerializationCommandArgumentsR31RuntimeSerializationCommandInfo
hfj:__ZN15dense_hashtableINSt3__24pairIK10KeyWrapperIP12Il2CppObjectEN6il2cpp2gc9CachedCCWEEES5_NS7_5utils11PointerHashIS3_EEN14dense_hash_mapIS5_S9_SD_NS5_14EqualsComparerINS0_8equal_toIS4_EEEENS0_9allocatorISA_EEE9SelectKeyESI_SK_E11set_deletedER30dense_hashtable_const_iteratorISA_S5_SD_SM_SI_SK_E
lpa:__ZNK9GfxDevice18GetWorldViewMatrixEv
KTg:__Z70RuntimeInvoker_Single_t1397266774_Single_t1397266774_Int32_t2950945753PFvvEPK10MethodInfoPvPS4_
rNb:__Z20LookRotationToMatrixRK8Vector3fS1_P10Matrix3x3f
UBd:_Convert_ToUInt16_m3902921832
BZi:__ZNK15dense_hashtableINSt3__24pairIK10KeyWrapperINS1_IPK9FieldInfoP11Il2CppClassEEEjEES9_17ReflectionMapHashIS8_EN14dense_hash_mapIS9_jSD_NS9_14EqualsComparerINS0_8equal_toIS8_EEEENS0_9allocatorISB_EEE9SelectKeyESI_SK_E12test_deletedERK24dense_hashtable_iteratorISB_S9_SD_SM_SI_SK_E
LSd:_Assembly_GetTypes_m1724781913
Sqh:__ZL54TypeBuilder_t1073948154_CustomAttributesCacheGeneratorP21CustomAttributesCache
ncj:__ZN15dense_hashtableINSt3__24pairIK10KeyWrapperINS1_IPKcS4_EEEiEES6_24NamespaceAndNamePairHashN14dense_hash_mapIS6_iS9_NS6_14EqualsComparerI26NamespaceAndNamePairEqualsEENS0_9allocatorIS8_EEE9SelectKeyESD_SF_E12expand_arrayEjN21dense_hash_map_traits17integral_constantIbLb0EEE
Yvd:_CollectionBase_GetEnumerator_m654829872
slj:__ZN6il2cpp6icalls8mscorlib6System7Convert17Base64ToByteArrayEPDsib
Lub:__ZL12InvokeMethodI24GenerateTypeTreeTransferEvRK29SerializationCommandArgumentsR31RuntimeSerializationCommandInfo
A2f:_List_1_AddEnumerable_m376418521_gshared
dVe:_Navigation_set_selectOnDown_m1641183109
z8c:_DropdownItem_get_toggle_m2434100135
RMg:__Z79RuntimeInvoker_Void_t1185182177_Byte_t1134296376_Byte_t1134296376_RuntimeObjectPFvvEPK10MethodInfoPvPS4_
wPi:__ZNSt3__218__insertion_sort_3IRN6il2cpp5utils11collections13ArrayValueMapIPK10Il2CppType17Il2CppInteropData26InteropDataToTypeConverterNS1_8metadata14Il2CppTypeLessENSA_26Il2CppTypeEqualityComparerEE12SortComparerEPS8_EEvT0_SH_T_
QTi:__ZNSt3__26vectorINS_4pairIPK10MethodInfoP11Il2CppClassEENS_9allocatorIS7_EEE21__push_back_slow_pathIS7_EEvOT_
ppa:__ZNK9GfxDevice25GetDeviceProjectionMatrixEv
w$f:_Enumerator__ctor_m3170385166_AdjustorThunk
n6i:__ZNSt3__26vectorIP11Il2CppClassNS_9allocatorIS2_EEE21__push_back_slow_pathIS2_EEvOT_
ma:invoke_iidiii
bub:__Z18Transfer_BlittableI24GenerateTypeTreeTransferLb1EtEvRK29SerializationCommandArgumentsR31RuntimeSerializationCommandInfo
JP:__ZN12AudioManager33GetCurrentAmbisonicDefinitionNameE31UnityAudioEffectDefinitionFlags
Mcc:__ZN11UTF16StringC2EPKc10MemLabelId
Zbc:__ZN10systeminfo24GetRuntimePlatformStringEv
